$VAR1 = {
          'ABI_DUMPER_VERSION' => '1.1',
          'ABI_DUMP_VERSION' => '3.5',
          'Arch' => 'x86_64',
          'Compiler' => 'GNU C++17 11.2.1 20220127 (Red Hat 11.2.1-9) -mcx16 -mtune=generic -march=x86-64 -g -Og -std=c++17 -feliminate-unused-debug-symbols -fno-strict-aliasing -fPIC',
          'Headers' => {
                         'TextView.h' => 1,
                         'bwf_base.h' => 1,
                         'bwf_ex.h' => 1,
                         'bwf_ip.h' => 1,
                         'bwf_std.h' => 1,
                         'swoc_file.h' => 1,
                         'swoc_ip.h' => 1
                       },
          'Language' => 'C++',
          'LibraryName' => 'libtsswoc.so.10.0.0',
          'LibraryVersion' => 'current',
          'NameSpaces' => {
                            '__gnu_cxx' => 1,
                            '__gnu_cxx::__ops' => 1,
                            '__pstl::execution::v1' => 1,
                            'std' => 1,
                            'std::_V2' => 1,
                            'std::__cxx11' => 1,
                            'std::__detail' => 1,
                            'std::__exception_ptr' => 1,
                            'std::chrono' => 1,
                            'std::chrono::_V2' => 1,
                            'std::pmr' => 1,
                            'swoc::_1_3_5' => 1,
                            'swoc::_1_3_5::bwf' => 1,
                            'swoc::_1_3_5::detail' => 1,
                            'swoc::_1_3_5::file' => 1,
                            'swoc::_1_3_5::meta' => 1,
                            'swoc::_1_3_5::tag' => 1
                          },
          'Needed' => {
                        'libc.so.6' => 1,
                        'libgcc_s.so.1' => 1,
                        'libm.so.6' => 1,
                        'libstdc++.so.6' => 1
                      },
          'PublicABI' => '1',
          'Sources' => {},
          'SymbolInfo' => {
                            '11838' => {
                                         'Data' => 1,
                                         'Header' => 'bwf_base.h',
                                         'MnglName' => '_ZN4swoc6_1_3_53bwf12Global_NamesE',
                                         'NameSpace' => 'swoc::_1_3_5::bwf',
                                         'Return' => '11691',
                                         'ShortName' => 'Global_Names'
                                       },
                            '12620' => {
                                         'Header' => 'bwf_base.h',
                                         'MnglName' => '_ZN4swoc6_1_3_53bwf16Adjust_AlignmentERNS0_12BufferWriterERKNS1_4SpecE',
                                         'NameSpace' => 'swoc::_1_3_5::bwf',
                                         'Param' => {
                                                      '0' => {
                                                               'name' => 'aux',
                                                               'type' => '65855'
                                                             },
                                                      '1' => {
                                                               'name' => 'spec',
                                                               'type' => '65945'
                                                             }
                                                    },
                                         'Return' => '1',
                                         'ShortName' => 'Adjust_Alignment'
                                       },
                            '12648' => {
                                         'Header' => 'bwf_base.h',
                                         'MnglName' => '_ZN4swoc6_1_3_53bwf17Err_Bad_Arg_IndexERNS0_12BufferWriterEim',
                                         'NameSpace' => 'swoc::_1_3_5::bwf',
                                         'Param' => {
                                                      '0' => {
                                                               'name' => 'w',
                                                               'type' => '65855'
                                                             },
                                                      '1' => {
                                                               'name' => 'i',
                                                               'type' => '13428'
                                                             },
                                                      '2' => {
                                                               'name' => 'n',
                                                               'type' => '13392'
                                                             }
                                                    },
                                         'Return' => '1',
                                         'ShortName' => 'Err_Bad_Arg_Index'
                                       },
                            '13330' => {
                                         'Header' => 'bwf_ex.h',
                                         'MnglName' => '_ZN4swoc6_1_3_58bwformatERNS0_12BufferWriterERKNS0_3bwf4SpecESt17basic_string_viewIcSt11char_traitsIcEE',
                                         'NameSpace' => 'swoc::_1_3_5',
                                         'Param' => {
                                                      '0' => {
                                                               'name' => 'w',
                                                               'type' => '65855'
                                                             },
                                                      '1' => {
                                                               'name' => 'spec',
                                                               'type' => '65945'
                                                             },
                                                      '2' => {
                                                               'name' => 'sv',
                                                               'type' => '18714'
                                                             }
                                                    },
                                         'Return' => '65855',
                                         'ShortName' => 'bwformat'
                                       },
                            '144355' => {
                                          'Header' => 'bwf_ip.h',
                                          'MnglName' => '_ZStlsRSoRKN4swoc6_1_3_58TextViewE',
                                          'NameSpace' => 'std',
                                          'Param' => {
                                                       '0' => {
                                                                'name' => 'os',
                                                                'type' => '67193'
                                                              },
                                                       '1' => {
                                                                'name' => 'b',
                                                                'type' => '65875'
                                                              }
                                                     },
                                          'Return' => '67193',
                                          'ShortName' => 'operator<<'
                                        },
                            '147017' => {
                                          'Header' => 'bwf_ex.h',
                                          'MnglName' => '_ZSt8bwformatRN4swoc6_1_3_512BufferWriterERKNS0_3bwf4SpecERKSt10error_code',
                                          'NameSpace' => 'std',
                                          'Param' => {
                                                       '0' => {
                                                                'name' => 'w',
                                                                'type' => '65855'
                                                              },
                                                       '1' => {
                                                                'name' => 'spec',
                                                                'type' => '65945'
                                                              },
                                                       '2' => {
                                                                'name' => 'ec',
                                                                'type' => '180987'
                                                              }
                                                     },
                                          'Return' => '65855',
                                          'ShortName' => 'bwformat'
                                        },
                            '147054' => {
                                          'Header' => 'bwf_ip.h',
                                          'MnglName' => '_ZStlsRSoRN4swoc6_1_3_517FixedBufferWriterE',
                                          'NameSpace' => 'std',
                                          'Param' => {
                                                       '0' => {
                                                                'name' => 's',
                                                                'type' => '67193'
                                                              },
                                                       '1' => {
                                                                'name' => 'w',
                                                                'type' => '66856'
                                                              }
                                                     },
                                          'Return' => '67193',
                                          'ShortName' => 'operator<<'
                                        },
                            '162705' => {
                                          'Data' => 1,
                                          'Header' => 'TextView.h',
                                          'MnglName' => '_ZN4swoc6_1_3_513svtoi_convertE',
                                          'NameSpace' => 'swoc::_1_3_5',
                                          'Return' => '180767',
                                          'ShortName' => 'svtoi_convert'
                                        },
                            '177663' => {
                                          'Header' => 'bwf_base.h',
                                          'MnglName' => '_ZN4swoc6_1_3_53bwf13Format_As_HexERNS0_12BufferWriterESt17basic_string_viewIcSt11char_traitsIcEEPKc',
                                          'NameSpace' => 'swoc::_1_3_5::bwf',
                                          'Param' => {
                                                       '0' => {
                                                                'name' => 'w',
                                                                'type' => '65855'
                                                              },
                                                       '1' => {
                                                                'name' => 'view',
                                                                'type' => '18714'
                                                              },
                                                       '2' => {
                                                                'name' => 'digits',
                                                                'type' => '13441'
                                                              }
                                                     },
                                          'Return' => '1',
                                          'ShortName' => 'Format_As_Hex'
                                        },
                            '177696' => {
                                          'Header' => 'bwf_base.h',
                                          'MnglName' => '_ZN4swoc6_1_3_53bwf12Format_FloatERNS0_12BufferWriterERKNS1_4SpecEdb',
                                          'NameSpace' => 'swoc::_1_3_5::bwf',
                                          'Param' => {
                                                       '0' => {
                                                                'name' => 'w',
                                                                'type' => '65855'
                                                              },
                                                       '1' => {
                                                                'name' => 'spec',
                                                                'type' => '65945'
                                                              },
                                                       '2' => {
                                                                'name' => 'f',
                                                                'type' => '54190'
                                                              },
                                                       '3' => {
                                                                'name' => 'negative_p',
                                                                'type' => '61241'
                                                              }
                                                     },
                                          'Return' => '65855',
                                          'ShortName' => 'Format_Float'
                                        },
                            '177738' => {
                                          'Header' => 'bwf_base.h',
                                          'MnglName' => '_ZN4swoc6_1_3_53bwf14Format_IntegerERNS0_12BufferWriterERKNS1_4SpecEmb',
                                          'NameSpace' => 'swoc::_1_3_5::bwf',
                                          'Param' => {
                                                       '0' => {
                                                                'name' => 'w',
                                                                'type' => '65855'
                                                              },
                                                       '1' => {
                                                                'name' => 'spec',
                                                                'type' => '65945'
                                                              },
                                                       '2' => {
                                                                'name' => 'i',
                                                                'type' => '61960'
                                                              },
                                                       '3' => {
                                                                'name' => 'neg_p',
                                                                'type' => '61241'
                                                              }
                                                     },
                                          'Return' => '65855',
                                          'ShortName' => 'Format_Integer'
                                        },
                            '180434' => {
                                          'Header' => 'bwf_ex.h',
                                          'MnglName' => '_ZN4swoc6_1_3_58bwformatERNS0_12BufferWriterERKNS0_3bwf4SpecERKNS3_7PatternE',
                                          'NameSpace' => 'swoc::_1_3_5',
                                          'Param' => {
                                                       '0' => {
                                                                'name' => 'w',
                                                                'type' => '65855'
                                                              },
                                                       '1' => {
                                                                'name' => 'spec',
                                                                'type' => '65945'
                                                              },
                                                       '2' => {
                                                                'name' => 'pattern',
                                                                'type' => '241388'
                                                              }
                                                     },
                                          'Return' => '65855',
                                          'ShortName' => 'bwformat'
                                        },
                            '180471' => {
                                          'Header' => 'bwf_ex.h',
                                          'MnglName' => '_ZN4swoc6_1_3_58bwformatERNS0_12BufferWriterERKNS0_3bwf4SpecERKNS3_4DateE',
                                          'NameSpace' => 'swoc::_1_3_5',
                                          'Param' => {
                                                       '0' => {
                                                                'name' => 'w',
                                                                'type' => '65855'
                                                              },
                                                       '1' => {
                                                                'name' => 'spec',
                                                                'type' => '65945'
                                                              },
                                                       '2' => {
                                                                'name' => 'date',
                                                                'type' => '241866'
                                                              }
                                                     },
                                          'Return' => '65855',
                                          'ShortName' => 'bwformat'
                                        },
                            '180508' => {
                                          'Header' => 'bwf_ex.h',
                                          'MnglName' => '_ZN4swoc6_1_3_58bwformatERNS0_12BufferWriterERKNS0_3bwf4SpecERKNS3_5ErrnoE',
                                          'NameSpace' => 'swoc::_1_3_5',
                                          'Param' => {
                                                       '0' => {
                                                                'name' => 'w',
                                                                'type' => '65855'
                                                              },
                                                       '1' => {
                                                                'name' => 'spec',
                                                                'type' => '65945'
                                                              },
                                                       '2' => {
                                                                'name' => 'e',
                                                                'type' => '243875'
                                                              }
                                                     },
                                          'Return' => '65855',
                                          'ShortName' => 'bwformat'
                                        },
                            '180545' => {
                                          'Header' => 'bwf_ex.h',
                                          'MnglName' => '_ZN4swoc6_1_3_58bwformatERNS0_12BufferWriterERKNS0_3bwf4SpecERKNS0_7MemSpanIvEE',
                                          'NameSpace' => 'swoc::_1_3_5',
                                          'Param' => {
                                                       '0' => {
                                                                'name' => 'w',
                                                                'type' => '65855'
                                                              },
                                                       '1' => {
                                                                'name' => 'spec',
                                                                'type' => '65945'
                                                              },
                                                       '2' => {
                                                                'name' => 'span',
                                                                'type' => '67158'
                                                              }
                                                     },
                                          'Return' => '65855',
                                          'ShortName' => 'bwformat'
                                        },
                            '180582' => {
                                          'Header' => 'bwf_ex.h',
                                          'MnglName' => '_ZN4swoc6_1_3_58bwformatERNS0_12BufferWriterERKNS0_3bwf4SpecERKNS3_7HexDumpE',
                                          'NameSpace' => 'swoc::_1_3_5',
                                          'Param' => {
                                                       '0' => {
                                                                'name' => 'w',
                                                                'type' => '65855'
                                                              },
                                                       '1' => {
                                                                'name' => 'spec',
                                                                'type' => '65945'
                                                              },
                                                       '2' => {
                                                                'name' => 'hex',
                                                                'type' => '222871'
                                                              }
                                                     },
                                          'Return' => '65855',
                                          'ShortName' => 'bwformat'
                                        },
                            '361768' => {
                                          'Header' => 'bwf_ex.h',
                                          'MnglName' => '_ZN4swoc6_1_3_58bwformatERNS0_12BufferWriterERKNS0_3bwf4SpecERKNS0_6IPMaskE',
                                          'NameSpace' => 'swoc::_1_3_5',
                                          'Param' => {
                                                       '0' => {
                                                                'name' => 'w',
                                                                'type' => '65855'
                                                              },
                                                       '1' => {
                                                                'name' => 'spec',
                                                                'type' => '65945'
                                                              },
                                                       '2' => {
                                                                'name' => 'mask',
                                                                'type' => '366768'
                                                              }
                                                     },
                                          'Return' => '65855',
                                          'ShortName' => 'bwformat'
                                        },
                            '361805' => {
                                          'Header' => 'bwf_ex.h',
                                          'MnglName' => '_ZN4swoc6_1_3_58bwformatERNS0_12BufferWriterERKNS0_3bwf4SpecERKNS0_5IPNetE',
                                          'NameSpace' => 'swoc::_1_3_5',
                                          'Param' => {
                                                       '0' => {
                                                                'name' => 'w',
                                                                'type' => '65855'
                                                              },
                                                       '1' => {
                                                                'name' => 'spec',
                                                                'type' => '65945'
                                                              },
                                                       '2' => {
                                                                'name' => 'net',
                                                                'type' => '393674'
                                                              }
                                                     },
                                          'Return' => '65855',
                                          'ShortName' => 'bwformat'
                                        },
                            '361842' => {
                                          'Header' => 'bwf_ex.h',
                                          'MnglName' => '_ZN4swoc6_1_3_58bwformatERNS0_12BufferWriterERKNS0_3bwf4SpecERKNS0_6IP6NetE',
                                          'NameSpace' => 'swoc::_1_3_5',
                                          'Param' => {
                                                       '0' => {
                                                                'name' => 'w',
                                                                'type' => '65855'
                                                              },
                                                       '1' => {
                                                                'name' => 'spec',
                                                                'type' => '65945'
                                                              },
                                                       '2' => {
                                                                'name' => 'net',
                                                                'type' => '394630'
                                                              }
                                                     },
                                          'Return' => '65855',
                                          'ShortName' => 'bwformat'
                                        },
                            '361879' => {
                                          'Header' => 'bwf_ex.h',
                                          'MnglName' => '_ZN4swoc6_1_3_58bwformatERNS0_12BufferWriterERKNS0_3bwf4SpecERKNS0_6IP4NetE',
                                          'NameSpace' => 'swoc::_1_3_5',
                                          'Param' => {
                                                       '0' => {
                                                                'name' => 'w',
                                                                'type' => '65855'
                                                              },
                                                       '1' => {
                                                                'name' => 'spec',
                                                                'type' => '65945'
                                                              },
                                                       '2' => {
                                                                'name' => 'net',
                                                                'type' => '395074'
                                                              }
                                                     },
                                          'Return' => '65855',
                                          'ShortName' => 'bwformat'
                                        },
                            '361916' => {
                                          'Header' => 'bwf_ex.h',
                                          'MnglName' => '_ZN4swoc6_1_3_58bwformatERNS0_12BufferWriterERKNS0_3bwf4SpecERKNS0_7IPRangeE',
                                          'NameSpace' => 'swoc::_1_3_5',
                                          'Param' => {
                                                       '0' => {
                                                                'name' => 'w',
                                                                'type' => '65855'
                                                              },
                                                       '1' => {
                                                                'name' => 'spec',
                                                                'type' => '65945'
                                                              },
                                                       '2' => {
                                                                'name' => 'range',
                                                                'type' => '395518'
                                                              }
                                                     },
                                          'Return' => '65855',
                                          'ShortName' => 'bwformat'
                                        },
                            '361953' => {
                                          'Header' => 'bwf_ex.h',
                                          'MnglName' => '_ZN4swoc6_1_3_58bwformatERNS0_12BufferWriterERKNS0_3bwf4SpecERKNS0_8IP6RangeE',
                                          'NameSpace' => 'swoc::_1_3_5',
                                          'Param' => {
                                                       '0' => {
                                                                'name' => 'w',
                                                                'type' => '65855'
                                                              },
                                                       '1' => {
                                                                'name' => 'spec',
                                                                'type' => '65945'
                                                              },
                                                       '2' => {
                                                                'name' => 'range',
                                                                'type' => '367378'
                                                              }
                                                     },
                                          'Return' => '65855',
                                          'ShortName' => 'bwformat'
                                        },
                            '361990' => {
                                          'Header' => 'bwf_ex.h',
                                          'MnglName' => '_ZN4swoc6_1_3_58bwformatERNS0_12BufferWriterERKNS0_3bwf4SpecERKNS0_8IP4RangeE',
                                          'NameSpace' => 'swoc::_1_3_5',
                                          'Param' => {
                                                       '0' => {
                                                                'name' => 'w',
                                                                'type' => '65855'
                                                              },
                                                       '1' => {
                                                                'name' => 'spec',
                                                                'type' => '65945'
                                                              },
                                                       '2' => {
                                                                'name' => 'range',
                                                                'type' => '367373'
                                                              }
                                                     },
                                          'Return' => '65855',
                                          'ShortName' => 'bwformat'
                                        },
                            '362027' => {
                                          'Header' => 'bwf_ex.h',
                                          'MnglName' => '_ZN4swoc6_1_3_58bwformatERNS0_12BufferWriterERKNS0_3bwf4SpecERKNS0_6IPAddrE',
                                          'NameSpace' => 'swoc::_1_3_5',
                                          'Param' => {
                                                       '0' => {
                                                                'name' => 'w',
                                                                'type' => '65855'
                                                              },
                                                       '1' => {
                                                                'name' => 'spec',
                                                                'type' => '65945'
                                                              },
                                                       '2' => {
                                                                'name' => 'addr',
                                                                'type' => '366703'
                                                              }
                                                     },
                                          'Return' => '65855',
                                          'ShortName' => 'bwformat'
                                        },
                            '362063' => {
                                          'Header' => 'bwf_ex.h',
                                          'MnglName' => '_ZN4swoc6_1_3_58bwformatERNS0_12BufferWriterERKNS0_3bwf4SpecERKNS0_7IP6AddrE',
                                          'NameSpace' => 'swoc::_1_3_5',
                                          'Param' => {
                                                       '0' => {
                                                                'name' => 'w',
                                                                'type' => '65855'
                                                              },
                                                       '1' => {
                                                                'name' => 'spec',
                                                                'type' => '65945'
                                                              },
                                                       '2' => {
                                                                'name' => 'addr',
                                                                'type' => '367133'
                                                              }
                                                     },
                                          'Return' => '65855',
                                          'ShortName' => 'bwformat'
                                        },
                            '362099' => {
                                          'Header' => 'bwf_ex.h',
                                          'MnglName' => '_ZN4swoc6_1_3_58bwformatERNS0_12BufferWriterERKNS0_3bwf4SpecERKNS0_7IP4AddrE',
                                          'NameSpace' => 'swoc::_1_3_5',
                                          'Param' => {
                                                       '0' => {
                                                                'name' => 'w',
                                                                'type' => '65855'
                                                              },
                                                       '1' => {
                                                                'name' => 'spec',
                                                                'type' => '65945'
                                                              },
                                                       '2' => {
                                                                'name' => 'addr',
                                                                'type' => '367128'
                                                              }
                                                     },
                                          'Return' => '65855',
                                          'ShortName' => 'bwformat'
                                        },
                            '362135' => {
                                          'Header' => 'bwf_ex.h',
                                          'MnglName' => '_ZN4swoc6_1_3_58bwformatERNS0_12BufferWriterERKNS0_3bwf4SpecEPK8sockaddr',
                                          'NameSpace' => 'swoc::_1_3_5',
                                          'Param' => {
                                                       '0' => {
                                                                'name' => 'w',
                                                                'type' => '65855'
                                                              },
                                                       '1' => {
                                                                'name' => 'spec',
                                                                'type' => '65945'
                                                              },
                                                       '2' => {
                                                                'name' => 'addr',
                                                                'type' => '366708'
                                                              }
                                                     },
                                          'Return' => '65855',
                                          'ShortName' => 'bwformat'
                                        },
                            '362171' => {
                                          'Header' => 'bwf_ex.h',
                                          'MnglName' => '_ZN4swoc6_1_3_58bwformatERNS0_12BufferWriterERKNS0_3bwf4SpecERK8in6_addr',
                                          'NameSpace' => 'swoc::_1_3_5',
                                          'Param' => {
                                                       '0' => {
                                                                'name' => 'w',
                                                                'type' => '65855'
                                                              },
                                                       '1' => {
                                                                'name' => 'spec',
                                                                'type' => '65945'
                                                              },
                                                       '2' => {
                                                                'name' => 'addr',
                                                                'type' => '367067'
                                                              }
                                                     },
                                          'Return' => '65855',
                                          'ShortName' => 'bwformat'
                                        },
                            '515517' => {
                                          'Header' => 'bwf_ip.h',
                                          'MnglName' => '_ZN4swoc6_1_3_5lsERSoRKNS0_6ErrataE',
                                          'NameSpace' => 'swoc::_1_3_5',
                                          'Param' => {
                                                       '0' => {
                                                                'name' => 'os',
                                                                'type' => '67193'
                                                              },
                                                       '1' => {
                                                                'name' => 'err',
                                                                'type' => '518140'
                                                              }
                                                     },
                                          'Return' => '67193',
                                          'ShortName' => 'operator<<'
                                        },
                            '515548' => {
                                          'Header' => 'bwf_ex.h',
                                          'MnglName' => '_ZN4swoc6_1_3_58bwformatERNS0_12BufferWriterERKNS0_3bwf4SpecERKNS0_6ErrataE',
                                          'NameSpace' => 'swoc::_1_3_5',
                                          'Param' => {
                                                       '0' => {
                                                                'name' => 'bw',
                                                                'type' => '65855'
                                                              },
                                                       '1' => {
                                                                'name' => 'p2',
                                                                'type' => '65945'
                                                              },
                                                       '2' => {
                                                                'name' => 'errata',
                                                                'type' => '518140'
                                                              }
                                                     },
                                          'Reg' => {
                                                     '1' => 'rsi'
                                                   },
                                          'Return' => '65855',
                                          'ShortName' => 'bwformat'
                                        },
                            '515584' => {
                                          'Header' => 'bwf_ex.h',
                                          'MnglName' => '_ZN4swoc6_1_3_58bwformatERNS0_12BufferWriterERKNS0_3bwf4SpecENS0_6Errata8SeverityE',
                                          'NameSpace' => 'swoc::_1_3_5',
                                          'Param' => {
                                                       '0' => {
                                                                'name' => 'bw',
                                                                'type' => '65855'
                                                              },
                                                       '1' => {
                                                                'name' => 'spec',
                                                                'type' => '65945'
                                                              },
                                                       '2' => {
                                                                'name' => 'level',
                                                                'type' => '508674'
                                                              }
                                                     },
                                          'Return' => '65855',
                                          'ShortName' => 'bwformat'
                                        },
                            '710063' => {
                                          'Header' => 'bwf_std.h',
                                          'MnglName' => '_ZN4swoc6_1_3_54file4loadB5cxx11ERKNS1_4pathERSt10error_code',
                                          'NameSpace' => 'swoc::_1_3_5::file',
                                          'Param' => {
                                                       '0' => {
                                                                'name' => 'p',
                                                                'type' => '718272'
                                                              },
                                                       '1' => {
                                                                'name' => 'ec',
                                                                'type' => '742757'
                                                              }
                                                     },
                                          'Return' => '26572',
                                          'ShortName' => 'load'
                                        },
                            '710094' => {
                                          'Header' => 'swoc_file.h',
                                          'MnglName' => '_ZN4swoc6_1_3_54file11is_readableERKNS1_4pathE',
                                          'NameSpace' => 'swoc::_1_3_5::file',
                                          'Param' => {
                                                       '0' => {
                                                                'name' => 'p',
                                                                'type' => '718272'
                                                              }
                                                     },
                                          'Return' => '61241',
                                          'ShortName' => 'is_readable'
                                        },
                            '710120' => {
                                          'Header' => 'swoc_file.h',
                                          'MnglName' => '_ZN4swoc6_1_3_54file11status_timeERKNS1_11file_statusE',
                                          'NameSpace' => 'swoc::_1_3_5::file',
                                          'Param' => {
                                                       '0' => {
                                                                'name' => 'fs',
                                                                'type' => '744895'
                                                              }
                                                     },
                                          'Return' => '90701',
                                          'ShortName' => 'status_time'
                                        },
                            '710146' => {
                                          'Header' => 'swoc_file.h',
                                          'MnglName' => '_ZN4swoc6_1_3_54file11access_timeERKNS1_11file_statusE',
                                          'NameSpace' => 'swoc::_1_3_5::file',
                                          'Param' => {
                                                       '0' => {
                                                                'name' => 'fs',
                                                                'type' => '744895'
                                                              }
                                                     },
                                          'Return' => '90701',
                                          'ShortName' => 'access_time'
                                        },
                            '710172' => {
                                          'Header' => 'swoc_file.h',
                                          'MnglName' => '_ZN4swoc6_1_3_54file11modify_timeERKNS1_11file_statusE',
                                          'NameSpace' => 'swoc::_1_3_5::file',
                                          'Param' => {
                                                       '0' => {
                                                                'name' => 'fs',
                                                                'type' => '744895'
                                                              }
                                                     },
                                          'Return' => '90701',
                                          'ShortName' => 'modify_time'
                                        },
                            '710198' => {
                                          'Header' => 'swoc_file.h',
                                          'MnglName' => '_ZN4swoc6_1_3_54file8absoluteERKNS1_4pathERSt10error_code',
                                          'NameSpace' => 'swoc::_1_3_5::file',
                                          'Param' => {
                                                       '0' => {
                                                                'name' => 'src',
                                                                'type' => '718272'
                                                              },
                                                       '1' => {
                                                                'name' => 'ec',
                                                                'type' => '742757'
                                                              }
                                                     },
                                          'Return' => '709247',
                                          'ShortName' => 'absolute'
                                        },
                            '710229' => {
                                          'Header' => 'swoc_file.h',
                                          'MnglName' => '_ZN4swoc6_1_3_54file6is_dirERKNS1_11file_statusE',
                                          'NameSpace' => 'swoc::_1_3_5::file',
                                          'Param' => {
                                                       '0' => {
                                                                'name' => 'fs',
                                                                'type' => '744895'
                                                              }
                                                     },
                                          'Return' => '61241',
                                          'ShortName' => 'is_dir'
                                        },
                            '710255' => {
                                          'Header' => 'swoc_file.h',
                                          'MnglName' => '_ZN4swoc6_1_3_54file15is_regular_fileERKNS1_11file_statusE',
                                          'NameSpace' => 'swoc::_1_3_5::file',
                                          'Param' => {
                                                       '0' => {
                                                                'name' => 'fs',
                                                                'type' => '744895'
                                                              }
                                                     },
                                          'Return' => '61241',
                                          'ShortName' => 'is_regular_file'
                                        },
                            '710281' => {
                                          'Header' => 'swoc_file.h',
                                          'MnglName' => '_ZN4swoc6_1_3_54file15is_block_deviceERKNS1_11file_statusE',
                                          'NameSpace' => 'swoc::_1_3_5::file',
                                          'Param' => {
                                                       '0' => {
                                                                'name' => 'fs',
                                                                'type' => '744895'
                                                              }
                                                     },
                                          'Return' => '61241',
                                          'ShortName' => 'is_block_device'
                                        },
                            '710307' => {
                                          'Header' => 'swoc_file.h',
                                          'MnglName' => '_ZN4swoc6_1_3_54file14is_char_deviceERKNS1_11file_statusE',
                                          'NameSpace' => 'swoc::_1_3_5::file',
                                          'Param' => {
                                                       '0' => {
                                                                'name' => 'fs',
                                                                'type' => '744895'
                                                              }
                                                     },
                                          'Return' => '61241',
                                          'ShortName' => 'is_char_device'
                                        },
                            '710333' => {
                                          'Header' => 'swoc_file.h',
                                          'MnglName' => '_ZN4swoc6_1_3_54file9file_sizeERKNS1_11file_statusE',
                                          'NameSpace' => 'swoc::_1_3_5::file',
                                          'Param' => {
                                                       '0' => {
                                                                'name' => 'fs',
                                                                'type' => '744895'
                                                              }
                                                     },
                                          'Reg' => {
                                                     '0' => 'rdi'
                                                   },
                                          'Return' => '650381',
                                          'ShortName' => 'file_size'
                                        },
                            '710359' => {
                                          'Header' => 'swoc_file.h',
                                          'MnglName' => '_ZN4swoc6_1_3_54file9file_typeERKNS1_11file_statusE',
                                          'NameSpace' => 'swoc::_1_3_5::file',
                                          'Param' => {
                                                       '0' => {
                                                                'name' => 'fs',
                                                                'type' => '744895'
                                                              }
                                                     },
                                          'Reg' => {
                                                     '0' => 'rdi'
                                                   },
                                          'Return' => '13428',
                                          'ShortName' => 'file_type'
                                        },
                            '710385' => {
                                          'Header' => 'swoc_file.h',
                                          'MnglName' => '_ZN4swoc6_1_3_54file6statusERKNS1_4pathERSt10error_code',
                                          'NameSpace' => 'swoc::_1_3_5::file',
                                          'Param' => {
                                                       '0' => {
                                                                'name' => 'file',
                                                                'type' => '718272'
                                                              },
                                                       '1' => {
                                                                'name' => 'ec',
                                                                'type' => '742757'
                                                              }
                                                     },
                                          'Return' => '709920',
                                          'ShortName' => 'status'
                                        },
                            '718015' => {
                                          'Header' => 'bwf_ex.h',
                                          'MnglName' => '_ZN4swoc6_1_3_58bwformatERNS0_12BufferWriterERKNS0_3bwf4SpecERKNS0_4file4pathE',
                                          'NameSpace' => 'swoc::_1_3_5',
                                          'Param' => {
                                                       '0' => {
                                                                'name' => 'w',
                                                                'type' => '65855'
                                                              },
                                                       '1' => {
                                                                'name' => 'spec',
                                                                'type' => '65945'
                                                              },
                                                       '2' => {
                                                                'name' => 'p',
                                                                'type' => '718272'
                                                              }
                                                     },
                                          'Return' => '65855',
                                          'ShortName' => 'bwformat'
                                        },
                            '796360' => {
                                          'Data' => 1,
                                          'Header' => 'swoc_ip.h',
                                          'MnglName' => '_ZN4swoc6_1_3_514pseudo_nullptrE',
                                          'NameSpace' => 'swoc::_1_3_5',
                                          'Return' => '764897',
                                          'ShortName' => 'pseudo_nullptr'
                                        },
                            '809470' => {
                                          'Header' => 'TextView.h',
                                          'MnglName' => '_ZN4swoc6_1_3_55svtoiENS0_8TextViewEPS1_i',
                                          'NameSpace' => 'swoc::_1_3_5',
                                          'Param' => {
                                                       '0' => {
                                                                'name' => 'src',
                                                                'type' => '2252'
                                                              },
                                                       '1' => {
                                                                'name' => 'out',
                                                                'type' => '64981'
                                                              },
                                                       '2' => {
                                                                'name' => 'base',
                                                                'type' => '13428'
                                                              }
                                                     },
                                          'Return' => '61948',
                                          'ShortName' => 'svtoi'
                                        },
                            '809507' => {
                                          'Header' => 'TextView.h',
                                          'MnglName' => '_ZN4swoc6_1_3_55svtouENS0_8TextViewEPS1_i',
                                          'NameSpace' => 'swoc::_1_3_5',
                                          'Param' => {
                                                       '0' => {
                                                                'name' => 'src',
                                                                'type' => '2252'
                                                              },
                                                       '1' => {
                                                                'name' => 'out',
                                                                'type' => '64981'
                                                              },
                                                       '2' => {
                                                                'name' => 'base',
                                                                'type' => '13428'
                                                              }
                                                     },
                                          'Return' => '61960',
                                          'ShortName' => 'svtou'
                                        },
                            '889611' => {
                                          'Header' => 'TextView.h',
                                          'MnglName' => '_ZN4swoc6_1_3_55svtodENS0_8TextViewEPS1_',
                                          'NameSpace' => 'swoc::_1_3_5',
                                          'Param' => {
                                                       '0' => {
                                                                'name' => 'text',
                                                                'type' => '2252'
                                                              },
                                                       '1' => {
                                                                'name' => 'parsed',
                                                                'type' => '64981'
                                                              }
                                                     },
                                          'Return' => '54190',
                                          'ShortName' => 'svtod'
                                        }
                          },
          'SymbolVersion' => {},
          'Symbols' => {
                         'libtsswoc.so.10.0.0' => {
                                                    '_ZN4swoc6_1_3_510IPEndpoint10set_to_anyEi' => 1,
                                                    '_ZN4swoc6_1_3_510IPEndpoint11family_nameEt' => 1,
                                                    '_ZN4swoc6_1_3_510IPEndpoint15set_to_loopbackEi' => 1,
                                                    '_ZN4swoc6_1_3_510IPEndpoint5parseERKSt17basic_string_viewIcSt11char_traitsIcEE' => 1,
                                                    '_ZN4swoc6_1_3_510IPEndpoint6assignEP8sockaddrPKS2_' => 1,
                                                    '_ZN4swoc6_1_3_510IPEndpoint6assignERKNS0_6IPAddrEt' => 1,
                                                    '_ZN4swoc6_1_3_510IPEndpoint8tokenizeESt17basic_string_viewIcSt11char_traitsIcEEPS5_S6_S6_' => 1,
                                                    '_ZN4swoc6_1_3_510IPEndpointC1ERKSt17basic_string_viewIcSt11char_traitsIcEE' => 1,
                                                    '_ZN4swoc6_1_3_510IPEndpointC2ERKSt17basic_string_viewIcSt11char_traitsIcEE' => 1,
                                                    '_ZN4swoc6_1_3_510svto_radixILi10EEEmRNS0_8TextViewE' => 1,
                                                    '_ZN4swoc6_1_3_510svto_radixILi16EEEmRNS0_8TextViewE' => 1,
                                                    '_ZN4swoc6_1_3_510svto_radixILi2EEEmRNS0_8TextViewE' => 1,
                                                    '_ZN4swoc6_1_3_510svto_radixILi8EEEmRNS0_8TextViewE' => 1,
                                                    '_ZN4swoc6_1_3_511ArenaWriter5writeEPKvm' => 1,
                                                    '_ZN4swoc6_1_3_511ArenaWriter5writeEc' => 1,
                                                    '_ZN4swoc6_1_3_511ArenaWriter6commitEm' => 1,
                                                    '_ZN4swoc6_1_3_511ArenaWriter7reallocEm' => 1,
                                                    '_ZN4swoc6_1_3_511ArenaWriterD0Ev' => 1,
                                                    '_ZN4swoc6_1_3_511ArenaWriterD1Ev' => 1,
                                                    '_ZN4swoc6_1_3_511ArenaWriterD2Ev' => 1,
                                                    '_ZN4swoc6_1_3_512BufferWriter5printIJNS0_3bwf7PatternENS3_7SubTextIJNS0_6Errata8SeverityEEEENS0_8TextViewEEEERS1_RKS9_DpOT_' => 1,
                                                    '_ZN4swoc6_1_3_512BufferWriter5printIJNS0_6Errata8SeverityEEEERS1_RKNS0_8TextViewEDpOT_' => 1,
                                                    '_ZN4swoc6_1_3_512BufferWriter5printIJRKSt10error_codeEEERS1_RKNS0_8TextViewEDpOT_' => 1,
                                                    '_ZN4swoc6_1_3_512BufferWriter5printIJRKSt17basic_string_viewIcSt11char_traitsIcEEEEERS1_RKNS0_8TextViewEDpOT_' => 1,
                                                    '_ZN4swoc6_1_3_512BufferWriter5printIJRKiEEERS1_RKNS0_3bwf6FormatEDpOT_' => 1,
                                                    '_ZN4swoc6_1_3_512BufferWriter5printIJRKtEEERS1_RKNS0_8TextViewEDpOT_' => 1,
                                                    '_ZN4swoc6_1_3_512BufferWriter5printIJRiRmEEERS1_RKNS0_3bwf6FormatEDpOT_' => 1,
                                                    '_ZN4swoc6_1_3_512BufferWriter5printIJiEEERS1_RKNS0_3bwf6FormatEDpOT_' => 1,
                                                    '_ZN4swoc6_1_3_512BufferWriter5printIJmPvEEERS1_RKNS0_3bwf6FormatEDpOT_' => 1,
                                                    '_ZN4swoc6_1_3_512BufferWriter5printIJtEEERS1_RKNS0_8TextViewEDpOT_' => 1,
                                                    '_ZN4swoc6_1_3_512BufferWriter5writeEPKvm' => 1,
                                                    '_ZN4swoc6_1_3_512BufferWriter7print_vIJNS0_6Errata8SeverityEEEERS1_RKNS0_8TextViewERKSt5tupleIJDpT_EE' => 1,
                                                    '_ZN4swoc6_1_3_512BufferWriter7print_vIJRKNS0_6ErrataEEEERS1_RKNS0_8TextViewERKSt5tupleIJDpT_EE' => 1,
                                                    '_ZN4swoc6_1_3_512BufferWriter7print_vIJRKSt10error_codeEEERS1_RKNS0_8TextViewERKSt5tupleIJDpT_EE' => 1,
                                                    '_ZN4swoc6_1_3_512BufferWriter8aux_dataEv' => 1,
                                                    '_ZN4swoc6_1_3_512BufferWriter9print_nfvIRKNS0_3bwf11NameBindingENS3_6Format15FormatExtractorEEERS1_OT_OT0_RKNS3_7ArgPackE' => 1,
                                                    '_ZN4swoc6_1_3_512BufferWriter9print_nfvIRKNS0_3bwf11NameBindingENS3_6Format17TextViewExtractorEEERS1_OT_OT0_RKNS3_7ArgPackE' => 1,
                                                    '_ZN4swoc6_1_3_513DiscreteRangeINS0_7IP4AddrEE10assign_minERKS2_' => 1,
                                                    '_ZN4swoc6_1_3_513DiscreteRangeINS0_7IP4AddrEE6assignERKS2_S5_' => 1,
                                                    '_ZN4swoc6_1_3_513DiscreteRangeINS0_7IP6AddrEE10assign_minERKS2_' => 1,
                                                    '_ZN4swoc6_1_3_513DiscreteRangeINS0_7IP6AddrEE6assignERKS2_S5_' => 1,
                                                    '_ZN4swoc6_1_3_513TransformViewIPDoFiiESt17basic_string_viewIcSt11char_traitsIcEEEC1ERKS3_RKS7_' => 1,
                                                    '_ZN4swoc6_1_3_513TransformViewIPDoFiiESt17basic_string_viewIcSt11char_traitsIcEEEC2ERKS3_RKS7_' => 1,
                                                    '_ZN4swoc6_1_3_513TransformViewIPDoFiiESt17basic_string_viewIcSt11char_traitsIcEEEppEi' => 1,
                                                    '_ZN4swoc6_1_3_513svtoi_convertE' => -256,
                                                    '_ZN4swoc6_1_3_514IntrusiveDListINS0_16IntrusiveLinkageINS0_6Errata10AnnotationEXadL_ZNS4_5_nextEEEXadL_ZNS4_5_prevEEEEEE14const_iteratorC1EPKS6_PKS4_' => 1,
                                                    '_ZN4swoc6_1_3_514IntrusiveDListINS0_16IntrusiveLinkageINS0_6Errata10AnnotationEXadL_ZNS4_5_nextEEEXadL_ZNS4_5_prevEEEEEE14const_iteratorC1Ev' => 1,
                                                    '_ZN4swoc6_1_3_514IntrusiveDListINS0_16IntrusiveLinkageINS0_6Errata10AnnotationEXadL_ZNS4_5_nextEEEXadL_ZNS4_5_prevEEEEEE14const_iteratorC2EPKS6_PKS4_' => 1,
                                                    '_ZN4swoc6_1_3_514IntrusiveDListINS0_16IntrusiveLinkageINS0_6Errata10AnnotationEXadL_ZNS4_5_nextEEEXadL_ZNS4_5_prevEEEEEE14const_iteratorC2Ev' => 1,
                                                    '_ZN4swoc6_1_3_514IntrusiveDListINS0_16IntrusiveLinkageINS0_6Errata10AnnotationEXadL_ZNS4_5_nextEEEXadL_ZNS4_5_prevEEEEEE14const_iteratorppEv' => 1,
                                                    '_ZN4swoc6_1_3_514IntrusiveDListINS0_16IntrusiveLinkageINS0_6Errata10AnnotationEXadL_ZNS4_5_nextEEEXadL_ZNS4_5_prevEEEEEE3endEv' => 1,
                                                    '_ZN4swoc6_1_3_514IntrusiveDListINS0_16IntrusiveLinkageINS0_6Errata10AnnotationEXadL_ZNS4_5_nextEEEXadL_ZNS4_5_prevEEEEEE5beginEv' => 1,
                                                    '_ZN4swoc6_1_3_514IntrusiveDListINS0_16IntrusiveLinkageINS0_6Errata10AnnotationEXadL_ZNS4_5_nextEEEXadL_ZNS4_5_prevEEEEEE6appendEPS4_' => 1,
                                                    '_ZN4swoc6_1_3_514IntrusiveDListINS0_16IntrusiveLinkageINS0_6Errata10AnnotationEXadL_ZNS4_5_nextEEEXadL_ZNS4_5_prevEEEEEE8iteratorC1EPS6_PS4_' => 1,
                                                    '_ZN4swoc6_1_3_514IntrusiveDListINS0_16IntrusiveLinkageINS0_6Errata10AnnotationEXadL_ZNS4_5_nextEEEXadL_ZNS4_5_prevEEEEEE8iteratorC2EPS6_PS4_' => 1,
                                                    '_ZN4swoc6_1_3_514IntrusiveDListINS0_8MemArena5Block7LinkageEE14const_iteratorC1EPKS5_PKS3_' => 1,
                                                    '_ZN4swoc6_1_3_514IntrusiveDListINS0_8MemArena5Block7LinkageEE14const_iteratorC2EPKS5_PKS3_' => 1,
                                                    '_ZN4swoc6_1_3_514IntrusiveDListINS0_8MemArena5Block7LinkageEE14const_iteratorppEv' => 1,
                                                    '_ZN4swoc6_1_3_514IntrusiveDListINS0_8MemArena5Block7LinkageEE3endEv' => 1,
                                                    '_ZN4swoc6_1_3_514IntrusiveDListINS0_8MemArena5Block7LinkageEE4headEv' => 1,
                                                    '_ZN4swoc6_1_3_514IntrusiveDListINS0_8MemArena5Block7LinkageEE4tailEv' => 1,
                                                    '_ZN4swoc6_1_3_514IntrusiveDListINS0_8MemArena5Block7LinkageEE5beginEv' => 1,
                                                    '_ZN4swoc6_1_3_514IntrusiveDListINS0_8MemArena5Block7LinkageEE5clearEv' => 1,
                                                    '_ZN4swoc6_1_3_514IntrusiveDListINS0_8MemArena5Block7LinkageEE5eraseEPS3_' => 1,
                                                    '_ZN4swoc6_1_3_514IntrusiveDListINS0_8MemArena5Block7LinkageEE6appendEPS3_' => 1,
                                                    '_ZN4swoc6_1_3_514IntrusiveDListINS0_8MemArena5Block7LinkageEE7prependEPS3_' => 1,
                                                    '_ZN4swoc6_1_3_514IntrusiveDListINS0_8MemArena5Block7LinkageEE8iteratorC1EPS5_PS3_' => 1,
                                                    '_ZN4swoc6_1_3_514IntrusiveDListINS0_8MemArena5Block7LinkageEE8iteratorC2EPS5_PS3_' => 1,
                                                    '_ZN4swoc6_1_3_514IntrusiveDListINS0_8MemArena5Block7LinkageEE8iteratorppEi' => 1,
                                                    '_ZN4swoc6_1_3_514IntrusiveDListINS0_8MemArena5Block7LinkageEE8iteratorppEv' => 1,
                                                    '_ZN4swoc6_1_3_514IntrusiveDListINS0_8MemArena5Block7LinkageEEC1EOS5_' => 1,
                                                    '_ZN4swoc6_1_3_514IntrusiveDListINS0_8MemArena5Block7LinkageEEC2EOS5_' => 1,
                                                    '_ZN4swoc6_1_3_514IntrusiveDListINS0_8MemArena5Block7LinkageEEaSEOS5_' => 1,
                                                    '_ZN4swoc6_1_3_514Severity_NamesE' => -64,
                                                    '_ZN4swoc6_1_3_514pseudo_nullptrE' => -8,
                                                    '_ZN4swoc6_1_3_516IntrusiveLinkageINS0_6Errata10AnnotationEXadL_ZNS3_5_nextEEEXadL_ZNS3_5_prevEEEE8next_ptrEPS3_' => 1,
                                                    '_ZN4swoc6_1_3_516IntrusiveLinkageINS0_6Errata10AnnotationEXadL_ZNS3_5_nextEEEXadL_ZNS3_5_prevEEEE8prev_ptrEPS3_' => 1,
                                                    '_ZN4swoc6_1_3_517FixedBufferWriter4copyEmmm' => 1,
                                                    '_ZN4swoc6_1_3_517FixedBufferWriter5writeEPKvm' => 1,
                                                    '_ZN4swoc6_1_3_517FixedBufferWriter5writeEc' => 1,
                                                    '_ZN4swoc6_1_3_517FixedBufferWriter6commitEm' => 1,
                                                    '_ZN4swoc6_1_3_517FixedBufferWriter7discardEm' => 1,
                                                    '_ZN4swoc6_1_3_517FixedBufferWriter7print_vIJRKNS0_6ErrataEEEERS1_NS0_8TextViewERKSt5tupleIJDpT_EE' => 1,
                                                    '_ZN4swoc6_1_3_517FixedBufferWriter7print_vIJRKSt10error_codeEEERS1_NS0_8TextViewERKSt5tupleIJDpT_EE' => 1,
                                                    '_ZN4swoc6_1_3_517FixedBufferWriter7restoreEm' => 1,
                                                    '_ZN4swoc6_1_3_517FixedBufferWriter8aux_dataEv' => 1,
                                                    '_ZN4swoc6_1_3_517FixedBufferWriter8restrictEm' => 1,
                                                    '_ZN4swoc6_1_3_517FixedBufferWriterD0Ev' => 1,
                                                    '_ZN4swoc6_1_3_517FixedBufferWriterD1Ev' => 1,
                                                    '_ZN4swoc6_1_3_517FixedBufferWriterD2Ev' => 1,
                                                    '_ZN4swoc6_1_3_517transform_view_ofIPDoFiiESt17basic_string_viewIcSt11char_traitsIcEEEENS0_13TransformViewIT_T0_EERKS9_RKSA_' => 1,
                                                    '_ZN4swoc6_1_3_53bwf10NilBindingD0Ev' => 1,
                                                    '_ZN4swoc6_1_3_53bwf10NilBindingD1Ev' => 1,
                                                    '_ZN4swoc6_1_3_53bwf10NilBindingD2Ev' => 1,
                                                    '_ZN4swoc6_1_3_53bwf11NameBindingD0Ev' => 1,
                                                    '_ZN4swoc6_1_3_53bwf11NameBindingD1Ev' => 1,
                                                    '_ZN4swoc6_1_3_53bwf11NameBindingD2Ev' => 1,
                                                    '_ZN4swoc6_1_3_53bwf11arg_captureIRNS1_6Format15FormatExtractorEEEvOT_RNS0_12BufferWriterERKNS1_4SpecEOSt3anyNS0_4meta7CaseTagILj0EEE' => 1,
                                                    '_ZN4swoc6_1_3_53bwf11arg_captureIRNS1_6Format17TextViewExtractorEEEvOT_RNS0_12BufferWriterERKNS1_4SpecEOSt3anyNS0_4meta7CaseTagILj0EEE' => 1,
                                                    '_ZN4swoc6_1_3_53bwf12Format_FloatERNS0_12BufferWriterERKNS1_4SpecEdb' => 1,
                                                    '_ZN4swoc6_1_3_53bwf12Global_NamesE' => -168,
                                                    '_ZN4swoc6_1_3_53bwf13Arg_FormatterISt5tupleIJNS0_6Errata8SeverityEEELm0EEERNS0_12BufferWriterES8_RKNS1_4SpecERKT_' => 1,
                                                    '_ZN4swoc6_1_3_53bwf13Arg_FormatterISt5tupleIJRKNS0_6ErrataEEELm0EEERNS0_12BufferWriterES9_RKNS1_4SpecERKT_' => 1,
                                                    '_ZN4swoc6_1_3_53bwf13Arg_FormatterISt5tupleIJRKSt10error_codeEELm0EEERNS0_12BufferWriterES9_RKNS1_4SpecERKT_' => 1,
                                                    '_ZN4swoc6_1_3_53bwf13Arg_FormatterISt5tupleIJRKSt17basic_string_viewIcSt11char_traitsIcEEEELm0EEERNS0_12BufferWriterESC_RKNS1_4SpecERKT_' => 1,
                                                    '_ZN4swoc6_1_3_53bwf13Arg_FormatterISt5tupleIJRKiEELm0EEERNS0_12BufferWriterES8_RKNS1_4SpecERKT_' => 1,
                                                    '_ZN4swoc6_1_3_53bwf13Arg_FormatterISt5tupleIJRKtEELm0EEERNS0_12BufferWriterES8_RKNS1_4SpecERKT_' => 1,
                                                    '_ZN4swoc6_1_3_53bwf13Arg_FormatterISt5tupleIJRNS0_6Errata8SeverityEEELm0EEERNS0_12BufferWriterES9_RKNS1_4SpecERKT_' => 1,
                                                    '_ZN4swoc6_1_3_53bwf13Arg_FormatterISt5tupleIJRNS1_7PatternERNS1_7SubTextIJNS0_6Errata8SeverityEEEERNS0_8TextViewEEELm0EEERNS0_12BufferWriterESF_RKNS1_4SpecERKT_' => 1,
                                                    '_ZN4swoc6_1_3_53bwf13Arg_FormatterISt5tupleIJRNS1_7PatternERNS1_7SubTextIJNS0_6Errata8SeverityEEEERNS0_8TextViewEEELm1EEERNS0_12BufferWriterESF_RKNS1_4SpecERKT_' => 1,
                                                    '_ZN4swoc6_1_3_53bwf13Arg_FormatterISt5tupleIJRNS1_7PatternERNS1_7SubTextIJNS0_6Errata8SeverityEEEERNS0_8TextViewEEELm2EEERNS0_12BufferWriterESF_RKNS1_4SpecERKT_' => 1,
                                                    '_ZN4swoc6_1_3_53bwf13Arg_FormatterISt5tupleIJRiEELm0EEERNS0_12BufferWriterES7_RKNS1_4SpecERKT_' => 1,
                                                    '_ZN4swoc6_1_3_53bwf13Arg_FormatterISt5tupleIJRiRmEELm0EEERNS0_12BufferWriterES8_RKNS1_4SpecERKT_' => 1,
                                                    '_ZN4swoc6_1_3_53bwf13Arg_FormatterISt5tupleIJRiRmEELm1EEERNS0_12BufferWriterES8_RKNS1_4SpecERKT_' => 1,
                                                    '_ZN4swoc6_1_3_53bwf13Arg_FormatterISt5tupleIJRmRPvEELm0EEERNS0_12BufferWriterES9_RKNS1_4SpecERKT_' => 1,
                                                    '_ZN4swoc6_1_3_53bwf13Arg_FormatterISt5tupleIJRmRPvEELm1EEERNS0_12BufferWriterES9_RKNS1_4SpecERKT_' => 1,
                                                    '_ZN4swoc6_1_3_53bwf13Arg_FormatterISt5tupleIJRtEELm0EEERNS0_12BufferWriterES7_RKNS1_4SpecERKT_' => 1,
                                                    '_ZN4swoc6_1_3_53bwf13ExternalNamesD0Ev' => 1,
                                                    '_ZN4swoc6_1_3_53bwf13ExternalNamesD1Ev' => 1,
                                                    '_ZN4swoc6_1_3_53bwf13ExternalNamesD2Ev' => 1,
                                                    '_ZN4swoc6_1_3_53bwf13Format_As_HexERNS0_12BufferWriterESt17basic_string_viewIcSt11char_traitsIcEEPKc' => 1,
                                                    '_ZN4swoc6_1_3_53bwf13TupleAccessorILm0ESt5tupleIJNS0_6Errata8SeverityEEEEESt3anyRKT0_' => 1,
                                                    '_ZN4swoc6_1_3_53bwf13TupleAccessorILm0ESt5tupleIJRKNS0_6ErrataEEEEESt3anyRKT0_' => 1,
                                                    '_ZN4swoc6_1_3_53bwf13TupleAccessorILm0ESt5tupleIJRKSt10error_codeEEEESt3anyRKT0_' => 1,
                                                    '_ZN4swoc6_1_3_53bwf13TupleAccessorILm0ESt5tupleIJRKSt17basic_string_viewIcSt11char_traitsIcEEEEEESt3anyRKT0_' => 1,
                                                    '_ZN4swoc6_1_3_53bwf13TupleAccessorILm0ESt5tupleIJRKiEEEESt3anyRKT0_' => 1,
                                                    '_ZN4swoc6_1_3_53bwf13TupleAccessorILm0ESt5tupleIJRKtEEEESt3anyRKT0_' => 1,
                                                    '_ZN4swoc6_1_3_53bwf13TupleAccessorILm0ESt5tupleIJRNS0_6Errata8SeverityEEEEESt3anyRKT0_' => 1,
                                                    '_ZN4swoc6_1_3_53bwf13TupleAccessorILm0ESt5tupleIJRNS1_7PatternERNS1_7SubTextIJNS0_6Errata8SeverityEEEERNS0_8TextViewEEEEESt3anyRKT0_' => 1,
                                                    '_ZN4swoc6_1_3_53bwf13TupleAccessorILm0ESt5tupleIJRiEEEESt3anyRKT0_' => 1,
                                                    '_ZN4swoc6_1_3_53bwf13TupleAccessorILm0ESt5tupleIJRiRmEEEESt3anyRKT0_' => 1,
                                                    '_ZN4swoc6_1_3_53bwf13TupleAccessorILm0ESt5tupleIJRmRPvEEEESt3anyRKT0_' => 1,
                                                    '_ZN4swoc6_1_3_53bwf13TupleAccessorILm0ESt5tupleIJRtEEEESt3anyRKT0_' => 1,
                                                    '_ZN4swoc6_1_3_53bwf13TupleAccessorILm1ESt5tupleIJRNS1_7PatternERNS1_7SubTextIJNS0_6Errata8SeverityEEEERNS0_8TextViewEEEEESt3anyRKT0_' => 1,
                                                    '_ZN4swoc6_1_3_53bwf13TupleAccessorILm1ESt5tupleIJRiRmEEEESt3anyRKT0_' => 1,
                                                    '_ZN4swoc6_1_3_53bwf13TupleAccessorILm1ESt5tupleIJRmRPvEEEESt3anyRKT0_' => 1,
                                                    '_ZN4swoc6_1_3_53bwf13TupleAccessorILm2ESt5tupleIJRNS1_7PatternERNS1_7SubTextIJNS0_6Errata8SeverityEEEERNS0_8TextViewEEEEESt3anyRKT0_' => 1,
                                                    '_ZN4swoc6_1_3_53bwf14Format_IntegerERNS0_12BufferWriterERKNS1_4SpecEmb' => 1,
                                                    '_ZN4swoc6_1_3_53bwf16Adjust_AlignmentERNS0_12BufferWriterERKNS1_4SpecE' => 1,
                                                    '_ZN4swoc6_1_3_53bwf17Err_Bad_Arg_IndexERNS0_12BufferWriterEim' => 1,
                                                    '_ZN4swoc6_1_3_53bwf20Tuple_Accessor_ArrayISt5tupleIJNS0_6Errata8SeverityEEEJLm0EEEERSt5arrayIPFSt3anyRKT_EXsZT0_EESt16integer_sequenceImJXspT0_EEE' => 1,
                                                    '_ZN4swoc6_1_3_53bwf20Tuple_Accessor_ArrayISt5tupleIJRKNS0_6ErrataEEEJLm0EEEERSt5arrayIPFSt3anyRKT_EXsZT0_EESt16integer_sequenceImJXspT0_EEE' => 1,
                                                    '_ZN4swoc6_1_3_53bwf20Tuple_Accessor_ArrayISt5tupleIJRKSt10error_codeEEJLm0EEEERSt5arrayIPFSt3anyRKT_EXsZT0_EESt16integer_sequenceImJXspT0_EEE' => 1,
                                                    '_ZN4swoc6_1_3_53bwf20Tuple_Accessor_ArrayISt5tupleIJRKSt17basic_string_viewIcSt11char_traitsIcEEEEJLm0EEEERSt5arrayIPFSt3anyRKT_EXsZT0_EESt16integer_sequenceImJXspT0_EEE' => 1,
                                                    '_ZN4swoc6_1_3_53bwf20Tuple_Accessor_ArrayISt5tupleIJRKiEEJLm0EEEERSt5arrayIPFSt3anyRKT_EXsZT0_EESt16integer_sequenceImJXspT0_EEE' => 1,
                                                    '_ZN4swoc6_1_3_53bwf20Tuple_Accessor_ArrayISt5tupleIJRKtEEJLm0EEEERSt5arrayIPFSt3anyRKT_EXsZT0_EESt16integer_sequenceImJXspT0_EEE' => 1,
                                                    '_ZN4swoc6_1_3_53bwf20Tuple_Accessor_ArrayISt5tupleIJRNS0_6Errata8SeverityEEEJLm0EEEERSt5arrayIPFSt3anyRKT_EXsZT0_EESt16integer_sequenceImJXspT0_EEE' => 1,
                                                    '_ZN4swoc6_1_3_53bwf20Tuple_Accessor_ArrayISt5tupleIJRNS1_7PatternERNS1_7SubTextIJNS0_6Errata8SeverityEEEERNS0_8TextViewEEEJLm0ELm1ELm2EEEERSt5arrayIPFSt3anyRKT_EXsZT0_EESt16integer_sequenceImJXspT0_EEE' => 1,
                                                    '_ZN4swoc6_1_3_53bwf20Tuple_Accessor_ArrayISt5tupleIJRiEEJLm0EEEERSt5arrayIPFSt3anyRKT_EXsZT0_EESt16integer_sequenceImJXspT0_EEE' => 1,
                                                    '_ZN4swoc6_1_3_53bwf20Tuple_Accessor_ArrayISt5tupleIJRiRmEEJLm0ELm1EEEERSt5arrayIPFSt3anyRKT_EXsZT0_EESt16integer_sequenceImJXspT0_EEE' => 1,
                                                    '_ZN4swoc6_1_3_53bwf20Tuple_Accessor_ArrayISt5tupleIJRmRPvEEJLm0ELm1EEEERSt5arrayIPFSt3anyRKT_EXsZT0_EESt16integer_sequenceImJXspT0_EEE' => 1,
                                                    '_ZN4swoc6_1_3_53bwf20Tuple_Accessor_ArrayISt5tupleIJRtEEJLm0EEEERSt5arrayIPFSt3anyRKT_EXsZT0_EESt16integer_sequenceImJXspT0_EEE' => 1,
                                                    '_ZN4swoc6_1_3_53bwf23Get_Arg_Formatter_ArrayISt5tupleIJNS0_6Errata8SeverityEEEJLm0EEEEPPFRNS0_12BufferWriterES8_RKNS1_4SpecERKT_ESt16integer_sequenceImJXspT0_EEE' => 1,
                                                    '_ZN4swoc6_1_3_53bwf23Get_Arg_Formatter_ArrayISt5tupleIJRKNS0_6ErrataEEEJLm0EEEEPPFRNS0_12BufferWriterES9_RKNS1_4SpecERKT_ESt16integer_sequenceImJXspT0_EEE' => 1,
                                                    '_ZN4swoc6_1_3_53bwf23Get_Arg_Formatter_ArrayISt5tupleIJRKSt10error_codeEEJLm0EEEEPPFRNS0_12BufferWriterES9_RKNS1_4SpecERKT_ESt16integer_sequenceImJXspT0_EEE' => 1,
                                                    '_ZN4swoc6_1_3_53bwf23Get_Arg_Formatter_ArrayISt5tupleIJRKSt17basic_string_viewIcSt11char_traitsIcEEEEJLm0EEEEPPFRNS0_12BufferWriterESC_RKNS1_4SpecERKT_ESt16integer_sequenceImJXspT0_EEE' => 1,
                                                    '_ZN4swoc6_1_3_53bwf23Get_Arg_Formatter_ArrayISt5tupleIJRKiEEJLm0EEEEPPFRNS0_12BufferWriterES8_RKNS1_4SpecERKT_ESt16integer_sequenceImJXspT0_EEE' => 1,
                                                    '_ZN4swoc6_1_3_53bwf23Get_Arg_Formatter_ArrayISt5tupleIJRKtEEJLm0EEEEPPFRNS0_12BufferWriterES8_RKNS1_4SpecERKT_ESt16integer_sequenceImJXspT0_EEE' => 1,
                                                    '_ZN4swoc6_1_3_53bwf23Get_Arg_Formatter_ArrayISt5tupleIJRNS0_6Errata8SeverityEEEJLm0EEEEPPFRNS0_12BufferWriterES9_RKNS1_4SpecERKT_ESt16integer_sequenceImJXspT0_EEE' => 1,
                                                    '_ZN4swoc6_1_3_53bwf23Get_Arg_Formatter_ArrayISt5tupleIJRNS1_7PatternERNS1_7SubTextIJNS0_6Errata8SeverityEEEERNS0_8TextViewEEEJLm0ELm1ELm2EEEEPPFRNS0_12BufferWriterESF_RKNS1_4SpecERKT_ESt16integer_sequenceImJXspT0_EEE' => 1,
                                                    '_ZN4swoc6_1_3_53bwf23Get_Arg_Formatter_ArrayISt5tupleIJRiEEJLm0EEEEPPFRNS0_12BufferWriterES7_RKNS1_4SpecERKT_ESt16integer_sequenceImJXspT0_EEE' => 1,
                                                    '_ZN4swoc6_1_3_53bwf23Get_Arg_Formatter_ArrayISt5tupleIJRiRmEEJLm0ELm1EEEEPPFRNS0_12BufferWriterES8_RKNS1_4SpecERKT_ESt16integer_sequenceImJXspT0_EEE' => 1,
                                                    '_ZN4swoc6_1_3_53bwf23Get_Arg_Formatter_ArrayISt5tupleIJRmRPvEEJLm0ELm1EEEEPPFRNS0_12BufferWriterES9_RKNS1_4SpecERKT_ESt16integer_sequenceImJXspT0_EEE' => 1,
                                                    '_ZN4swoc6_1_3_53bwf23Get_Arg_Formatter_ArrayISt5tupleIJRtEEJLm0EEEEPPFRNS0_12BufferWriterES7_RKNS1_4SpecERKT_ESt16integer_sequenceImJXspT0_EEE' => 1,
                                                    '_ZN4swoc6_1_3_53bwf2IfIJNS0_6Errata8SeverityEEEENS1_7SubTextIJDpT_EEEbRKNS0_8TextViewEDpOS6_' => 1,
                                                    '_ZN4swoc6_1_3_53bwf4DateC1ESt17basic_string_viewIcSt11char_traitsIcEE' => 1,
                                                    '_ZN4swoc6_1_3_53bwf4DateC2ESt17basic_string_viewIcSt11char_traitsIcEE' => 1,
                                                    '_ZN4swoc6_1_3_53bwf4Spec5_propE' => -256,
                                                    '_ZN4swoc6_1_3_53bwf4Spec5parseENS0_8TextViewE' => 1,
                                                    '_ZN4swoc6_1_3_53bwf4Spec7DEFAULTE' => -56,
                                                    '_ZN4swoc6_1_3_53bwf4Spec8PropertyC1Ev' => 1,
                                                    '_ZN4swoc6_1_3_53bwf4Spec8PropertyC2Ev' => 1,
                                                    '_ZN4swoc6_1_3_53bwf4SpecC1ERKNS0_8TextViewE' => 1,
                                                    '_ZN4swoc6_1_3_53bwf4SpecC2ERKNS0_8TextViewE' => 1,
                                                    '_ZN4swoc6_1_3_53bwf6Format15FormatExtractorclERSt17basic_string_viewIcSt11char_traitsIcEERNS1_4SpecE' => 1,
                                                    '_ZN4swoc6_1_3_53bwf6Format17TextViewExtractor5parseERNS0_8TextViewERSt17basic_string_viewIcSt11char_traitsIcEESA_' => 1,
                                                    '_ZN4swoc6_1_3_53bwf6Format17TextViewExtractorclERSt17basic_string_viewIcSt11char_traitsIcEERNS1_4SpecE' => 1,
                                                    '_ZN4swoc6_1_3_53bwf6FormatC1ENS0_8TextViewE' => 1,
                                                    '_ZN4swoc6_1_3_53bwf6FormatC2ENS0_8TextViewE' => 1,
                                                    '_ZN4swoc6_1_3_53bwf6FormatD1Ev' => 1,
                                                    '_ZN4swoc6_1_3_53bwf6FormatD2Ev' => 1,
                                                    '_ZN4swoc6_1_3_53bwf7NameMapIFRNS0_12BufferWriterES4_RKNS1_4SpecEEEC1Ev' => 1,
                                                    '_ZN4swoc6_1_3_53bwf7NameMapIFRNS0_12BufferWriterES4_RKNS1_4SpecEEEC2Ev' => 1,
                                                    '_ZN4swoc6_1_3_53bwf8ArgTupleIJNS0_6Errata8SeverityEEED0Ev' => 1,
                                                    '_ZN4swoc6_1_3_53bwf8ArgTupleIJNS0_6Errata8SeverityEEED1Ev' => 1,
                                                    '_ZN4swoc6_1_3_53bwf8ArgTupleIJNS0_6Errata8SeverityEEED2Ev' => 1,
                                                    '_ZN4swoc6_1_3_53bwf8ArgTupleIJRKNS0_6ErrataEEED0Ev' => 1,
                                                    '_ZN4swoc6_1_3_53bwf8ArgTupleIJRKNS0_6ErrataEEED1Ev' => 1,
                                                    '_ZN4swoc6_1_3_53bwf8ArgTupleIJRKNS0_6ErrataEEED2Ev' => 1,
                                                    '_ZN4swoc6_1_3_53bwf8ArgTupleIJRKSt10error_codeEED0Ev' => 1,
                                                    '_ZN4swoc6_1_3_53bwf8ArgTupleIJRKSt10error_codeEED1Ev' => 1,
                                                    '_ZN4swoc6_1_3_53bwf8ArgTupleIJRKSt10error_codeEED2Ev' => 1,
                                                    '_ZN4swoc6_1_3_53bwf8ArgTupleIJRKSt17basic_string_viewIcSt11char_traitsIcEEEED0Ev' => 1,
                                                    '_ZN4swoc6_1_3_53bwf8ArgTupleIJRKSt17basic_string_viewIcSt11char_traitsIcEEEED1Ev' => 1,
                                                    '_ZN4swoc6_1_3_53bwf8ArgTupleIJRKSt17basic_string_viewIcSt11char_traitsIcEEEED2Ev' => 1,
                                                    '_ZN4swoc6_1_3_53bwf8ArgTupleIJRKiEED0Ev' => 1,
                                                    '_ZN4swoc6_1_3_53bwf8ArgTupleIJRKiEED1Ev' => 1,
                                                    '_ZN4swoc6_1_3_53bwf8ArgTupleIJRKiEED2Ev' => 1,
                                                    '_ZN4swoc6_1_3_53bwf8ArgTupleIJRKtEED0Ev' => 1,
                                                    '_ZN4swoc6_1_3_53bwf8ArgTupleIJRKtEED1Ev' => 1,
                                                    '_ZN4swoc6_1_3_53bwf8ArgTupleIJRKtEED2Ev' => 1,
                                                    '_ZN4swoc6_1_3_53bwf8ArgTupleIJRNS0_6Errata8SeverityEEED0Ev' => 1,
                                                    '_ZN4swoc6_1_3_53bwf8ArgTupleIJRNS0_6Errata8SeverityEEED1Ev' => 1,
                                                    '_ZN4swoc6_1_3_53bwf8ArgTupleIJRNS0_6Errata8SeverityEEED2Ev' => 1,
                                                    '_ZN4swoc6_1_3_53bwf8ArgTupleIJRNS1_7PatternERNS1_7SubTextIJNS0_6Errata8SeverityEEEERNS0_8TextViewEEED0Ev' => 1,
                                                    '_ZN4swoc6_1_3_53bwf8ArgTupleIJRNS1_7PatternERNS1_7SubTextIJNS0_6Errata8SeverityEEEERNS0_8TextViewEEED1Ev' => 1,
                                                    '_ZN4swoc6_1_3_53bwf8ArgTupleIJRNS1_7PatternERNS1_7SubTextIJNS0_6Errata8SeverityEEEERNS0_8TextViewEEED2Ev' => 1,
                                                    '_ZN4swoc6_1_3_53bwf8ArgTupleIJRiEED0Ev' => 1,
                                                    '_ZN4swoc6_1_3_53bwf8ArgTupleIJRiEED1Ev' => 1,
                                                    '_ZN4swoc6_1_3_53bwf8ArgTupleIJRiEED2Ev' => 1,
                                                    '_ZN4swoc6_1_3_53bwf8ArgTupleIJRiRmEED0Ev' => 1,
                                                    '_ZN4swoc6_1_3_53bwf8ArgTupleIJRiRmEED1Ev' => 1,
                                                    '_ZN4swoc6_1_3_53bwf8ArgTupleIJRiRmEED2Ev' => 1,
                                                    '_ZN4swoc6_1_3_53bwf8ArgTupleIJRmRPvEED0Ev' => 1,
                                                    '_ZN4swoc6_1_3_53bwf8ArgTupleIJRmRPvEED1Ev' => 1,
                                                    '_ZN4swoc6_1_3_53bwf8ArgTupleIJRmRPvEED2Ev' => 1,
                                                    '_ZN4swoc6_1_3_53bwf8ArgTupleIJRtEED0Ev' => 1,
                                                    '_ZN4swoc6_1_3_53bwf8ArgTupleIJRtEED1Ev' => 1,
                                                    '_ZN4swoc6_1_3_53bwf8ArgTupleIJRtEED2Ev' => 1,
                                                    '_ZN4swoc6_1_3_53bwf8To_RadixILm10EEEmmPcmS3_' => 1,
                                                    '_ZN4swoc6_1_3_53bwf8To_RadixILm16EEEmmPcmS3_' => 1,
                                                    '_ZN4swoc6_1_3_53bwf8To_RadixILm2EEEmmPcmS3_' => 1,
                                                    '_ZN4swoc6_1_3_53bwf8To_RadixILm8EEEmmPcmS3_' => 1,
                                                    '_ZN4swoc6_1_3_53bwf9Tuple_NthISt5tupleIJNS0_6Errata8SeverityEEEEESt3anyRKT_m' => 1,
                                                    '_ZN4swoc6_1_3_53bwf9Tuple_NthISt5tupleIJRKNS0_6ErrataEEEEESt3anyRKT_m' => 1,
                                                    '_ZN4swoc6_1_3_53bwf9Tuple_NthISt5tupleIJRKSt10error_codeEEEESt3anyRKT_m' => 1,
                                                    '_ZN4swoc6_1_3_53bwf9Tuple_NthISt5tupleIJRKSt17basic_string_viewIcSt11char_traitsIcEEEEEESt3anyRKT_m' => 1,
                                                    '_ZN4swoc6_1_3_53bwf9Tuple_NthISt5tupleIJRKiEEEESt3anyRKT_m' => 1,
                                                    '_ZN4swoc6_1_3_53bwf9Tuple_NthISt5tupleIJRKtEEEESt3anyRKT_m' => 1,
                                                    '_ZN4swoc6_1_3_53bwf9Tuple_NthISt5tupleIJRNS0_6Errata8SeverityEEEEESt3anyRKT_m' => 1,
                                                    '_ZN4swoc6_1_3_53bwf9Tuple_NthISt5tupleIJRNS1_7PatternERNS1_7SubTextIJNS0_6Errata8SeverityEEEERNS0_8TextViewEEEEESt3anyRKT_m' => 1,
                                                    '_ZN4swoc6_1_3_53bwf9Tuple_NthISt5tupleIJRiEEEESt3anyRKT_m' => 1,
                                                    '_ZN4swoc6_1_3_53bwf9Tuple_NthISt5tupleIJRiRmEEEESt3anyRKT_m' => 1,
                                                    '_ZN4swoc6_1_3_53bwf9Tuple_NthISt5tupleIJRmRPvEEEESt3anyRKT_m' => 1,
                                                    '_ZN4swoc6_1_3_53bwf9Tuple_NthISt5tupleIJRtEEEESt3anyRKT_m' => 1,
                                                    '_ZN4swoc6_1_3_54file11access_timeERKNS1_11file_statusE' => 1,
                                                    '_ZN4swoc6_1_3_54file11is_readableERKNS1_4pathE' => 1,
                                                    '_ZN4swoc6_1_3_54file11modify_timeERKNS1_11file_statusE' => 1,
                                                    '_ZN4swoc6_1_3_54file11status_timeERKNS1_11file_statusE' => 1,
                                                    '_ZN4swoc6_1_3_54file14is_char_deviceERKNS1_11file_statusE' => 1,
                                                    '_ZN4swoc6_1_3_54file15is_block_deviceERKNS1_11file_statusE' => 1,
                                                    '_ZN4swoc6_1_3_54file15is_regular_fileERKNS1_11file_statusE' => 1,
                                                    '_ZN4swoc6_1_3_54file4loadB5cxx11ERKNS1_4pathERSt10error_code' => 1,
                                                    '_ZN4swoc6_1_3_54file4pathdVESt17basic_string_viewIcSt11char_traitsIcEE' => 1,
                                                    '_ZN4swoc6_1_3_54file6is_dirERKNS1_11file_statusE' => 1,
                                                    '_ZN4swoc6_1_3_54file6statusERKNS1_4pathERSt10error_code' => 1,
                                                    '_ZN4swoc6_1_3_54file8absoluteERKNS1_4pathERSt10error_code' => 1,
                                                    '_ZN4swoc6_1_3_54file9file_sizeERKNS1_11file_statusE' => 1,
                                                    '_ZN4swoc6_1_3_54file9file_typeERKNS1_11file_statusE' => 1,
                                                    '_ZN4swoc6_1_3_55IPNet4loadENS0_8TextViewE' => 1,
                                                    '_ZN4swoc6_1_3_55svtodENS0_8TextViewEPS1_' => 1,
                                                    '_ZN4swoc6_1_3_55svtoiENS0_8TextViewEPS1_i' => 1,
                                                    '_ZN4swoc6_1_3_55svtouENS0_8TextViewEPS1_i' => 1,
                                                    '_ZN4swoc6_1_3_56Errata11SinkWrapperD0Ev' => 1,
                                                    '_ZN4swoc6_1_3_56Errata11SinkWrapperD1Ev' => 1,
                                                    '_ZN4swoc6_1_3_56Errata11SinkWrapperD2Ev' => 1,
                                                    '_ZN4swoc6_1_3_56Errata12DEFAULT_GLUEE' => -16,
                                                    '_ZN4swoc6_1_3_56Errata13register_sinkERKSt10shared_ptrINS1_4SinkEE' => 1,
                                                    '_ZN4swoc6_1_3_56Errata14SEVERITY_NAMESE' => -16,
                                                    '_ZN4swoc6_1_3_56Errata14note_localizedERKSt17basic_string_viewIcSt11char_traitsIcEESt8optionalINS1_8SeverityEE' => 1,
                                                    '_ZN4swoc6_1_3_56Errata15FILTER_SEVERITYE' => -1,
                                                    '_ZN4swoc6_1_3_56Errata16DEFAULT_SEVERITYE' => -1,
                                                    '_ZN4swoc6_1_3_56Errata16FAILURE_SEVERITYE' => -1,
                                                    '_ZN4swoc6_1_3_56Errata4Data8localizeESt17basic_string_viewIcSt11char_traitsIcEE' => 1,
                                                    '_ZN4swoc6_1_3_56Errata4dataEv' => 1,
                                                    '_ZN4swoc6_1_3_56Errata4noteERKS1_' => 1,
                                                    '_ZN4swoc6_1_3_56Errata4noteERKSt10error_code' => 1,
                                                    '_ZN4swoc6_1_3_56Errata4noteERKSt10error_codeNS1_8SeverityE' => 1,
                                                    '_ZN4swoc6_1_3_56Errata4noteIJRKSt10error_codeEEERS1_NS1_8SeverityESt17basic_string_viewIcSt11char_traitsIcEEDpOT_' => 1,
                                                    '_ZN4swoc6_1_3_56Errata4noteIJRKSt10error_codeEEERS1_St17basic_string_viewIcSt11char_traitsIcEEDpOT_' => 1,
                                                    '_ZN4swoc6_1_3_56Errata4sinkEv' => 1,
                                                    '_ZN4swoc6_1_3_56Errata5allocEm' => 1,
                                                    '_ZN4swoc6_1_3_56Errata6note_sESt8optionalINS1_8SeverityEESt17basic_string_viewIcSt11char_traitsIcEE' => 1,
                                                    '_ZN4swoc6_1_3_56Errata7note_svIJRKSt10error_codeEEERS1_St8optionalINS1_8SeverityEESt17basic_string_viewIcSt11char_traitsIcEERKSt5tupleIJDpT_EE' => 1,
                                                    '_ZN4swoc6_1_3_56ErrataD1Ev' => 1,
                                                    '_ZN4swoc6_1_3_56ErrataD2Ev' => 1,
                                                    '_ZN4swoc6_1_3_56IP4Net4loadENS0_8TextViewE' => 1,
                                                    '_ZN4swoc6_1_3_56IP6Net4loadENS0_8TextViewE' => 1,
                                                    '_ZN4swoc6_1_3_56IPAddr4loadERKSt17basic_string_viewIcSt11char_traitsIcEE' => 1,
                                                    '_ZN4swoc6_1_3_56IPAddr6assignEPK8sockaddr' => 1,
                                                    '_ZN4swoc6_1_3_56IPAddr7INVALIDE' => -24,
                                                    '_ZN4swoc6_1_3_56IPAddraNERKNS0_6IPMaskE' => 1,
                                                    '_ZN4swoc6_1_3_56IPAddroRERKNS0_6IPMaskE' => 1,
                                                    '_ZN4swoc6_1_3_56IPMask13mask_for_quadEt' => 1,
                                                    '_ZN4swoc6_1_3_56IPMask4loadERKSt17basic_string_viewIcSt11char_traitsIcEE' => 1,
                                                    '_ZN4swoc6_1_3_56IPMask8mask_forERKNS0_6IPAddrE' => 1,
                                                    '_ZN4swoc6_1_3_56IPMask8mask_forERKNS0_7IP4AddrE' => 1,
                                                    '_ZN4swoc6_1_3_56IPMask8mask_forERKNS0_7IP6AddrE' => 1,
                                                    '_ZN4swoc6_1_3_56detail18is_span_compatibleIvcE5countEm' => 1,
                                                    '_ZN4swoc6_1_3_56detail6RBNode12replace_withEPS2_' => 1,
                                                    '_ZN4swoc6_1_3_56detail6RBNode15structure_fixupEv' => 1,
                                                    '_ZN4swoc6_1_3_56detail6RBNode18structure_validateEv' => 1,
                                                    '_ZN4swoc6_1_3_56detail6RBNode22rebalance_after_insertEv' => 1,
                                                    '_ZN4swoc6_1_3_56detail6RBNode22rebalance_after_removeENS2_5ColorENS2_9DirectionE' => 1,
                                                    '_ZN4swoc6_1_3_56detail6RBNode22ripple_structure_fixupEv' => 1,
                                                    '_ZN4swoc6_1_3_56detail6RBNode6removeEv' => 1,
                                                    '_ZN4swoc6_1_3_56detail6RBNode6rotateENS2_9DirectionE' => 1,
                                                    '_ZN4swoc6_1_3_56detail6RBNode8validateEv' => 1,
                                                    '_ZN4swoc6_1_3_56detail6RBNode9set_childEPS2_NS2_9DirectionE' => 1,
                                                    '_ZN4swoc6_1_3_56detail6RBNodeD0Ev' => 1,
                                                    '_ZN4swoc6_1_3_56detail6RBNodeD1Ev' => 1,
                                                    '_ZN4swoc6_1_3_56detail6RBNodeD2Ev' => 1,
                                                    '_ZN4swoc6_1_3_57IP4Addr3MAXE' => -4,
                                                    '_ZN4swoc6_1_3_57IP4Addr3MINE' => -4,
                                                    '_ZN4swoc6_1_3_57IP4Addr4loadERKSt17basic_string_viewIcSt11char_traitsIcEE' => 1,
                                                    '_ZN4swoc6_1_3_57IP4AddrC1EPK11sockaddr_in' => 1,
                                                    '_ZN4swoc6_1_3_57IP4AddrC2EPK11sockaddr_in' => 1,
                                                    '_ZN4swoc6_1_3_57IP4AddraSEPK11sockaddr_in' => 1,
                                                    '_ZN4swoc6_1_3_57IP6Addr3MAXE' => -16,
                                                    '_ZN4swoc6_1_3_57IP6Addr3MINE' => -16,
                                                    '_ZN4swoc6_1_3_57IP6Addr4loadERKSt17basic_string_viewIcSt11char_traitsIcEE' => 1,
                                                    '_ZN4swoc6_1_3_57IP6Addr7reorderER8in6_addrRKSt5arrayIhLm16EE' => 1,
                                                    '_ZN4swoc6_1_3_57IP6Addr7reorderERSt5arrayIhLm16EERK8in6_addr' => 1,
                                                    '_ZN4swoc6_1_3_57IP6AddraNERKS1_' => 1,
                                                    '_ZN4swoc6_1_3_57IP6AddrlSEj' => 1,
                                                    '_ZN4swoc6_1_3_57IP6AddroRERKS1_' => 1,
                                                    '_ZN4swoc6_1_3_57IP6AddrrSEj' => 1,
                                                    '_ZN4swoc6_1_3_57IPRange4loadERKSt17basic_string_viewIcSt11char_traitsIcEE' => 1,
                                                    '_ZN4swoc6_1_3_57IPRangeC1ERKNS0_6IPAddrES4_' => 1,
                                                    '_ZN4swoc6_1_3_57IPRangeC2ERKNS0_6IPAddrES4_' => 1,
                                                    '_ZN4swoc6_1_3_57bwprintIJRKNS0_6ErrataEEEERNSt7__cxx1112basic_stringIcSt11char_traitsIcESaIcEEESB_NS0_8TextViewEDpOT_' => 1,
                                                    '_ZN4swoc6_1_3_58IP4Range4loadESt17basic_string_viewIcSt11char_traitsIcEE' => 1,
                                                    '_ZN4swoc6_1_3_58IP4Range6assignERKNS0_7IP4AddrERKNS0_6IPMaskE' => 1,
                                                    '_ZN4swoc6_1_3_58IP4Range9NetSource12search_widerEv' => 1,
                                                    '_ZN4swoc6_1_3_58IP4Range9NetSource15search_narrowerEv' => 1,
                                                    '_ZN4swoc6_1_3_58IP4Range9NetSourceC1ERKS1_' => 1,
                                                    '_ZN4swoc6_1_3_58IP4Range9NetSourceC2ERKS1_' => 1,
                                                    '_ZN4swoc6_1_3_58IP4Range9NetSourceppEv' => 1,
                                                    '_ZN4swoc6_1_3_58IP4RangeC1ERKNS0_7IP4AddrERKNS0_6IPMaskE' => 1,
                                                    '_ZN4swoc6_1_3_58IP4RangeC2ERKNS0_7IP4AddrERKNS0_6IPMaskE' => 1,
                                                    '_ZN4swoc6_1_3_58IP6Range4loadESt17basic_string_viewIcSt11char_traitsIcEE' => 1,
                                                    '_ZN4swoc6_1_3_58IP6Range6assignERKNS0_7IP6AddrERKNS0_6IPMaskE' => 1,
                                                    '_ZN4swoc6_1_3_58IP6Range9NetSource12search_widerEv' => 1,
                                                    '_ZN4swoc6_1_3_58IP6Range9NetSource15search_narrowerEv' => 1,
                                                    '_ZN4swoc6_1_3_58IP6Range9NetSourceC1ERKS1_' => 1,
                                                    '_ZN4swoc6_1_3_58IP6Range9NetSourceC2ERKS1_' => 1,
                                                    '_ZN4swoc6_1_3_58IP6Range9NetSourceppEv' => 1,
                                                    '_ZN4swoc6_1_3_58MemArena10make_blockEm' => 1,
                                                    '_ZN4swoc6_1_3_58MemArena11do_allocateEmm' => 1,
                                                    '_ZN4swoc6_1_3_58MemArena13do_deallocateEPvmm' => 1,
                                                    '_ZN4swoc6_1_3_58MemArena14destroy_activeEv' => 1,
                                                    '_ZN4swoc6_1_3_58MemArena14destroy_frozenEv' => 1,
                                                    '_ZN4swoc6_1_3_58MemArena24construct_self_containedEm' => 1,
                                                    '_ZN4swoc6_1_3_58MemArena4makeINS0_6Errata10AnnotationEJRKSt17basic_string_viewIcSt11char_traitsIcEERSt8optionalINS3_8SeverityEEEEEPT_DpOT0_' => 1,
                                                    '_ZN4swoc6_1_3_58MemArena4makeINS0_6Errata10AnnotationEJSt17basic_string_viewIcSt11char_traitsIcEERKSt8optionalINS3_8SeverityEEiEEEPT_DpOT0_' => 1,
                                                    '_ZN4swoc6_1_3_58MemArena4makeINS0_6Errata4DataEJS1_EEEPT_DpOT0_' => 1,
                                                    '_ZN4swoc6_1_3_58MemArena4makeIS1_JS1_EEEPT_DpOT0_' => 1,
                                                    '_ZN4swoc6_1_3_58MemArena4thawEv' => 1,
                                                    '_ZN4swoc6_1_3_58MemArena5allocEmm' => 1,
                                                    '_ZN4swoc6_1_3_58MemArena5clearEm' => 1,
                                                    '_ZN4swoc6_1_3_58MemArena6freezeEm' => 1,
                                                    '_ZN4swoc6_1_3_58MemArena7discardEm' => 1,
                                                    '_ZN4swoc6_1_3_58MemArena7requireEmm' => 1,
                                                    '_ZN4swoc6_1_3_58MemArenaC1ENS0_7MemSpanIvEE' => 1,
                                                    '_ZN4swoc6_1_3_58MemArenaC1EOS1_' => 1,
                                                    '_ZN4swoc6_1_3_58MemArenaC2ENS0_7MemSpanIvEE' => 1,
                                                    '_ZN4swoc6_1_3_58MemArenaC2EOS1_' => 1,
                                                    '_ZN4swoc6_1_3_58MemArenaD0Ev' => 1,
                                                    '_ZN4swoc6_1_3_58MemArenaD1Ev' => 1,
                                                    '_ZN4swoc6_1_3_58MemArenaD2Ev' => 1,
                                                    '_ZN4swoc6_1_3_58MemArenaaSEOS1_' => 1,
                                                    '_ZN4swoc6_1_3_58TextView7trim_ifIPDoFiiEEERS1_RKT_' => 1,
                                                    '_ZN4swoc6_1_3_58TextView8ltrim_ifIPDoFiiEEERS1_RKT_' => 1,
                                                    '_ZN4swoc6_1_3_58TextView8rtrim_ifIPDoFiiEEERS1_RKT_' => 1,
                                                    '_ZN4swoc6_1_3_58bwformatERNS0_12BufferWriterERKNS0_3bwf4SpecENS0_6Errata8SeverityE' => 1,
                                                    '_ZN4swoc6_1_3_58bwformatERNS0_12BufferWriterERKNS0_3bwf4SpecEPK8sockaddr' => 1,
                                                    '_ZN4swoc6_1_3_58bwformatERNS0_12BufferWriterERKNS0_3bwf4SpecERK8in6_addr' => 1,
                                                    '_ZN4swoc6_1_3_58bwformatERNS0_12BufferWriterERKNS0_3bwf4SpecERKNS0_4file4pathE' => 1,
                                                    '_ZN4swoc6_1_3_58bwformatERNS0_12BufferWriterERKNS0_3bwf4SpecERKNS0_5IPNetE' => 1,
                                                    '_ZN4swoc6_1_3_58bwformatERNS0_12BufferWriterERKNS0_3bwf4SpecERKNS0_6ErrataE' => 1,
                                                    '_ZN4swoc6_1_3_58bwformatERNS0_12BufferWriterERKNS0_3bwf4SpecERKNS0_6IP4NetE' => 1,
                                                    '_ZN4swoc6_1_3_58bwformatERNS0_12BufferWriterERKNS0_3bwf4SpecERKNS0_6IP6NetE' => 1,
                                                    '_ZN4swoc6_1_3_58bwformatERNS0_12BufferWriterERKNS0_3bwf4SpecERKNS0_6IPAddrE' => 1,
                                                    '_ZN4swoc6_1_3_58bwformatERNS0_12BufferWriterERKNS0_3bwf4SpecERKNS0_6IPMaskE' => 1,
                                                    '_ZN4swoc6_1_3_58bwformatERNS0_12BufferWriterERKNS0_3bwf4SpecERKNS0_7IP4AddrE' => 1,
                                                    '_ZN4swoc6_1_3_58bwformatERNS0_12BufferWriterERKNS0_3bwf4SpecERKNS0_7IP6AddrE' => 1,
                                                    '_ZN4swoc6_1_3_58bwformatERNS0_12BufferWriterERKNS0_3bwf4SpecERKNS0_7IPRangeE' => 1,
                                                    '_ZN4swoc6_1_3_58bwformatERNS0_12BufferWriterERKNS0_3bwf4SpecERKNS0_7MemSpanIvEE' => 1,
                                                    '_ZN4swoc6_1_3_58bwformatERNS0_12BufferWriterERKNS0_3bwf4SpecERKNS0_8IP4RangeE' => 1,
                                                    '_ZN4swoc6_1_3_58bwformatERNS0_12BufferWriterERKNS0_3bwf4SpecERKNS0_8IP6RangeE' => 1,
                                                    '_ZN4swoc6_1_3_58bwformatERNS0_12BufferWriterERKNS0_3bwf4SpecERKNS3_4DateE' => 1,
                                                    '_ZN4swoc6_1_3_58bwformatERNS0_12BufferWriterERKNS0_3bwf4SpecERKNS3_5ErrnoE' => 1,
                                                    '_ZN4swoc6_1_3_58bwformatERNS0_12BufferWriterERKNS0_3bwf4SpecERKNS3_7HexDumpE' => 1,
                                                    '_ZN4swoc6_1_3_58bwformatERNS0_12BufferWriterERKNS0_3bwf4SpecERKNS3_7PatternE' => 1,
                                                    '_ZN4swoc6_1_3_58bwformatERNS0_12BufferWriterERKNS0_3bwf4SpecESt17basic_string_viewIcSt11char_traitsIcEE' => 1,
                                                    '_ZN4swoc6_1_3_58bwformatIJNS0_6Errata8SeverityEEEERNS0_12BufferWriterES5_RKNS0_3bwf4SpecERKNS6_7SubTextIJDpT_EEE' => 1,
                                                    '_ZN4swoc6_1_3_58bwformatIPDoFiiESt17basic_string_viewIcSt11char_traitsIcEEEERNS0_12BufferWriterES9_RKNS0_3bwf4SpecEONS0_13TransformViewIT_T0_EE' => 1,
                                                    '_ZN4swoc6_1_3_58bwformatIRKiEENSt9enable_ifIXaasrSt9is_signedINSt16remove_referenceIT_E4typeEE5valuesrSt11is_integralIS9_E5valueERNS0_12BufferWriterEE4typeESE_RKNS0_3bwf4SpecEOS7_' => 1,
                                                    '_ZN4swoc6_1_3_58bwformatIRKlEENSt9enable_ifIXaasrSt9is_signedINSt16remove_referenceIT_E4typeEE5valuesrSt11is_integralIS9_E5valueERNS0_12BufferWriterEE4typeESE_RKNS0_3bwf4SpecEOS7_' => 1,
                                                    '_ZN4swoc6_1_3_58bwformatIRKtEENSt9enable_ifIXaasrSt11is_unsignedINSt16remove_referenceIT_E4typeEE5valuesrSt11is_integralIS9_E5valueERNS0_12BufferWriterEE4typeESE_RKNS0_3bwf4SpecEOS7_' => 1,
                                                    '_ZN4swoc6_1_3_58bwformatIRhEENSt9enable_ifIXaasrSt11is_unsignedINSt16remove_referenceIT_E4typeEE5valuesrSt11is_integralIS8_E5valueERNS0_12BufferWriterEE4typeESD_RKNS0_3bwf4SpecEOS6_' => 1,
                                                    '_ZN4swoc6_1_3_58bwformatIRiEENSt9enable_ifIXaasrSt9is_signedINSt16remove_referenceIT_E4typeEE5valuesrSt11is_integralIS8_E5valueERNS0_12BufferWriterEE4typeESD_RKNS0_3bwf4SpecEOS6_' => 1,
                                                    '_ZN4swoc6_1_3_58bwformatIRmEENSt9enable_ifIXaasrSt11is_unsignedINSt16remove_referenceIT_E4typeEE5valuesrSt11is_integralIS8_E5valueERNS0_12BufferWriterEE4typeESD_RKNS0_3bwf4SpecEOS6_' => 1,
                                                    '_ZN4swoc6_1_3_58bwformatIRtEENSt9enable_ifIXaasrSt11is_unsignedINSt16remove_referenceIT_E4typeEE5valuesrSt11is_integralIS8_E5valueERNS0_12BufferWriterEE4typeESD_RKNS0_3bwf4SpecEOS6_' => 1,
                                                    '_ZN4swoc6_1_3_58bwformatIhEENSt9enable_ifIXaasrSt11is_unsignedINSt16remove_referenceIT_E4typeEE5valuesrSt11is_integralIS7_E5valueERNS0_12BufferWriterEE4typeESC_RKNS0_3bwf4SpecEOS5_' => 1,
                                                    '_ZN4swoc6_1_3_58bwformatIiEENSt9enable_ifIXaasrSt9is_signedINSt16remove_referenceIT_E4typeEE5valuesrSt11is_integralIS7_E5valueERNS0_12BufferWriterEE4typeESC_RKNS0_3bwf4SpecEOS5_' => 1,
                                                    '_ZN4swoc6_1_3_58bwformatImEENSt9enable_ifIXaasrSt11is_unsignedINSt16remove_referenceIT_E4typeEE5valuesrSt11is_integralIS7_E5valueERNS0_12BufferWriterEE4typeESC_RKNS0_3bwf4SpecEOS5_' => 1,
                                                    '_ZN4swoc6_1_3_58bwformatItEENSt9enable_ifIXaasrSt11is_unsignedINSt16remove_referenceIT_E4typeEE5valuesrSt11is_integralIS7_E5valueERNS0_12BufferWriterEE4typeESC_RKNS0_3bwf4SpecEOS5_' => 1,
                                                    '_ZN4swoc6_1_3_59bwprint_vIJRKNS0_6ErrataEEEERNSt7__cxx1112basic_stringIcSt11char_traitsIcESaIcEEESB_NS0_8TextViewERKSt5tupleIJDpT_EE' => 1,
                                                    '_ZN4swoc6_1_3_5lsERSoRKNS0_6ErrataE' => 1,
                                                    '_ZNK4swoc6_1_3_510IPEndpoint11is_loopbackEv' => 1,
                                                    '_ZNK4swoc6_1_3_510IPEndpoint4sizeEv' => 1,
                                                    '_ZNK4swoc6_1_3_510IPEndpoint6is_anyEv' => 1,
                                                    '_ZNK4swoc6_1_3_513DiscreteRangeINS0_7IP4AddrEE12is_singletonEv' => 1,
                                                    '_ZNK4swoc6_1_3_513DiscreteRangeINS0_7IP4AddrEE3maxEv' => 1,
                                                    '_ZNK4swoc6_1_3_513DiscreteRangeINS0_7IP4AddrEE3minEv' => 1,
                                                    '_ZNK4swoc6_1_3_513DiscreteRangeINS0_7IP4AddrEE5emptyEv' => 1,
                                                    '_ZNK4swoc6_1_3_513DiscreteRangeINS0_7IP6AddrEE12is_singletonEv' => 1,
                                                    '_ZNK4swoc6_1_3_513DiscreteRangeINS0_7IP6AddrEE3maxEv' => 1,
                                                    '_ZNK4swoc6_1_3_513DiscreteRangeINS0_7IP6AddrEE3minEv' => 1,
                                                    '_ZNK4swoc6_1_3_513DiscreteRangeINS0_7IP6AddrEE5emptyEv' => 1,
                                                    '_ZNK4swoc6_1_3_513TransformViewIPDoFiiESt17basic_string_viewIcSt11char_traitsIcEEEcvbEv' => 1,
                                                    '_ZNK4swoc6_1_3_513TransformViewIPDoFiiESt17basic_string_viewIcSt11char_traitsIcEEEdeEv' => 1,
                                                    '_ZNK4swoc6_1_3_514IntrusiveDListINS0_16IntrusiveLinkageINS0_6Errata10AnnotationEXadL_ZNS4_5_nextEEEXadL_ZNS4_5_prevEEEEEE14const_iteratordeEv' => 1,
                                                    '_ZNK4swoc6_1_3_514IntrusiveDListINS0_16IntrusiveLinkageINS0_6Errata10AnnotationEXadL_ZNS4_5_nextEEEXadL_ZNS4_5_prevEEEEEE14const_iteratorneERKS7_' => 1,
                                                    '_ZNK4swoc6_1_3_514IntrusiveDListINS0_16IntrusiveLinkageINS0_6Errata10AnnotationEXadL_ZNS4_5_nextEEEXadL_ZNS4_5_prevEEEEEE5countEv' => 1,
                                                    '_ZNK4swoc6_1_3_514IntrusiveDListINS0_8MemArena5Block7LinkageEE14const_iteratordeEv' => 1,
                                                    '_ZNK4swoc6_1_3_514IntrusiveDListINS0_8MemArena5Block7LinkageEE14const_iteratoreqERKS6_' => 1,
                                                    '_ZNK4swoc6_1_3_514IntrusiveDListINS0_8MemArena5Block7LinkageEE14const_iteratorneERKS6_' => 1,
                                                    '_ZNK4swoc6_1_3_514IntrusiveDListINS0_8MemArena5Block7LinkageEE3endEv' => 1,
                                                    '_ZNK4swoc6_1_3_514IntrusiveDListINS0_8MemArena5Block7LinkageEE5beginEv' => 1,
                                                    '_ZNK4swoc6_1_3_514IntrusiveDListINS0_8MemArena5Block7LinkageEE5emptyEv' => 1,
                                                    '_ZNK4swoc6_1_3_514IntrusiveDListINS0_8MemArena5Block7LinkageEE8iteratorcvPS3_Ev' => 1,
                                                    '_ZNK4swoc6_1_3_514IntrusiveDListINS0_8MemArena5Block7LinkageEE8iteratordeEv' => 1,
                                                    '_ZNK4swoc6_1_3_514IntrusiveDListINS0_8MemArena5Block7LinkageEE8iteratorptEv' => 1,
                                                    '_ZNK4swoc6_1_3_517FixedBufferWriter4dataEv' => 1,
                                                    '_ZNK4swoc6_1_3_517FixedBufferWriter5errorEv' => 1,
                                                    '_ZNK4swoc6_1_3_517FixedBufferWriter6extentEv' => 1,
                                                    '_ZNK4swoc6_1_3_517FixedBufferWriter8capacityEv' => 1,
                                                    '_ZNK4swoc6_1_3_517FixedBufferWriterrsERSo' => 1,
                                                    '_ZNK4swoc6_1_3_53bwf10NilBindingclERNS0_12BufferWriterERKNS1_4SpecE' => 1,
                                                    '_ZNK4swoc6_1_3_53bwf13ExternalNamesclERNS0_12BufferWriterERKNS1_4SpecE' => 1,
                                                    '_ZNK4swoc6_1_3_53bwf8ArgTupleIJNS0_6Errata8SeverityEEE5countEv' => 1,
                                                    '_ZNK4swoc6_1_3_53bwf8ArgTupleIJNS0_6Errata8SeverityEEE5printERNS0_12BufferWriterERKNS1_4SpecEj' => 1,
                                                    '_ZNK4swoc6_1_3_53bwf8ArgTupleIJNS0_6Errata8SeverityEEE7captureEj' => 1,
                                                    '_ZNK4swoc6_1_3_53bwf8ArgTupleIJRKNS0_6ErrataEEE5countEv' => 1,
                                                    '_ZNK4swoc6_1_3_53bwf8ArgTupleIJRKNS0_6ErrataEEE5printERNS0_12BufferWriterERKNS1_4SpecEj' => 1,
                                                    '_ZNK4swoc6_1_3_53bwf8ArgTupleIJRKNS0_6ErrataEEE7captureEj' => 1,
                                                    '_ZNK4swoc6_1_3_53bwf8ArgTupleIJRKSt10error_codeEE5countEv' => 1,
                                                    '_ZNK4swoc6_1_3_53bwf8ArgTupleIJRKSt10error_codeEE5printERNS0_12BufferWriterERKNS1_4SpecEj' => 1,
                                                    '_ZNK4swoc6_1_3_53bwf8ArgTupleIJRKSt10error_codeEE7captureEj' => 1,
                                                    '_ZNK4swoc6_1_3_53bwf8ArgTupleIJRKSt17basic_string_viewIcSt11char_traitsIcEEEE5countEv' => 1,
                                                    '_ZNK4swoc6_1_3_53bwf8ArgTupleIJRKSt17basic_string_viewIcSt11char_traitsIcEEEE5printERNS0_12BufferWriterERKNS1_4SpecEj' => 1,
                                                    '_ZNK4swoc6_1_3_53bwf8ArgTupleIJRKSt17basic_string_viewIcSt11char_traitsIcEEEE7captureEj' => 1,
                                                    '_ZNK4swoc6_1_3_53bwf8ArgTupleIJRKiEE5countEv' => 1,
                                                    '_ZNK4swoc6_1_3_53bwf8ArgTupleIJRKiEE5printERNS0_12BufferWriterERKNS1_4SpecEj' => 1,
                                                    '_ZNK4swoc6_1_3_53bwf8ArgTupleIJRKiEE7captureEj' => 1,
                                                    '_ZNK4swoc6_1_3_53bwf8ArgTupleIJRKtEE5countEv' => 1,
                                                    '_ZNK4swoc6_1_3_53bwf8ArgTupleIJRKtEE5printERNS0_12BufferWriterERKNS1_4SpecEj' => 1,
                                                    '_ZNK4swoc6_1_3_53bwf8ArgTupleIJRKtEE7captureEj' => 1,
                                                    '_ZNK4swoc6_1_3_53bwf8ArgTupleIJRNS0_6Errata8SeverityEEE5countEv' => 1,
                                                    '_ZNK4swoc6_1_3_53bwf8ArgTupleIJRNS0_6Errata8SeverityEEE5printERNS0_12BufferWriterERKNS1_4SpecEj' => 1,
                                                    '_ZNK4swoc6_1_3_53bwf8ArgTupleIJRNS0_6Errata8SeverityEEE7captureEj' => 1,
                                                    '_ZNK4swoc6_1_3_53bwf8ArgTupleIJRNS1_7PatternERNS1_7SubTextIJNS0_6Errata8SeverityEEEERNS0_8TextViewEEE5countEv' => 1,
                                                    '_ZNK4swoc6_1_3_53bwf8ArgTupleIJRNS1_7PatternERNS1_7SubTextIJNS0_6Errata8SeverityEEEERNS0_8TextViewEEE5printERNS0_12BufferWriterERKNS1_4SpecEj' => 1,
                                                    '_ZNK4swoc6_1_3_53bwf8ArgTupleIJRNS1_7PatternERNS1_7SubTextIJNS0_6Errata8SeverityEEEERNS0_8TextViewEEE7captureEj' => 1,
                                                    '_ZNK4swoc6_1_3_53bwf8ArgTupleIJRiEE5countEv' => 1,
                                                    '_ZNK4swoc6_1_3_53bwf8ArgTupleIJRiEE5printERNS0_12BufferWriterERKNS1_4SpecEj' => 1,
                                                    '_ZNK4swoc6_1_3_53bwf8ArgTupleIJRiEE7captureEj' => 1,
                                                    '_ZNK4swoc6_1_3_53bwf8ArgTupleIJRiRmEE5countEv' => 1,
                                                    '_ZNK4swoc6_1_3_53bwf8ArgTupleIJRiRmEE5printERNS0_12BufferWriterERKNS1_4SpecEj' => 1,
                                                    '_ZNK4swoc6_1_3_53bwf8ArgTupleIJRiRmEE7captureEj' => 1,
                                                    '_ZNK4swoc6_1_3_53bwf8ArgTupleIJRmRPvEE5countEv' => 1,
                                                    '_ZNK4swoc6_1_3_53bwf8ArgTupleIJRmRPvEE5printERNS0_12BufferWriterERKNS1_4SpecEj' => 1,
                                                    '_ZNK4swoc6_1_3_53bwf8ArgTupleIJRmRPvEE7captureEj' => 1,
                                                    '_ZNK4swoc6_1_3_53bwf8ArgTupleIJRtEE5countEv' => 1,
                                                    '_ZNK4swoc6_1_3_53bwf8ArgTupleIJRtEE5printERNS0_12BufferWriterERKNS1_4SpecEj' => 1,
                                                    '_ZNK4swoc6_1_3_53bwf8ArgTupleIJRtEE7captureEj' => 1,
                                                    '_ZNK4swoc6_1_3_54file4path11parent_pathEv' => 1,
                                                    '_ZNK4swoc6_1_3_56Errata11SinkWrapperclERKS1_' => 1,
                                                    '_ZNK4swoc6_1_3_56Errata5writeERSo' => 1,
                                                    '_ZNK4swoc6_1_3_56IPAddr12is_multicastEv' => 1,
                                                    '_ZNK4swoc6_1_3_56IPAddr3cmpERKS1_' => 1,
                                                    '_ZNK4swoc6_1_3_56IPAddrltERKS1_' => 1,
                                                    '_ZNK4swoc6_1_3_56IPMask6as_ip6Ev' => 1,
                                                    '_ZNK4swoc6_1_3_56detail6RBNode20left_most_descendantEv' => 1,
                                                    '_ZNK4swoc6_1_3_56detail6RBNode8child_atENS2_9DirectionE' => 1,
                                                    '_ZNK4swoc6_1_3_57IP4Addr4fillEP11sockaddr_int' => 1,
                                                    '_ZNK4swoc6_1_3_57IP6Addr3cmpERKS1_' => 1,
                                                    '_ZNK4swoc6_1_3_57IPRange12network_maskEv' => 1,
                                                    '_ZNK4swoc6_1_3_57IPRange3maxEv' => 1,
                                                    '_ZNK4swoc6_1_3_57IPRange3minEv' => 1,
                                                    '_ZNK4swoc6_1_3_57IPRange5emptyEv' => 1,
                                                    '_ZNK4swoc6_1_3_57MemSpanIKNS0_8TextViewEE4sizeEv' => 1,
                                                    '_ZNK4swoc6_1_3_57MemSpanIKNS0_8TextViewEEixEm' => 1,
                                                    '_ZNK4swoc6_1_3_57MemSpanIcE4dataEv' => 1,
                                                    '_ZNK4swoc6_1_3_57MemSpanIcE4sizeEv' => 1,
                                                    '_ZNK4swoc6_1_3_57MemSpanIcE4viewEv' => 1,
                                                    '_ZNK4swoc6_1_3_57MemSpanIcE5beginEv' => 1,
                                                    '_ZNK4swoc6_1_3_57MemSpanIvE6rebindIcEENS1_IT_EEv' => 1,
                                                    '_ZNK4swoc6_1_3_58IP4Range12network_maskEv' => 1,
                                                    '_ZNK4swoc6_1_3_58IP6Range12network_maskEv' => 1,
                                                    '_ZNK4swoc6_1_3_58MemArena11do_is_equalERKNSt3pmr15memory_resourceE' => 1,
                                                    '_ZNK4swoc6_1_3_58MemArena8containsEPKv' => 1,
                                                    '_ZNK4swoc6_1_3_58TextView12stream_writeISoEERT_S4_RKS1_' => 1,
                                                    '_ZNKSt10_HashtableISt17basic_string_viewIcSt11char_traitsIcEESt4pairIKS3_St8functionIFRN4swoc6_1_3_512BufferWriterESA_RKNS8_3bwf4SpecEEEESaISH_ENSt8__detail10_Select1stESt8equal_toIS3_ESt4hashIS3_ENSJ_18_Mod_range_hashingENSJ_20_Default_ranged_hashENSJ_20_Prime_rehash_policyENSJ_17_Hashtable_traitsILb1ELb0ELb1EEEE19_M_find_before_nodeEmRS5_m' => 1,
                                                    '_ZNKSt10_HashtableISt17basic_string_viewIcSt11char_traitsIcEESt4pairIKS3_St8functionIFRN4swoc6_1_3_512BufferWriterESA_RKNS8_3bwf4SpecEEEESaISH_ENSt8__detail10_Select1stESt8equal_toIS3_ESt4hashIS3_ENSJ_18_Mod_range_hashingENSJ_20_Default_ranged_hashENSJ_20_Prime_rehash_policyENSJ_17_Hashtable_traitsILb1ELb0ELb1EEEE4findERS5_' => 1,
                                                    '_ZNSt10_HashtableISt17basic_string_viewIcSt11char_traitsIcEESt4pairIKS3_St8functionIFRN4swoc6_1_3_512BufferWriterESA_RKNS8_3bwf4SpecEEEESaISH_ENSt8__detail10_Select1stESt8equal_toIS3_ESt4hashIS3_ENSJ_18_Mod_range_hashingENSJ_20_Default_ranged_hashENSJ_20_Prime_rehash_policyENSJ_17_Hashtable_traitsILb1ELb0ELb1EEEE5clearEv' => 1,
                                                    '_ZNSt10_HashtableISt17basic_string_viewIcSt11char_traitsIcEESt4pairIKS3_St8functionIFRN4swoc6_1_3_512BufferWriterESA_RKNS8_3bwf4SpecEEEESaISH_ENSt8__detail10_Select1stESt8equal_toIS3_ESt4hashIS3_ENSJ_18_Mod_range_hashingENSJ_20_Default_ranged_hashENSJ_20_Prime_rehash_policyENSJ_17_Hashtable_traitsILb1ELb0ELb1EEEED1Ev' => 1,
                                                    '_ZNSt10_HashtableISt17basic_string_viewIcSt11char_traitsIcEESt4pairIKS3_St8functionIFRN4swoc6_1_3_512BufferWriterESA_RKNS8_3bwf4SpecEEEESaISH_ENSt8__detail10_Select1stESt8equal_toIS3_ESt4hashIS3_ENSJ_18_Mod_range_hashingENSJ_20_Default_ranged_hashENSJ_20_Prime_rehash_policyENSJ_17_Hashtable_traitsILb1ELb0ELb1EEEED2Ev' => 1,
                                                    '_ZNSt12_Vector_baseIN4swoc6_1_3_53bwf4SpecESaIS3_EED1Ev' => 1,
                                                    '_ZNSt12_Vector_baseIN4swoc6_1_3_53bwf4SpecESaIS3_EED2Ev' => 1,
                                                    '_ZNSt3any17_Manager_internalIPKN4swoc6_1_3_56Errata8SeverityEE9_S_manageENS_3_OpEPKS_PNS_4_ArgE' => 1,
                                                    '_ZNSt3any17_Manager_internalIPKN4swoc6_1_3_56ErrataEE9_S_manageENS_3_OpEPKS_PNS_4_ArgE' => 1,
                                                    '_ZNSt3any17_Manager_internalIPKSt10error_codeE9_S_manageENS_3_OpEPKS_PNS_4_ArgE' => 1,
                                                    '_ZNSt3any17_Manager_internalIPKSt17basic_string_viewIcSt11char_traitsIcEEE9_S_manageENS_3_OpEPKS_PNS_4_ArgE' => 1,
                                                    '_ZNSt3any17_Manager_internalIPKiE9_S_manageENS_3_OpEPKS_PNS_4_ArgE' => 1,
                                                    '_ZNSt3any17_Manager_internalIPKtE9_S_manageENS_3_OpEPKS_PNS_4_ArgE' => 1,
                                                    '_ZNSt3any17_Manager_internalIPN4swoc6_1_3_53bwf7PatternEE9_S_manageENS_3_OpEPKS_PNS_4_ArgE' => 1,
                                                    '_ZNSt3any17_Manager_internalIPN4swoc6_1_3_53bwf7SubTextIJNS2_6Errata8SeverityEEEEE9_S_manageENS_3_OpEPKS_PNS_4_ArgE' => 1,
                                                    '_ZNSt3any17_Manager_internalIPN4swoc6_1_3_56Errata8SeverityEE9_S_manageENS_3_OpEPKS_PNS_4_ArgE' => 1,
                                                    '_ZNSt3any17_Manager_internalIPN4swoc6_1_3_58TextViewEE9_S_manageENS_3_OpEPKS_PNS_4_ArgE' => 1,
                                                    '_ZNSt3any17_Manager_internalIPPvE9_S_manageENS_3_OpEPKS_PNS_4_ArgE' => 1,
                                                    '_ZNSt3any17_Manager_internalIPiE9_S_manageENS_3_OpEPKS_PNS_4_ArgE' => 1,
                                                    '_ZNSt3any17_Manager_internalIPmE9_S_manageENS_3_OpEPKS_PNS_4_ArgE' => 1,
                                                    '_ZNSt3any17_Manager_internalIPtE9_S_manageENS_3_OpEPKS_PNS_4_ArgE' => 1,
                                                    '_ZNSt3any5resetEv' => 1,
                                                    '_ZNSt6vectorIN4swoc6_1_3_53bwf4SpecESaIS3_EE12emplace_backIJRS3_EEES7_DpOT_' => 1,
                                                    '_ZNSt6vectorIN4swoc6_1_3_53bwf4SpecESaIS3_EE17_M_realloc_insertIJRS3_EEEvN9__gnu_cxx17__normal_iteratorIPS3_S5_EEDpOT_' => 1,
                                                    '_ZNSt6vectorISt10shared_ptrIN4swoc6_1_3_56Errata4SinkEESaIS5_EE17_M_realloc_insertIJRKS5_EEEvN9__gnu_cxx17__normal_iteratorIPS5_S7_EEDpOT_' => 1,
                                                    '_ZNSt6vectorISt10shared_ptrIN4swoc6_1_3_56Errata4SinkEESaIS5_EED1Ev' => 1,
                                                    '_ZNSt6vectorISt10shared_ptrIN4swoc6_1_3_56Errata4SinkEESaIS5_EED2Ev' => 1,
                                                    '_ZNSt7__cxx1112basic_stringIcSt11char_traitsIcESaIcEE12_M_constructIPKcEEvT_S8_St20forward_iterator_tag' => 1,
                                                    '_ZNSt7__cxx1112basic_stringIcSt11char_traitsIcESaIcEE12_M_constructIPcEEvT_S7_St20forward_iterator_tag' => 1,
                                                    '_ZNSt8__detail16_Hashtable_allocISaINS_10_Hash_nodeISt4pairIKSt17basic_string_viewIcSt11char_traitsIcEESt8functionIFRN4swoc6_1_3_512BufferWriterESC_RKNSA_3bwf4SpecEEEELb1EEEEE18_M_deallocate_nodeEPSK_' => 1,
                                                    '_ZNSt8__detail16_Hashtable_allocISaINS_10_Hash_nodeISt4pairIKSt17basic_string_viewIcSt11char_traitsIcEESt8functionIFRN4swoc6_1_3_512BufferWriterESC_RKNSA_3bwf4SpecEEEELb1EEEEE19_M_deallocate_nodesEPSK_' => 1,
                                                    '_ZNSt8__detail16_Hashtable_allocISaINS_10_Hash_nodeISt4pairIKSt17basic_string_viewIcSt11char_traitsIcEESt8functionIFRN4swoc6_1_3_512BufferWriterESC_RKNSA_3bwf4SpecEEEELb1EEEEE21_M_deallocate_bucketsEPPNS_15_Hash_node_baseEm' => 1,
                                                    '_ZNSt8__detail16_Hashtable_allocISaINS_10_Hash_nodeISt4pairIKSt17basic_string_viewIcSt11char_traitsIcEESt8functionIFRN4swoc6_1_3_512BufferWriterESC_RKNSA_3bwf4SpecEEEELb1EEEEE22_M_deallocate_node_ptrEPSK_' => 1,
                                                    '_ZSt8bwformatRN4swoc6_1_3_512BufferWriterERKNS0_3bwf4SpecERKSt10error_code' => 1,
                                                    '_ZStlsRSoRKN4swoc6_1_3_58TextViewE' => 1,
                                                    '_ZStlsRSoRN4swoc6_1_3_517FixedBufferWriterE' => 1,
                                                    '_ZTIN4swoc6_1_3_511ArenaWriterE' => -24,
                                                    '_ZTIN4swoc6_1_3_512BufferWriterE' => -16,
                                                    '_ZTIN4swoc6_1_3_517FixedBufferWriterE' => -24,
                                                    '_ZTIN4swoc6_1_3_53bwf10NilBindingE' => -24,
                                                    '_ZTIN4swoc6_1_3_53bwf11NameBindingE' => -16,
                                                    '_ZTIN4swoc6_1_3_53bwf13ExternalNamesE' => -56,
                                                    '_ZTIN4swoc6_1_3_53bwf7ArgPackE' => -16,
                                                    '_ZTIN4swoc6_1_3_53bwf7NameMapIFRNS0_12BufferWriterES4_RKNS1_4SpecEEEE' => -16,
                                                    '_ZTIN4swoc6_1_3_53bwf7PatternE' => -16,
                                                    '_ZTIN4swoc6_1_3_53bwf7SubTextIJNS0_6Errata8SeverityEEEE' => -16,
                                                    '_ZTIN4swoc6_1_3_53bwf8ArgTupleIJNS0_6Errata8SeverityEEEE' => -24,
                                                    '_ZTIN4swoc6_1_3_53bwf8ArgTupleIJRKNS0_6ErrataEEEE' => -24,
                                                    '_ZTIN4swoc6_1_3_53bwf8ArgTupleIJRKSt10error_codeEEE' => -24,
                                                    '_ZTIN4swoc6_1_3_53bwf8ArgTupleIJRKSt17basic_string_viewIcSt11char_traitsIcEEEEE' => -24,
                                                    '_ZTIN4swoc6_1_3_53bwf8ArgTupleIJRKiEEE' => -24,
                                                    '_ZTIN4swoc6_1_3_53bwf8ArgTupleIJRKtEEE' => -24,
                                                    '_ZTIN4swoc6_1_3_53bwf8ArgTupleIJRNS0_6Errata8SeverityEEEE' => -24,
                                                    '_ZTIN4swoc6_1_3_53bwf8ArgTupleIJRNS1_7PatternERNS1_7SubTextIJNS0_6Errata8SeverityEEEERNS0_8TextViewEEEE' => -24,
                                                    '_ZTIN4swoc6_1_3_53bwf8ArgTupleIJRiEEE' => -24,
                                                    '_ZTIN4swoc6_1_3_53bwf8ArgTupleIJRiRmEEE' => -24,
                                                    '_ZTIN4swoc6_1_3_53bwf8ArgTupleIJRmRPvEEE' => -24,
                                                    '_ZTIN4swoc6_1_3_53bwf8ArgTupleIJRtEEE' => -24,
                                                    '_ZTIN4swoc6_1_3_56Errata11SinkWrapperE' => -24,
                                                    '_ZTIN4swoc6_1_3_56Errata4SinkE' => -16,
                                                    '_ZTIN4swoc6_1_3_56Errata8SeverityE' => -16,
                                                    '_ZTIN4swoc6_1_3_56ErrataE' => -16,
                                                    '_ZTIN4swoc6_1_3_56detail6RBNodeE' => -16,
                                                    '_ZTIN4swoc6_1_3_58MemArenaE' => -24,
                                                    '_ZTIN4swoc6_1_3_58TextViewE' => -24,
                                                    '_ZTIPKN4swoc6_1_3_56Errata8SeverityE' => -32,
                                                    '_ZTIPKN4swoc6_1_3_56ErrataE' => -32,
                                                    '_ZTIPKSt10error_code' => -32,
                                                    '_ZTIPKSt17basic_string_viewIcSt11char_traitsIcEE' => -32,
                                                    '_ZTIPN4swoc6_1_3_53bwf7PatternE' => -32,
                                                    '_ZTIPN4swoc6_1_3_53bwf7SubTextIJNS0_6Errata8SeverityEEEE' => -32,
                                                    '_ZTIPN4swoc6_1_3_56Errata8SeverityE' => -32,
                                                    '_ZTIPN4swoc6_1_3_58TextViewE' => -32,
                                                    '_ZTIPPv' => -32,
                                                    '_ZTISt10error_code' => -16,
                                                    '_ZTISt17basic_string_viewIcSt11char_traitsIcEE' => -16,
                                                    '_ZTSN4swoc6_1_3_511ArenaWriterE' => -28,
                                                    '_ZTSN4swoc6_1_3_512BufferWriterE' => -29,
                                                    '_ZTSN4swoc6_1_3_517FixedBufferWriterE' => -34,
                                                    '_ZTSN4swoc6_1_3_53bwf10NilBindingE' => -31,
                                                    '_ZTSN4swoc6_1_3_53bwf11NameBindingE' => -32,
                                                    '_ZTSN4swoc6_1_3_53bwf13ExternalNamesE' => -34,
                                                    '_ZTSN4swoc6_1_3_53bwf7ArgPackE' => -27,
                                                    '_ZTSN4swoc6_1_3_53bwf7NameMapIFRNS0_12BufferWriterES4_RKNS1_4SpecEEEE' => -66,
                                                    '_ZTSN4swoc6_1_3_53bwf7PatternE' => -27,
                                                    '_ZTSN4swoc6_1_3_53bwf7SubTextIJNS0_6Errata8SeverityEEEE' => -52,
                                                    '_ZTSN4swoc6_1_3_53bwf8ArgTupleIJNS0_6Errata8SeverityEEEE' => -53,
                                                    '_ZTSN4swoc6_1_3_53bwf8ArgTupleIJRKNS0_6ErrataEEEE' => -46,
                                                    '_ZTSN4swoc6_1_3_53bwf8ArgTupleIJRKSt10error_codeEEE' => -48,
                                                    '_ZTSN4swoc6_1_3_53bwf8ArgTupleIJRKSt17basic_string_viewIcSt11char_traitsIcEEEEE' => -76,
                                                    '_ZTSN4swoc6_1_3_53bwf8ArgTupleIJRKiEEE' => -35,
                                                    '_ZTSN4swoc6_1_3_53bwf8ArgTupleIJRKtEEE' => -35,
                                                    '_ZTSN4swoc6_1_3_53bwf8ArgTupleIJRNS0_6Errata8SeverityEEEE' => -54,
                                                    '_ZTSN4swoc6_1_3_53bwf8ArgTupleIJRNS1_7PatternERNS1_7SubTextIJNS0_6Errata8SeverityEEEERNS0_8TextViewEEEE' => -100,
                                                    '_ZTSN4swoc6_1_3_53bwf8ArgTupleIJRiEEE' => -34,
                                                    '_ZTSN4swoc6_1_3_53bwf8ArgTupleIJRiRmEEE' => -36,
                                                    '_ZTSN4swoc6_1_3_53bwf8ArgTupleIJRmRPvEEE' => -37,
                                                    '_ZTSN4swoc6_1_3_53bwf8ArgTupleIJRtEEE' => -34,
                                                    '_ZTSN4swoc6_1_3_56Errata11SinkWrapperE' => -35,
                                                    '_ZTSN4swoc6_1_3_56Errata4SinkE' => -27,
                                                    '_ZTSN4swoc6_1_3_56Errata8SeverityE' => -31,
                                                    '_ZTSN4swoc6_1_3_56ErrataE' => -22,
                                                    '_ZTSN4swoc6_1_3_56detail6RBNodeE' => -29,
                                                    '_ZTSN4swoc6_1_3_58MemArenaE' => -24,
                                                    '_ZTSN4swoc6_1_3_58TextViewE' => -24,
                                                    '_ZTSPKN4swoc6_1_3_56Errata8SeverityE' => -33,
                                                    '_ZTSPKN4swoc6_1_3_56ErrataE' => -24,
                                                    '_ZTSPKSt10error_code' => -17,
                                                    '_ZTSPKSt17basic_string_viewIcSt11char_traitsIcEE' => -45,
                                                    '_ZTSPN4swoc6_1_3_53bwf7PatternE' => -28,
                                                    '_ZTSPN4swoc6_1_3_53bwf7SubTextIJNS0_6Errata8SeverityEEEE' => -53,
                                                    '_ZTSPN4swoc6_1_3_56Errata8SeverityE' => -32,
                                                    '_ZTSPN4swoc6_1_3_58TextViewE' => -25,
                                                    '_ZTSPPv' => -4,
                                                    '_ZTSSt10error_code' => -15,
                                                    '_ZTSSt17basic_string_viewIcSt11char_traitsIcEE' => -43,
                                                    '_ZTVN4swoc6_1_3_511ArenaWriterE' => -136,
                                                    '_ZTVN4swoc6_1_3_512BufferWriterE' => -136,
                                                    '_ZTVN4swoc6_1_3_517FixedBufferWriterE' => -136,
                                                    '_ZTVN4swoc6_1_3_53bwf10NilBindingE' => -40,
                                                    '_ZTVN4swoc6_1_3_53bwf11NameBindingE' => -40,
                                                    '_ZTVN4swoc6_1_3_53bwf13ExternalNamesE' => -40,
                                                    '_ZTVN4swoc6_1_3_53bwf7ArgPackE' => -56,
                                                    '_ZTVN4swoc6_1_3_53bwf8ArgTupleIJNS0_6Errata8SeverityEEEE' => -56,
                                                    '_ZTVN4swoc6_1_3_53bwf8ArgTupleIJRKNS0_6ErrataEEEE' => -56,
                                                    '_ZTVN4swoc6_1_3_53bwf8ArgTupleIJRKSt10error_codeEEE' => -56,
                                                    '_ZTVN4swoc6_1_3_53bwf8ArgTupleIJRKSt17basic_string_viewIcSt11char_traitsIcEEEEE' => -56,
                                                    '_ZTVN4swoc6_1_3_53bwf8ArgTupleIJRKiEEE' => -56,
                                                    '_ZTVN4swoc6_1_3_53bwf8ArgTupleIJRKtEEE' => -56,
                                                    '_ZTVN4swoc6_1_3_53bwf8ArgTupleIJRNS0_6Errata8SeverityEEEE' => -56,
                                                    '_ZTVN4swoc6_1_3_53bwf8ArgTupleIJRNS1_7PatternERNS1_7SubTextIJNS0_6Errata8SeverityEEEERNS0_8TextViewEEEE' => -56,
                                                    '_ZTVN4swoc6_1_3_53bwf8ArgTupleIJRiEEE' => -56,
                                                    '_ZTVN4swoc6_1_3_53bwf8ArgTupleIJRiRmEEE' => -56,
                                                    '_ZTVN4swoc6_1_3_53bwf8ArgTupleIJRmRPvEEE' => -56,
                                                    '_ZTVN4swoc6_1_3_53bwf8ArgTupleIJRtEEE' => -56,
                                                    '_ZTVN4swoc6_1_3_56Errata11SinkWrapperE' => -40,
                                                    '_ZTVN4swoc6_1_3_56Errata4SinkE' => -40,
                                                    '_ZTVN4swoc6_1_3_56detail6RBNodeE' => -48,
                                                    '_ZTVN4swoc6_1_3_58MemArenaE' => -56
                                                  }
                       },
          'Target' => 'unix',
          'TypeInfo' => {
                          '-1' => {
                                    'Name' => '...',
                                    'Type' => 'Intrinsic'
                                  },
                          '1' => {
                                   'Name' => 'void',
                                   'Type' => 'Intrinsic'
                                 },
                          '100' => {
                                     'Header' => undef,
                                     'Line' => '262',
                                     'Memb' => {
                                                 '0' => {
                                                          'access' => 'protected',
                                                          'name' => '_ptr',
                                                          'offset' => '0',
                                                          'type' => '64553'
                                                        },
                                                 '1' => {
                                                          'access' => 'protected',
                                                          'name' => '_size',
                                                          'offset' => '8',
                                                          'type' => '13392'
                                                        }
                                               },
                                     'Name' => 'swoc::_1_3_5::MemSpan<void>',
                                     'NameSpace' => 'swoc::_1_3_5',
                                     'PrivateABI' => 1,
                                     'Size' => '16',
                                     'TParam' => {
                                                   '0' => {
                                                            'key' => 'T',
                                                            'type' => '1'
                                                          }
                                                 },
                                     'Type' => 'Class'
                                   },
                          '10338' => {
                                       'Header' => undef,
                                       'Line' => '37',
                                       'Memb' => {
                                                   '0' => {
                                                            'name' => '_fill',
                                                            'offset' => '0',
                                                            'type' => '13451'
                                                          },
                                                   '1' => {
                                                            'name' => '_sign',
                                                            'offset' => '1',
                                                            'type' => '13451'
                                                          },
                                                   '10' => {
                                                             'name' => '_ext',
                                                             'offset' => '64',
                                                             'type' => '18714'
                                                           },
                                                   '2' => {
                                                            'name' => '_align',
                                                            'offset' => '2',
                                                            'type' => '10351'
                                                          },
                                                   '3' => {
                                                            'name' => '_type',
                                                            'offset' => '3',
                                                            'type' => '13451'
                                                          },
                                                   '4' => {
                                                            'name' => '_radix_lead_p',
                                                            'offset' => '4',
                                                            'type' => '61241'
                                                          },
                                                   '5' => {
                                                            'name' => '_min',
                                                            'offset' => '8',
                                                            'type' => '13365'
                                                          },
                                                   '6' => {
                                                            'name' => '_prec',
                                                            'offset' => '18',
                                                            'type' => '13428'
                                                          },
                                                   '7' => {
                                                            'name' => '_max',
                                                            'offset' => '22',
                                                            'type' => '13365'
                                                          },
                                                   '8' => {
                                                            'name' => '_idx',
                                                            'offset' => '32',
                                                            'type' => '13428'
                                                          },
                                                   '9' => {
                                                            'name' => '_name',
                                                            'offset' => '36',
                                                            'type' => '18714'
                                                          }
                                                 },
                                       'Name' => 'struct swoc::_1_3_5::bwf::Spec',
                                       'NameSpace' => 'swoc::_1_3_5::bwf',
                                       'PrivateABI' => 1,
                                       'Size' => '56',
                                       'Type' => 'Struct'
                                     },
                          '10351' => {
                                       'Header' => undef,
                                       'Line' => '62',
                                       'Memb' => {
                                                   '0' => {
                                                            'name' => 'NONE',
                                                            'value' => '0'
                                                          },
                                                   '1' => {
                                                            'name' => 'LEFT',
                                                            'value' => '1'
                                                          },
                                                   '2' => {
                                                            'name' => 'RIGHT',
                                                            'value' => '2'
                                                          },
                                                   '3' => {
                                                            'name' => 'CENTER',
                                                            'value' => '3'
                                                          },
                                                   '4' => {
                                                            'name' => 'SIGN',
                                                            'value' => '4'
                                                          }
                                                 },
                                       'Name' => 'enum swoc::_1_3_5::bwf::Spec::Align',
                                       'NameSpace' => 'swoc::_1_3_5::bwf::Spec',
                                       'PrivateABI' => 1,
                                       'Size' => '1',
                                       'Type' => 'Enum'
                                     },
                          '1068' => {
                                      'BaseType' => '100',
                                      'Name' => 'swoc::_1_3_5::MemSpan<void>const',
                                      'Size' => '16',
                                      'Type' => 'Const'
                                    },
                          '107242' => {
                                        'Copied' => 1,
                                        'Name' => 'std::_V2::error_category',
                                        'NameSpace' => 'std::_V2',
                                        'PrivateABI' => 1,
                                        'Type' => 'Class'
                                      },
                          '107247' => {
                                        'BaseType' => '107242',
                                        'Name' => 'std::_V2::error_category const',
                                        'Type' => 'Const'
                                      },
                          '107285' => {
                                        'Header' => undef,
                                        'Line' => '196',
                                        'Memb' => {
                                                    '0' => {
                                                             'access' => 'private',
                                                             'name' => '_M_value',
                                                             'offset' => '0',
                                                             'type' => '13428'
                                                           },
                                                    '1' => {
                                                             'access' => 'private',
                                                             'name' => '_M_cat',
                                                             'offset' => '8',
                                                             'type' => '180947'
                                                           }
                                                  },
                                        'Name' => 'std::error_code',
                                        'NameSpace' => 'std',
                                        'PrivateABI' => 1,
                                        'Size' => '16',
                                        'Type' => 'Class'
                                      },
                          '107604' => {
                                        'BaseType' => '107285',
                                        'Name' => 'std::error_code const',
                                        'Size' => '16',
                                        'Type' => 'Const'
                                      },
                          '11023' => {
                                       'BaseType' => '10338',
                                       'Name' => 'struct swoc::_1_3_5::bwf::Spec const',
                                       'Size' => '56',
                                       'Type' => 'Const'
                                     },
                          '114' => {
                                     'BaseType' => '1',
                                     'Header' => undef,
                                     'Line' => '267',
                                     'Name' => 'swoc::_1_3_5::MemSpan<void>::value_type',
                                     'NameSpace' => 'swoc::_1_3_5::MemSpan<void>',
                                     'PrivateABI' => 1,
                                     'Type' => 'Typedef'
                                   },
                          '11426' => {
                                       'Header' => undef,
                                       'Line' => '257',
                                       'Memb' => {
                                                   '0' => {
                                                            'access' => 'protected',
                                                            'name' => '_map',
                                                            'offset' => '0',
                                                            'type' => '11612'
                                                          },
                                                   '1' => {
                                                            'access' => 'protected',
                                                            'name' => '_arena',
                                                            'offset' => '86',
                                                            'type' => '5663'
                                                          }
                                                 },
                                       'Name' => 'swoc::_1_3_5::bwf::NameMap<swoc::_1_3_5::BufferWriter&(swoc::_1_3_5::BufferWriter&, struct swoc::_1_3_5::bwf::Spec const&)>',
                                       'NameSpace' => 'swoc::_1_3_5::bwf',
                                       'PrivateABI' => 1,
                                       'Size' => '160',
                                       'TParam' => {
                                                     '0' => {
                                                              'key' => 'F',
                                                              'type' => '88738'
                                                            }
                                                   },
                                       'Type' => 'Class'
                                     },
                          '11612' => {
                                       'BaseType' => '47481',
                                       'Header' => undef,
                                       'Line' => '281',
                                       'Name' => 'swoc::_1_3_5::bwf::NameMap<swoc::_1_3_5::BufferWriter&(swoc::_1_3_5::BufferWriter&, struct swoc::_1_3_5::bwf::Spec const&)>::Map',
                                       'NameSpace' => 'swoc::_1_3_5::bwf::NameMap<swoc::_1_3_5::BufferWriter&(swoc::_1_3_5::BufferWriter&, struct swoc::_1_3_5::bwf::Spec const&)>',
                                       'PrivateABI' => 1,
                                       'Protected' => 1,
                                       'Size' => '56',
                                       'Type' => 'Typedef'
                                     },
                          '116578' => {
                                        'Name' => 'std::pmr::memory_resource',
                                        'NameSpace' => 'std::pmr',
                                        'PrivateABI' => 1,
                                        'Type' => 'Class'
                                      },
                          '11691' => {
                                       'Base' => {
                                                   '11426' => {
                                                                'pos' => '0'
                                                              },
                                                   '12433' => {
                                                                'pos' => '1'
                                                              }
                                                 },
                                       'Header' => undef,
                                       'Line' => '292',
                                       'Name' => 'swoc::_1_3_5::bwf::ExternalNames',
                                       'NameSpace' => 'swoc::_1_3_5::bwf',
                                       'PrivateABI' => 1,
                                       'Size' => '168',
                                       'Type' => 'Class',
                                       'VTable' => {
                                                     '0' => '(int (*)(...)) 0',
                                                     '16' => '(int (*)(...)) swoc::_1_3_5::bwf::ExternalNames::~ExternalNames() [_ZN4swoc6_1_3_53bwf13ExternalNamesD1Ev]',
                                                     '24' => '(int (*)(...)) swoc::_1_3_5::bwf::ExternalNames::~ExternalNames() [_ZN4swoc6_1_3_53bwf13ExternalNamesD0Ev]',
                                                     '32' => '(int (*)(...)) swoc::_1_3_5::bwf::ExternalNames::operator()(swoc::_1_3_5::BufferWriter&, swoc::_1_3_5::bwf::Spec const&) const [_ZNK4swoc6_1_3_53bwf13ExternalNamesclERNS0_12BufferWriterERKNS1_4SpecE]',
                                                     '8' => '(int (*)(...)) (& typeinfo for swoc::_1_3_5::bwf::ExternalNames) [_ZTIN4swoc6_1_3_53bwf13ExternalNamesE]'
                                                   }
                                     },
                          '12433' => {
                                       'Copied' => 1,
                                       'Header' => undef,
                                       'Line' => '210',
                                       'Memb' => {
                                                   '0' => {
                                                            'name' => '_vptr',
                                                            'offset' => '0',
                                                            'type' => '67092'
                                                          }
                                                 },
                                       'Name' => 'swoc::_1_3_5::bwf::NameBinding',
                                       'NameSpace' => 'swoc::_1_3_5::bwf',
                                       'PrivateABI' => 1,
                                       'Size' => '8',
                                       'Type' => 'Class',
                                       'VTable' => {
                                                     '0' => '(int (*)(...)) 0',
                                                     '16' => '0u',
                                                     '24' => '0u',
                                                     '32' => '(int (*)(...)) __cxa_pure_virtual',
                                                     '8' => '(int (*)(...)) (& typeinfo for swoc::_1_3_5::bwf::NameBinding) [_ZTIN4swoc6_1_3_53bwf11NameBindingE]'
                                                   }
                                     },
                          '13365' => {
                                       'Name' => 'unsigned int',
                                       'Size' => '4',
                                       'Type' => 'Intrinsic'
                                     },
                          '13392' => {
                                       'BaseType' => '13409',
                                       'Header' => undef,
                                       'Line' => '209',
                                       'Name' => 'size_t',
                                       'PrivateABI' => 1,
                                       'Size' => '8',
                                       'Type' => 'Typedef'
                                     },
                          '13409' => {
                                       'Name' => 'unsigned long',
                                       'Size' => '8',
                                       'Type' => 'Intrinsic'
                                     },
                          '13421' => {
                                       'Name' => 'unsigned short',
                                       'Size' => '2',
                                       'Type' => 'Intrinsic'
                                     },
                          '13428' => {
                                       'Name' => 'int',
                                       'Size' => '4',
                                       'Type' => 'Intrinsic'
                                     },
                          '13441' => {
                                       'BaseType' => '13458',
                                       'Name' => 'char const*',
                                       'Size' => '8',
                                       'Type' => 'Pointer'
                                     },
                          '13451' => {
                                       'Name' => 'char',
                                       'Size' => '1',
                                       'Type' => 'Intrinsic'
                                     },
                          '13458' => {
                                       'BaseType' => '13451',
                                       'Name' => 'char const',
                                       'Size' => '1',
                                       'Type' => 'Const'
                                     },
                          '14968' => {
                                       'BaseType' => '13409',
                                       'Header' => undef,
                                       'Line' => '2426',
                                       'Name' => 'std::size_t',
                                       'NameSpace' => 'std',
                                       'PrivateABI' => 1,
                                       'Size' => '8',
                                       'Type' => 'Typedef'
                                     },
                          '153308' => {
                                        'BaseType' => '61636',
                                        'Name' => 'int8_t const',
                                        'Size' => '1',
                                        'Type' => 'Const'
                                      },
                          '15913' => {
                                       'Base' => {
                                                   '56931' => {
                                                                'pos' => '0'
                                                              }
                                                 },
                                       'Header' => undef,
                                       'Line' => '124',
                                       'Name' => 'std::allocator<char>',
                                       'NameSpace' => 'std',
                                       'PrivateABI' => 1,
                                       'Size' => '1',
                                       'TParam' => {
                                                     '0' => {
                                                              'name' => 'char'
                                                            }
                                                   },
                                       'Type' => 'Class'
                                     },
                          '16206' => {
                                       'Header' => undef,
                                       'Line' => '51',
                                       'Name' => 'struct std::__hash_base<unsigned long, std::basic_string_view<char> >',
                                       'NameSpace' => 'std',
                                       'PrivateABI' => 1,
                                       'Size' => '1',
                                       'TParam' => {
                                                     '0' => {
                                                              'key' => '_Result',
                                                              'type' => '13409'
                                                            },
                                                     '1' => {
                                                              'key' => '_Arg',
                                                              'type' => '16238'
                                                            }
                                                   },
                                       'Type' => 'Struct'
                                     },
                          '16238' => {
                                       'Header' => undef,
                                       'Line' => '98',
                                       'Memb' => {
                                                   '0' => {
                                                            'access' => 'private',
                                                            'name' => '_M_len',
                                                            'offset' => '0',
                                                            'type' => '14968'
                                                          },
                                                   '1' => {
                                                            'access' => 'private',
                                                            'name' => '_M_str',
                                                            'offset' => '8',
                                                            'type' => '13441'
                                                          }
                                                 },
                                       'Name' => 'std::basic_string_view<char>',
                                       'NameSpace' => 'std',
                                       'PrivateABI' => 1,
                                       'Size' => '16',
                                       'TParam' => {
                                                     '0' => {
                                                              'key' => '_CharT',
                                                              'type' => '13451'
                                                            }
                                                   },
                                       'Type' => 'Class'
                                     },
                          '173077' => {
                                        'Header' => undef,
                                        'Line' => '1167',
                                        'Memb' => {
                                                    '0' => {
                                                             'name' => '_view',
                                                             'offset' => '0',
                                                             'type' => '18714'
                                                           }
                                                  },
                                        'Name' => 'struct swoc::_1_3_5::bwf::HexDump',
                                        'NameSpace' => 'swoc::_1_3_5::bwf',
                                        'PrivateABI' => 1,
                                        'Size' => '16',
                                        'Type' => 'Struct'
                                      },
                          '173140' => {
                                        'BaseType' => '173077',
                                        'Name' => 'struct swoc::_1_3_5::bwf::HexDump const',
                                        'Size' => '16',
                                        'Type' => 'Const'
                                      },
                          '173154' => {
                                        'Header' => undef,
                                        'Line' => '24',
                                        'Memb' => {
                                                    '0' => {
                                                             'name' => '_n',
                                                             'offset' => '0',
                                                             'type' => '13428'
                                                           },
                                                    '1' => {
                                                             'name' => '_text',
                                                             'offset' => '8',
                                                             'type' => '18714'
                                                           }
                                                  },
                                        'Name' => 'struct swoc::_1_3_5::bwf::Pattern',
                                        'NameSpace' => 'swoc::_1_3_5::bwf',
                                        'PrivateABI' => 1,
                                        'Size' => '24',
                                        'Type' => 'Struct'
                                      },
                          '173194' => {
                                        'BaseType' => '173154',
                                        'Name' => 'struct swoc::_1_3_5::bwf::Pattern const',
                                        'Size' => '24',
                                        'Type' => 'Const'
                                      },
                          '173199' => {
                                        'Header' => undef,
                                        'Line' => '34',
                                        'Memb' => {
                                                    '0' => {
                                                             'name' => '_e',
                                                             'offset' => '0',
                                                             'type' => '13428'
                                                           }
                                                  },
                                        'Name' => 'struct swoc::_1_3_5::bwf::Errno',
                                        'NameSpace' => 'swoc::_1_3_5::bwf',
                                        'PrivateABI' => 1,
                                        'Size' => '4',
                                        'Type' => 'Struct'
                                      },
                          '173254' => {
                                        'BaseType' => '173199',
                                        'Name' => 'struct swoc::_1_3_5::bwf::Errno const',
                                        'Size' => '4',
                                        'Type' => 'Const'
                                      },
                          '173259' => {
                                        'Header' => undef,
                                        'Line' => '44',
                                        'Memb' => {
                                                    '0' => {
                                                             'name' => '_epoch',
                                                             'offset' => '0',
                                                             'type' => '62342'
                                                           },
                                                    '1' => {
                                                             'name' => '_fmt',
                                                             'offset' => '8',
                                                             'type' => '18714'
                                                           }
                                                  },
                                        'Name' => 'struct swoc::_1_3_5::bwf::Date',
                                        'NameSpace' => 'swoc::_1_3_5::bwf',
                                        'PrivateABI' => 1,
                                        'Size' => '24',
                                        'Type' => 'Struct'
                                      },
                          '173363' => {
                                        'BaseType' => '173259',
                                        'Name' => 'struct swoc::_1_3_5::bwf::Date const',
                                        'Size' => '24',
                                        'Type' => 'Const'
                                      },
                          '180751' => {
                                        'BaseType' => '153308',
                                        'Name' => 'int8_t const[256]',
                                        'Size' => '256',
                                        'Type' => 'Array'
                                      },
                          '180767' => {
                                        'BaseType' => '180751',
                                        'Name' => 'int8_t const[256] const',
                                        'Size' => '256',
                                        'Type' => 'Const'
                                      },
                          '180947' => {
                                        'BaseType' => '107247',
                                        'Name' => 'std::_V2::error_category const*',
                                        'Size' => '8',
                                        'Type' => 'Pointer'
                                      },
                          '180987' => {
                                        'BaseType' => '107604',
                                        'Name' => 'std::error_code const&',
                                        'Size' => '8',
                                        'Type' => 'Ref'
                                      },
                          '18638' => {
                                       'BaseType' => '16238',
                                       'Name' => 'std::basic_string_view<char>const',
                                       'Size' => '16',
                                       'Type' => 'Const'
                                     },
                          '18643' => {
                                       'Base' => {
                                                   '16206' => {
                                                                'pos' => '0'
                                                              }
                                                 },
                                       'Copied' => 1,
                                       'Header' => undef,
                                       'Line' => '690',
                                       'Name' => 'struct std::hash<std::basic_string_view<char> >',
                                       'NameSpace' => 'std',
                                       'PrivateABI' => 1,
                                       'Size' => '1',
                                       'TParam' => {
                                                     '0' => {
                                                              'key' => '_Tp',
                                                              'type' => '16238'
                                                            }
                                                   },
                                       'Type' => 'Struct'
                                     },
                          '18714' => {
                                       'BaseType' => '16238',
                                       'Header' => undef,
                                       'Line' => '674',
                                       'Name' => 'std::string_view',
                                       'NameSpace' => 'std',
                                       'PrivateABI' => 1,
                                       'Size' => '16',
                                       'Type' => 'Typedef'
                                     },
                          '19209' => {
                                       'Copied' => 1,
                                       'Header' => undef,
                                       'Line' => '411',
                                       'Name' => 'struct std::allocator_traits<std::allocator<char> >',
                                       'NameSpace' => 'std',
                                       'PrivateABI' => 1,
                                       'Size' => '1',
                                       'TParam' => {
                                                     '0' => {
                                                              'type' => '15913'
                                                            }
                                                   },
                                       'Type' => 'Struct'
                                     },
                          '19223' => {
                                       'BaseType' => '53847',
                                       'Header' => undef,
                                       'Line' => '420',
                                       'Name' => 'std::allocator_traits<std::allocator<char> >::pointer',
                                       'NameSpace' => 'std::allocator_traits<std::allocator<char> >',
                                       'PrivateABI' => 1,
                                       'Size' => '8',
                                       'Type' => 'Typedef'
                                     },
                          '19286' => {
                                       'BaseType' => '14968',
                                       'Header' => undef,
                                       'Line' => '435',
                                       'Name' => 'std::allocator_traits<std::allocator<char> >::size_type',
                                       'NameSpace' => 'std::allocator_traits<std::allocator<char> >',
                                       'PrivateABI' => 1,
                                       'Size' => '8',
                                       'Type' => 'Typedef'
                                     },
                          '19490' => {
                                       'Header' => undef,
                                       'Line' => '85',
                                       'Memb' => {
                                                   '0' => {
                                                            'access' => 'private',
                                                            'name' => '_M_dataplus',
                                                            'offset' => '0',
                                                            'type' => '19503'
                                                          },
                                                   '1' => {
                                                            'access' => 'private',
                                                            'name' => '_M_string_length',
                                                            'offset' => '8',
                                                            'type' => '19656'
                                                          },
                                                   '2' => {
                                                            'access' => 'private',
                                                            'name' => 'unnamed0',
                                                            'offset' => '22',
                                                            'type' => '19621'
                                                          }
                                                 },
                                       'Name' => 'std::__cxx11::basic_string<char>',
                                       'NameSpace' => 'std::__cxx11',
                                       'PrivateABI' => 1,
                                       'Size' => '32',
                                       'TParam' => {
                                                     '0' => {
                                                              'key' => '_CharT',
                                                              'type' => '13451'
                                                            }
                                                   },
                                       'Type' => 'Class'
                                     },
                          '19503' => {
                                       'Base' => {
                                                   '15913' => {
                                                                'pos' => '0'
                                                              }
                                                 },
                                       'Header' => undef,
                                       'Line' => '158',
                                       'Memb' => {
                                                   '0' => {
                                                            'name' => '_M_p',
                                                            'offset' => '0',
                                                            'type' => '19608'
                                                          }
                                                 },
                                       'Name' => 'struct std::__cxx11::basic_string<char>::_Alloc_hider',
                                       'NameSpace' => 'std::__cxx11::basic_string<char>',
                                       'Private' => 1,
                                       'PrivateABI' => 1,
                                       'Size' => '8',
                                       'Type' => 'Struct'
                                     },
                          '19608' => {
                                       'BaseType' => '57606',
                                       'Header' => undef,
                                       'Line' => '100',
                                       'Name' => 'std::__cxx11::basic_string<char>::pointer',
                                       'NameSpace' => 'std::__cxx11::basic_string<char>',
                                       'PrivateABI' => 1,
                                       'Size' => '8',
                                       'Type' => 'Typedef'
                                     },
                          '19621' => {
                                       'Header' => undef,
                                       'Line' => '180',
                                       'Memb' => {
                                                   '0' => {
                                                            'name' => '_M_local_buf',
                                                            'offset' => '0',
                                                            'type' => '64304'
                                                          },
                                                   '1' => {
                                                            'name' => '_M_allocated_capacity',
                                                            'offset' => '0',
                                                            'type' => '19656'
                                                          }
                                                 },
                                       'NameSpace' => 'std::__cxx11::basic_string<char>',
                                       'Private' => 1,
                                       'PrivateABI' => 1,
                                       'Size' => '16',
                                       'Type' => 'Union'
                                     },
                          '19656' => {
                                       'BaseType' => '57630',
                                       'Header' => undef,
                                       'Line' => '96',
                                       'Name' => 'std::__cxx11::basic_string<char>::size_type',
                                       'NameSpace' => 'std::__cxx11::basic_string<char>',
                                       'PrivateABI' => 1,
                                       'Size' => '8',
                                       'Type' => 'Typedef'
                                     },
                          '222871' => {
                                        'BaseType' => '173140',
                                        'Name' => 'struct swoc::_1_3_5::bwf::HexDump const&',
                                        'Size' => '8',
                                        'Type' => 'Ref'
                                      },
                          '2252' => {
                                      'Base' => {
                                                  '16238' => {
                                                               'pos' => '0'
                                                             }
                                                },
                                      'Header' => undef,
                                      'Line' => '50',
                                      'Name' => 'swoc::_1_3_5::TextView',
                                      'NameSpace' => 'swoc::_1_3_5',
                                      'PrivateABI' => 1,
                                      'Size' => '16',
                                      'Type' => 'Class'
                                    },
                          '241388' => {
                                        'BaseType' => '173194',
                                        'Name' => 'struct swoc::_1_3_5::bwf::Pattern const&',
                                        'Size' => '8',
                                        'Type' => 'Ref'
                                      },
                          '241866' => {
                                        'BaseType' => '173363',
                                        'Name' => 'struct swoc::_1_3_5::bwf::Date const&',
                                        'Size' => '8',
                                        'Type' => 'Ref'
                                      },
                          '243875' => {
                                        'BaseType' => '173254',
                                        'Name' => 'struct swoc::_1_3_5::bwf::Errno const&',
                                        'Size' => '8',
                                        'Type' => 'Ref'
                                      },
                          '26572' => {
                                       'BaseType' => '19490',
                                       'Header' => undef,
                                       'Line' => '79',
                                       'Name' => 'std::string',
                                       'NameSpace' => 'std',
                                       'PrivateABI' => 1,
                                       'Size' => '32',
                                       'Type' => 'Typedef'
                                     },
                          '26810' => {
                                       'Copied' => 1,
                                       'Name' => 'std::basic_ostream<char>',
                                       'NameSpace' => 'std',
                                       'PrivateABI' => 1,
                                       'TParam' => {
                                                     '0' => {
                                                              'key' => '_CharT',
                                                              'type' => '13451'
                                                            }
                                                   },
                                       'Type' => 'Class'
                                     },
                          '26838' => {
                                       'BaseType' => '26810',
                                       'Header' => undef,
                                       'Line' => '141',
                                       'Name' => 'std::ostream',
                                       'NameSpace' => 'std',
                                       'PrivateABI' => 1,
                                       'Type' => 'Typedef'
                                     },
                          '27072' => {
                                       'Copied' => 1,
                                       'Header' => undef,
                                       'Line' => '89',
                                       'Name' => 'struct std::__detail::_Select1st',
                                       'NameSpace' => 'std::__detail',
                                       'PrivateABI' => 1,
                                       'Size' => '1',
                                       'Type' => 'Struct'
                                     },
                          '27132' => {
                                       'Header' => undef,
                                       'Line' => '215',
                                       'Memb' => {
                                                   '0' => {
                                                            'name' => '_M_nxt',
                                                            'offset' => '0',
                                                            'type' => '64633'
                                                          }
                                                 },
                                       'Name' => 'struct std::__detail::_Hash_node_base',
                                       'NameSpace' => 'std::__detail',
                                       'PrivateABI' => 1,
                                       'Size' => '8',
                                       'Type' => 'Struct'
                                     },
                          '27212' => {
                                       'Header' => undef,
                                       'Line' => '264',
                                       'Memb' => {
                                                   '0' => {
                                                            'name' => '_M_hash_code',
                                                            'offset' => '0',
                                                            'type' => '14968'
                                                          }
                                                 },
                                       'Name' => 'struct std::__detail::_Hash_node_code_cache<true>',
                                       'NameSpace' => 'std::__detail',
                                       'PrivateABI' => 1,
                                       'Size' => '8',
                                       'TParam' => {
                                                     '0' => {
                                                              'key' => '_Cache_hash_code',
                                                              'type' => '61241',
                                                              'val' => '1'
                                                            }
                                                   },
                                       'Type' => 'Struct'
                                     },
                          '27256' => {
                                       'Copied' => 1,
                                       'Header' => undef,
                                       'Line' => '421',
                                       'Name' => 'struct std::__detail::_Mod_range_hashing',
                                       'NameSpace' => 'std::__detail',
                                       'PrivateABI' => 1,
                                       'Size' => '1',
                                       'Type' => 'Struct'
                                     },
                          '27356' => {
                                       'Header' => undef,
                                       'Line' => '438',
                                       'Name' => 'struct std::__detail::_Default_ranged_hash',
                                       'NameSpace' => 'std::__detail',
                                       'PrivateABI' => 1,
                                       'Size' => '1',
                                       'Type' => 'Struct'
                                     },
                          '27365' => {
                                       'Header' => undef,
                                       'Line' => '442',
                                       'Memb' => {
                                                   '0' => {
                                                            'name' => '_M_max_load_factor',
                                                            'offset' => '0',
                                                            'type' => '54183'
                                                          },
                                                   '1' => {
                                                            'name' => '_M_next_resize',
                                                            'offset' => '8',
                                                            'type' => '14968'
                                                          }
                                                 },
                                       'Name' => 'struct std::__detail::_Prime_rehash_policy',
                                       'NameSpace' => 'std::__detail',
                                       'PrivateABI' => 1,
                                       'Size' => '16',
                                       'Type' => 'Struct'
                                     },
                          '277266' => {
                                        'BaseType' => '13421',
                                        'Header' => undef,
                                        'Line' => '28',
                                        'Name' => 'sa_family_t',
                                        'PrivateABI' => 1,
                                        'Size' => '2',
                                        'Type' => 'Typedef'
                                      },
                          '277283' => {
                                        'Header' => undef,
                                        'Line' => '178',
                                        'Memb' => {
                                                    '0' => {
                                                             'name' => 'sa_family',
                                                             'offset' => '0',
                                                             'type' => '277266'
                                                           },
                                                    '1' => {
                                                             'name' => 'sa_data',
                                                             'offset' => '2',
                                                             'type' => '277328'
                                                           }
                                                  },
                                        'Name' => 'struct sockaddr',
                                        'PrivateABI' => 1,
                                        'Size' => '16',
                                        'Type' => 'Struct'
                                      },
                          '277323' => {
                                        'BaseType' => '277283',
                                        'Name' => 'struct sockaddr const',
                                        'Size' => '16',
                                        'Type' => 'Const'
                                      },
                          '277328' => {
                                        'BaseType' => '13451',
                                        'Name' => 'char[14]',
                                        'Size' => '14',
                                        'Type' => 'Array'
                                      },
                          '277344' => {
                                        'BaseType' => '61708',
                                        'Header' => undef,
                                        'Line' => '30',
                                        'Name' => 'in_addr_t',
                                        'PrivateABI' => 1,
                                        'Size' => '4',
                                        'Type' => 'Typedef'
                                      },
                          '277395' => {
                                        'Header' => undef,
                                        'Line' => '216',
                                        'Memb' => {
                                                    '0' => {
                                                             'name' => '__in6_u',
                                                             'offset' => '0',
                                                             'type' => '277408'
                                                           }
                                                  },
                                        'Name' => 'struct in6_addr',
                                        'PrivateABI' => 1,
                                        'Size' => '16',
                                        'Type' => 'Struct'
                                      },
                          '277408' => {
                                        'Header' => undef,
                                        'Line' => '219',
                                        'Memb' => {
                                                    '0' => {
                                                             'name' => '__u6_addr8',
                                                             'offset' => '0',
                                                             'type' => '277474'
                                                           },
                                                    '1' => {
                                                             'name' => '__u6_addr16',
                                                             'offset' => '0',
                                                             'type' => '277490'
                                                           },
                                                    '2' => {
                                                             'name' => '__u6_addr32',
                                                             'offset' => '0',
                                                             'type' => '277506'
                                                           }
                                                  },
                                        'NameSpace' => 'in6_addr',
                                        'PrivateABI' => 1,
                                        'Size' => '16',
                                        'Type' => 'Union'
                                      },
                          '277469' => {
                                        'BaseType' => '277395',
                                        'Name' => 'struct in6_addr const',
                                        'Size' => '16',
                                        'Type' => 'Const'
                                      },
                          '277474' => {
                                        'BaseType' => '61684',
                                        'Name' => 'uint8_t[16]',
                                        'Size' => '16',
                                        'Type' => 'Array'
                                      },
                          '277490' => {
                                        'BaseType' => '61696',
                                        'Name' => 'uint16_t[8]',
                                        'Size' => '16',
                                        'Type' => 'Array'
                                      },
                          '277506' => {
                                        'BaseType' => '61708',
                                        'Name' => 'uint32_t[4]',
                                        'Size' => '16',
                                        'Type' => 'Array'
                                      },
                          '27756' => {
                                       'Header' => undef,
                                       'Line' => '200',
                                       'Name' => 'struct std::__detail::_Hashtable_traits<true, false, true>',
                                       'NameSpace' => 'std::__detail',
                                       'PrivateABI' => 1,
                                       'Size' => '1',
                                       'TParam' => {
                                                     '0' => {
                                                              'key' => '_Cache_hash_code',
                                                              'type' => '61241',
                                                              'val' => '1'
                                                            },
                                                     '1' => {
                                                              'key' => '_Constant_iterators',
                                                              'type' => '61241',
                                                              'val' => '0'
                                                            },
                                                     '2' => {
                                                              'key' => '_Unique_keys',
                                                              'type' => '61241',
                                                              'val' => '1'
                                                            }
                                                   },
                                       'Type' => 'Struct'
                                     },
                          '27800' => {
                                       'Base' => {
                                                   '18643' => {
                                                                'access' => 'private',
                                                                'pos' => '0'
                                                              }
                                                 },
                                       'Header' => undef,
                                       'Line' => '1124',
                                       'Name' => 'struct std::__detail::_Hashtable_ebo_helper<1, std::hash<std::basic_string_view<char> >, true>',
                                       'NameSpace' => 'std::__detail',
                                       'PrivateABI' => 1,
                                       'Size' => '1',
                                       'TParam' => {
                                                     '0' => {
                                                              'key' => '_Nm',
                                                              'type' => '13428',
                                                              'val' => '1'
                                                            },
                                                     '1' => {
                                                              'key' => '_Tp',
                                                              'type' => '18643'
                                                            },
                                                     '2' => {
                                                              'key' => '__use_ebo',
                                                              'type' => '61241',
                                                              'val' => '1'
                                                            }
                                                   },
                                       'Type' => 'Struct'
                                     },
                          '27945' => {
                                       'Base' => {
                                                   '27800' => {
                                                                'access' => 'private',
                                                                'pos' => '0'
                                                              }
                                                 },
                                       'Header' => undef,
                                       'Line' => '1188',
                                       'Name' => 'struct std::__detail::_Hash_code_base<std::basic_string_view<char>, std::pair<std::basic_string_view<char>const, std::function<swoc::_1_3_5::BufferWriter&(swoc::_1_3_5::BufferWriter&, struct swoc::_1_3_5::bwf::Spec const&)> >, std::__detail::_Select1st, std::hash<std::basic_string_view<char> >, std::__detail::_Mod_range_hashing, std::__detail::_Default_ranged_hash, true>',
                                       'NameSpace' => 'std::__detail',
                                       'PrivateABI' => 1,
                                       'Size' => '1',
                                       'TParam' => {
                                                     '0' => {
                                                              'key' => '_Key',
                                                              'type' => '16238'
                                                            },
                                                     '1' => {
                                                              'key' => '_Value',
                                                              'type' => '41868'
                                                            },
                                                     '2' => {
                                                              'key' => '_ExtractKey',
                                                              'type' => '27072'
                                                            },
                                                     '3' => {
                                                              'key' => '_Hash',
                                                              'type' => '18643'
                                                            },
                                                     '4' => {
                                                              'key' => '_RangeHash',
                                                              'type' => '27256'
                                                            },
                                                     '5' => {
                                                              'key' => '_Unused',
                                                              'type' => '27356'
                                                            },
                                                     '6' => {
                                                              'key' => '__cache_hash_code',
                                                              'type' => '61241',
                                                              'val' => '1'
                                                            }
                                                   },
                                       'Type' => 'Struct'
                                     },
                          '28585' => {
                                       'Base' => {
                                                   '27212' => {
                                                                'pos' => '1'
                                                              },
                                                   '29836' => {
                                                                'pos' => '0'
                                                              }
                                                 },
                                       'Header' => undef,
                                       'Line' => '268',
                                       'Name' => 'struct std::__detail::_Hash_node_value<std::pair<std::basic_string_view<char>const, std::function<swoc::_1_3_5::BufferWriter&(swoc::_1_3_5::BufferWriter&, struct swoc::_1_3_5::bwf::Spec const&)> >, true>',
                                       'NameSpace' => 'std::__detail',
                                       'PrivateABI' => 1,
                                       'Size' => '56',
                                       'TParam' => {
                                                     '0' => {
                                                              'key' => '_Value',
                                                              'type' => '41868'
                                                            },
                                                     '1' => {
                                                              'key' => '_Cache_hash_code',
                                                              'type' => '61241',
                                                              'val' => '1'
                                                            }
                                                   },
                                       'Type' => 'Struct'
                                     },
                          '28635' => {
                                       'Base' => {
                                                   '42551' => {
                                                                'access' => 'private',
                                                                'pos' => '0'
                                                              }
                                                 },
                                       'Header' => undef,
                                       'Line' => '1124',
                                       'Name' => 'struct std::__detail::_Hashtable_ebo_helper<0, std::equal_to<std::basic_string_view<char> >, true>',
                                       'NameSpace' => 'std::__detail',
                                       'PrivateABI' => 1,
                                       'Size' => '1',
                                       'TParam' => {
                                                     '0' => {
                                                              'key' => '_Nm',
                                                              'type' => '13428',
                                                              'val' => '0'
                                                            },
                                                     '1' => {
                                                              'key' => '_Tp',
                                                              'type' => '42551'
                                                            },
                                                     '2' => {
                                                              'key' => '__use_ebo',
                                                              'type' => '61241',
                                                              'val' => '1'
                                                            }
                                                   },
                                       'Type' => 'Struct'
                                     },
                          '28780' => {
                                       'Base' => {
                                                   '27945' => {
                                                                'pos' => '0'
                                                              },
                                                   '28635' => {
                                                                'access' => 'private',
                                                                'pos' => '1'
                                                              }
                                                 },
                                       'Header' => undef,
                                       'Line' => '1561',
                                       'Name' => 'struct std::__detail::_Hashtable_base<std::basic_string_view<char>, std::pair<std::basic_string_view<char>const, std::function<swoc::_1_3_5::BufferWriter&(swoc::_1_3_5::BufferWriter&, struct swoc::_1_3_5::bwf::Spec const&)> >, std::__detail::_Select1st, std::equal_to<std::basic_string_view<char> >, std::hash<std::basic_string_view<char> >, std::__detail::_Mod_range_hashing, std::__detail::_Default_ranged_hash, std::__detail::_Hashtable_traits<true, false, true> >',
                                       'NameSpace' => 'std::__detail',
                                       'PrivateABI' => 1,
                                       'Size' => '1',
                                       'TParam' => {
                                                     '0' => {
                                                              'key' => '_Key',
                                                              'type' => '16238'
                                                            },
                                                     '1' => {
                                                              'key' => '_Value',
                                                              'type' => '41868'
                                                            },
                                                     '2' => {
                                                              'key' => '_ExtractKey',
                                                              'type' => '27072'
                                                            },
                                                     '3' => {
                                                              'key' => '_Equal',
                                                              'type' => '42551'
                                                            },
                                                     '4' => {
                                                              'key' => '_Hash',
                                                              'type' => '18643'
                                                            },
                                                     '5' => {
                                                              'key' => '_RangeHash',
                                                              'type' => '27256'
                                                            },
                                                     '6' => {
                                                              'key' => '_Unused',
                                                              'type' => '27356'
                                                            },
                                                     '7' => {
                                                              'key' => '_Traits',
                                                              'type' => '27756'
                                                            }
                                                   },
                                       'Type' => 'Struct'
                                     },
                          '287904' => {
                                        'Header' => undef,
                                        'Line' => '1194',
                                        'Name' => 'struct std::monostate',
                                        'NameSpace' => 'std',
                                        'PrivateABI' => 1,
                                        'Size' => '1',
                                        'Type' => 'Struct'
                                      },
                          '29194' => {
                                       'BaseType' => '14968',
                                       'Header' => undef,
                                       'Line' => '1570',
                                       'Name' => 'std::__detail::_Hashtable_base<std::basic_string_view<char>, std::pair<std::basic_string_view<char>const, std::function<swoc::_1_3_5::BufferWriter&(swoc::_1_3_5::BufferWriter&, struct swoc::_1_3_5::bwf::Spec const&)> >, std::__detail::_Select1st, std::equal_to<std::basic_string_view<char> >, std::hash<std::basic_string_view<char> >, std::__detail::_Mod_range_hashing, std::__detail::_Default_ranged_hash, std::__detail::_Hashtable_traits<true, false, true> >::size_type',
                                       'NameSpace' => 'std::__detail::_Hashtable_base<std::basic_string_view<char>, std::pair<std::basic_string_view<char>const, std::function<swoc::_1_3_5::BufferWriter&(swoc::_1_3_5::BufferWriter&, struct swoc::_1_3_5::bwf::Spec const&)> >, std::__detail::_Select1st, std::equal_to<std::basic_string_view<char> >, std::hash<std::basic_string_view<char> >, std::__detail::_Mod_range_hashing, std::__detail::_Default_ranged_hash, std::__detail::_Hashtable_traits<true, false, true> >',
                                       'PrivateABI' => 1,
                                       'Size' => '8',
                                       'Type' => 'Typedef'
                                     },
                          '29285' => {
                                       'Copied' => 1,
                                       'Header' => undef,
                                       'Line' => '659',
                                       'Name' => 'struct std::__detail::_Map_base<std::basic_string_view<char>, std::pair<std::basic_string_view<char>const, std::function<swoc::_1_3_5::BufferWriter&(swoc::_1_3_5::BufferWriter&, struct swoc::_1_3_5::bwf::Spec const&)> >, std::allocator<std::pair<const std::basic_string_view<char, std::char_traits<char> >, std::function<swoc::_1_3_5::BufferWriter&(swoc::_1_3_5::BufferWriter&, swoc::_1_3_5::bwf::Spec const&)> > >, std::__detail::_Select1st, std::equal_to<std::basic_string_view<char> >, std::hash<std::basic_string_view<char> >, std::__detail::_Mod_range_hashing, std::__detail::_Default_ranged_hash, std::__detail::_Prime_rehash_policy, std::__detail::_Hashtable_traits<true, false, true>, true>',
                                       'NameSpace' => 'std::__detail',
                                       'PrivateABI' => 1,
                                       'Size' => '1',
                                       'TParam' => {
                                                     '0' => {
                                                              'key' => '_Key',
                                                              'type' => '16238'
                                                            },
                                                     '1' => {
                                                              'key' => '_Value',
                                                              'type' => '41868'
                                                            },
                                                     '10' => {
                                                               'key' => '_Unique_keys',
                                                               'type' => '61241',
                                                               'val' => '1'
                                                             },
                                                     '2' => {
                                                              'key' => '_Alloc',
                                                              'type' => '42135'
                                                            },
                                                     '3' => {
                                                              'key' => '_ExtractKey',
                                                              'type' => '27072'
                                                            },
                                                     '4' => {
                                                              'key' => '_Equal',
                                                              'type' => '42551'
                                                            },
                                                     '5' => {
                                                              'key' => '_Hash',
                                                              'type' => '18643'
                                                            },
                                                     '6' => {
                                                              'key' => '_RangeHash',
                                                              'type' => '27256'
                                                            },
                                                     '7' => {
                                                              'key' => '_Unused',
                                                              'type' => '27356'
                                                            },
                                                     '8' => {
                                                              'key' => '_RehashPolicy',
                                                              'type' => '27365'
                                                            },
                                                     '9' => {
                                                              'key' => '_Traits',
                                                              'type' => '27756'
                                                            }
                                                   },
                                       'Type' => 'Struct'
                                     },
                          '29581' => {
                                       'Base' => {
                                                   '27132' => {
                                                                'pos' => '0'
                                                              },
                                                   '28585' => {
                                                                'pos' => '1'
                                                              }
                                                 },
                                       'Copied' => 1,
                                       'Header' => undef,
                                       'Line' => '277',
                                       'Name' => 'struct std::__detail::_Hash_node<std::pair<std::basic_string_view<char>const, std::function<swoc::_1_3_5::BufferWriter&(swoc::_1_3_5::BufferWriter&, struct swoc::_1_3_5::bwf::Spec const&)> >, true>',
                                       'NameSpace' => 'std::__detail',
                                       'PrivateABI' => 1,
                                       'Size' => '64',
                                       'TParam' => {
                                                     '0' => {
                                                              'key' => '_Value',
                                                              'type' => '41868'
                                                            },
                                                     '1' => {
                                                              'key' => '_Cache_hash_code',
                                                              'type' => '61241',
                                                              'val' => '1'
                                                            }
                                                   },
                                       'Type' => 'Struct'
                                     },
                          '29662' => {
                                       'Base' => {
                                                   '42316' => {
                                                                'access' => 'private',
                                                                'pos' => '0'
                                                              }
                                                 },
                                       'Header' => undef,
                                       'Line' => '1124',
                                       'Name' => 'struct std::__detail::_Hashtable_ebo_helper<0, std::allocator<std::__detail::_Hash_node<std::pair<const std::basic_string_view<char, std::char_traits<char> >, std::function<swoc::_1_3_5::BufferWriter&(swoc::_1_3_5::BufferWriter&, swoc::_1_3_5::bwf::Spec const&)> >, true> >, true>',
                                       'NameSpace' => 'std::__detail',
                                       'PrivateABI' => 1,
                                       'Size' => '1',
                                       'TParam' => {
                                                     '0' => {
                                                              'key' => '_Nm',
                                                              'type' => '13428',
                                                              'val' => '0'
                                                            },
                                                     '1' => {
                                                              'key' => '_Tp',
                                                              'type' => '42316'
                                                            },
                                                     '2' => {
                                                              'key' => '__use_ebo',
                                                              'type' => '61241',
                                                              'val' => '1'
                                                            }
                                                   },
                                       'Type' => 'Struct'
                                     },
                          '29836' => {
                                       'Copied' => 1,
                                       'Header' => undef,
                                       'Line' => '230',
                                       'Memb' => {
                                                   '0' => {
                                                            'name' => '_M_storage',
                                                            'offset' => '0',
                                                            'type' => '60420'
                                                          }
                                                 },
                                       'Name' => 'struct std::__detail::_Hash_node_value_base<std::pair<std::basic_string_view<char>const, std::function<swoc::_1_3_5::BufferWriter&(swoc::_1_3_5::BufferWriter&, struct swoc::_1_3_5::bwf::Spec const&)> > >',
                                       'NameSpace' => 'std::__detail',
                                       'PrivateABI' => 1,
                                       'Size' => '48',
                                       'TParam' => {
                                                     '0' => {
                                                              'key' => '_Value',
                                                              'type' => '41868'
                                                            }
                                                   },
                                       'Type' => 'Struct'
                                     },
                          '29996' => {
                                       'Base' => {
                                                   '29662' => {
                                                                'access' => 'private',
                                                                'pos' => '0'
                                                              }
                                                 },
                                       'Header' => undef,
                                       'Line' => '1802',
                                       'Name' => 'struct std::__detail::_Hashtable_alloc<std::allocator<std::__detail::_Hash_node<std::pair<const std::basic_string_view<char, std::char_traits<char> >, std::function<swoc::_1_3_5::BufferWriter&(swoc::_1_3_5::BufferWriter&, swoc::_1_3_5::bwf::Spec const&)> >, true> > >',
                                       'NameSpace' => 'std::__detail',
                                       'PrivateABI' => 1,
                                       'Size' => '1',
                                       'TParam' => {
                                                     '0' => {
                                                              'key' => '_NodeAlloc',
                                                              'type' => '42316'
                                                            }
                                                   },
                                       'Type' => 'Struct'
                                     },
                          '301435' => {
                                        'Copied' => 1,
                                        'Header' => undef,
                                        'Line' => '49',
                                        'Name' => 'struct std::__array_traits<unsigned long, 2ul>',
                                        'NameSpace' => 'std',
                                        'PrivateABI' => 1,
                                        'Size' => '1',
                                        'TParam' => {
                                                      '0' => {
                                                               'key' => '_Tp',
                                                               'type' => '13409'
                                                             },
                                                      '1' => {
                                                               'key' => '_Nm',
                                                               'type' => '13409',
                                                               'val' => '2'
                                                             }
                                                    },
                                        'Type' => 'Struct'
                                      },
                          '301479' => {
                                        'BaseType' => '366793',
                                        'Header' => undef,
                                        'Line' => '51',
                                        'Name' => 'std::__array_traits<unsigned long, 2ul>::_Type',
                                        'NameSpace' => 'std::__array_traits<unsigned long, 2ul>',
                                        'PrivateABI' => 1,
                                        'Size' => '16',
                                        'Type' => 'Typedef'
                                      },
                          '301537' => {
                                        'Copied' => 1,
                                        'Header' => undef,
                                        'Line' => '95',
                                        'Memb' => {
                                                    '0' => {
                                                             'name' => '_M_elems',
                                                             'offset' => '0',
                                                             'type' => '301479'
                                                           }
                                                  },
                                        'Name' => 'struct std::array<unsigned long, 2ul>',
                                        'NameSpace' => 'std',
                                        'PrivateABI' => 1,
                                        'Size' => '16',
                                        'TParam' => {
                                                      '0' => {
                                                               'key' => '_Tp',
                                                               'type' => '13409'
                                                             },
                                                      '1' => {
                                                               'key' => '_Nm',
                                                               'type' => '13409',
                                                               'val' => '2'
                                                             }
                                                    },
                                        'Type' => 'Struct'
                                      },
                          '302547' => {
                                        'Copied' => 1,
                                        'Header' => undef,
                                        'Line' => '49',
                                        'Name' => 'struct std::__array_traits<unsigned short, 8ul>',
                                        'NameSpace' => 'std',
                                        'PrivateABI' => 1,
                                        'Size' => '1',
                                        'TParam' => {
                                                      '0' => {
                                                               'key' => '_Tp',
                                                               'type' => '13421'
                                                             },
                                                      '1' => {
                                                               'key' => '_Nm',
                                                               'type' => '13409',
                                                               'val' => '8'
                                                             }
                                                    },
                                        'Type' => 'Struct'
                                      },
                          '302591' => {
                                        'BaseType' => '366869',
                                        'Header' => undef,
                                        'Line' => '51',
                                        'Name' => 'std::__array_traits<unsigned short, 8ul>::_Type',
                                        'NameSpace' => 'std::__array_traits<unsigned short, 8ul>',
                                        'PrivateABI' => 1,
                                        'Size' => '16',
                                        'Type' => 'Typedef'
                                      },
                          '302649' => {
                                        'Copied' => 1,
                                        'Header' => undef,
                                        'Line' => '95',
                                        'Memb' => {
                                                    '0' => {
                                                             'name' => '_M_elems',
                                                             'offset' => '0',
                                                             'type' => '302591'
                                                           }
                                                  },
                                        'Name' => 'struct std::array<unsigned short, 8ul>',
                                        'NameSpace' => 'std',
                                        'PrivateABI' => 1,
                                        'Size' => '16',
                                        'TParam' => {
                                                      '0' => {
                                                               'key' => '_Tp',
                                                               'type' => '13421'
                                                             },
                                                      '1' => {
                                                               'key' => '_Nm',
                                                               'type' => '13409',
                                                               'val' => '8'
                                                             }
                                                    },
                                        'Type' => 'Struct'
                                      },
                          '30311' => {
                                       'BaseType' => '66571',
                                       'Header' => undef,
                                       'Line' => '1821',
                                       'Name' => 'std::__detail::_Hashtable_alloc<std::allocator<std::__detail::_Hash_node<std::pair<const std::basic_string_view<char, std::char_traits<char> >, std::function<swoc::_1_3_5::BufferWriter&(swoc::_1_3_5::BufferWriter&, swoc::_1_3_5::bwf::Spec const&)> >, true> > >::__buckets_ptr',
                                       'NameSpace' => 'std::__detail::_Hashtable_alloc<std::allocator<std::__detail::_Hash_node<std::pair<const std::basic_string_view<char, std::char_traits<char> >, std::function<swoc::_1_3_5::BufferWriter&(swoc::_1_3_5::BufferWriter&, swoc::_1_3_5::bwf::Spec const&)> >, true> > >',
                                       'PrivateABI' => 1,
                                       'Size' => '8',
                                       'Type' => 'Typedef'
                                     },
                          '30324' => {
                                       'BaseType' => '66576',
                                       'Header' => undef,
                                       'Line' => '1817',
                                       'Name' => 'std::__detail::_Hashtable_alloc<std::allocator<std::__detail::_Hash_node<std::pair<const std::basic_string_view<char, std::char_traits<char> >, std::function<swoc::_1_3_5::BufferWriter&(swoc::_1_3_5::BufferWriter&, swoc::_1_3_5::bwf::Spec const&)> >, true> > >::__node_base_ptr',
                                       'NameSpace' => 'std::__detail::_Hashtable_alloc<std::allocator<std::__detail::_Hash_node<std::pair<const std::basic_string_view<char, std::char_traits<char> >, std::function<swoc::_1_3_5::BufferWriter&(swoc::_1_3_5::BufferWriter&, swoc::_1_3_5::bwf::Spec const&)> >, true> > >',
                                       'PrivateABI' => 1,
                                       'Size' => '8',
                                       'Type' => 'Typedef'
                                     },
                          '30337' => {
                                       'BaseType' => '27132',
                                       'Header' => undef,
                                       'Line' => '1816',
                                       'Name' => 'std::__detail::_Hashtable_alloc<std::allocator<std::__detail::_Hash_node<std::pair<const std::basic_string_view<char, std::char_traits<char> >, std::function<swoc::_1_3_5::BufferWriter&(swoc::_1_3_5::BufferWriter&, swoc::_1_3_5::bwf::Spec const&)> >, true> > >::__node_base',
                                       'NameSpace' => 'std::__detail::_Hashtable_alloc<std::allocator<std::__detail::_Hash_node<std::pair<const std::basic_string_view<char, std::char_traits<char> >, std::function<swoc::_1_3_5::BufferWriter&(swoc::_1_3_5::BufferWriter&, swoc::_1_3_5::bwf::Spec const&)> >, true> > >',
                                       'PrivateABI' => 1,
                                       'Size' => '8',
                                       'Type' => 'Typedef'
                                     },
                          '303659' => {
                                        'Copied' => 1,
                                        'Header' => undef,
                                        'Line' => '49',
                                        'Name' => 'struct std::__array_traits<unsigned char, 16ul>',
                                        'NameSpace' => 'std',
                                        'PrivateABI' => 1,
                                        'Size' => '1',
                                        'TParam' => {
                                                      '0' => {
                                                               'key' => '_Tp',
                                                               'type' => '61263'
                                                             },
                                                      '1' => {
                                                               'key' => '_Nm',
                                                               'type' => '13409',
                                                               'val' => '16'
                                                             }
                                                    },
                                        'Type' => 'Struct'
                                      },
                          '303703' => {
                                        'BaseType' => '366935',
                                        'Header' => undef,
                                        'Line' => '51',
                                        'Name' => 'std::__array_traits<unsigned char, 16ul>::_Type',
                                        'NameSpace' => 'std::__array_traits<unsigned char, 16ul>',
                                        'PrivateABI' => 1,
                                        'Size' => '16',
                                        'Type' => 'Typedef'
                                      },
                          '303761' => {
                                        'Copied' => 1,
                                        'Header' => undef,
                                        'Line' => '95',
                                        'Memb' => {
                                                    '0' => {
                                                             'name' => '_M_elems',
                                                             'offset' => '0',
                                                             'type' => '303703'
                                                           }
                                                  },
                                        'Name' => 'struct std::array<unsigned char, 16ul>',
                                        'NameSpace' => 'std',
                                        'PrivateABI' => 1,
                                        'Size' => '16',
                                        'TParam' => {
                                                      '0' => {
                                                               'key' => '_Tp',
                                                               'type' => '61263'
                                                             },
                                                      '1' => {
                                                               'key' => '_Nm',
                                                               'type' => '13409',
                                                               'val' => '16'
                                                             }
                                                    },
                                        'Type' => 'Struct'
                                      },
                          '30480' => {
                                       'Copied' => 1,
                                       'Header' => undef,
                                       'Line' => '789',
                                       'Name' => 'struct std::__detail::_Insert_base<std::basic_string_view<char>, std::pair<std::basic_string_view<char>const, std::function<swoc::_1_3_5::BufferWriter&(swoc::_1_3_5::BufferWriter&, struct swoc::_1_3_5::bwf::Spec const&)> >, std::allocator<std::pair<const std::basic_string_view<char, std::char_traits<char> >, std::function<swoc::_1_3_5::BufferWriter&(swoc::_1_3_5::BufferWriter&, swoc::_1_3_5::bwf::Spec const&)> > >, std::__detail::_Select1st, std::equal_to<std::basic_string_view<char> >, std::hash<std::basic_string_view<char> >, std::__detail::_Mod_range_hashing, std::__detail::_Default_ranged_hash, std::__detail::_Prime_rehash_policy, std::__detail::_Hashtable_traits<true, false, true> >',
                                       'NameSpace' => 'std::__detail',
                                       'PrivateABI' => 1,
                                       'Size' => '1',
                                       'TParam' => {
                                                     '0' => {
                                                              'key' => '_Key',
                                                              'type' => '16238'
                                                            },
                                                     '1' => {
                                                              'key' => '_Value',
                                                              'type' => '41868'
                                                            },
                                                     '2' => {
                                                              'key' => '_Alloc',
                                                              'type' => '42135'
                                                            },
                                                     '3' => {
                                                              'key' => '_ExtractKey',
                                                              'type' => '27072'
                                                            },
                                                     '4' => {
                                                              'key' => '_Equal',
                                                              'type' => '42551'
                                                            },
                                                     '5' => {
                                                              'key' => '_Hash',
                                                              'type' => '18643'
                                                            },
                                                     '6' => {
                                                              'key' => '_RangeHash',
                                                              'type' => '27256'
                                                            },
                                                     '7' => {
                                                              'key' => '_Unused',
                                                              'type' => '27356'
                                                            },
                                                     '8' => {
                                                              'key' => '_RehashPolicy',
                                                              'type' => '27365'
                                                            },
                                                     '9' => {
                                                              'key' => '_Traits',
                                                              'type' => '27756'
                                                            }
                                                   },
                                       'Type' => 'Struct'
                                     },
                          '31410' => {
                                       'Base' => {
                                                   '30480' => {
                                                                'pos' => '0'
                                                              }
                                                 },
                                       'Header' => undef,
                                       'Line' => '1004',
                                       'Name' => 'struct std::__detail::_Insert<std::basic_string_view<char>, std::pair<std::basic_string_view<char>const, std::function<swoc::_1_3_5::BufferWriter&(swoc::_1_3_5::BufferWriter&, struct swoc::_1_3_5::bwf::Spec const&)> >, std::allocator<std::pair<const std::basic_string_view<char, std::char_traits<char> >, std::function<swoc::_1_3_5::BufferWriter&(swoc::_1_3_5::BufferWriter&, swoc::_1_3_5::bwf::Spec const&)> > >, std::__detail::_Select1st, std::equal_to<std::basic_string_view<char> >, std::hash<std::basic_string_view<char> >, std::__detail::_Mod_range_hashing, std::__detail::_Default_ranged_hash, std::__detail::_Prime_rehash_policy, std::__detail::_Hashtable_traits<true, false, true>, false>',
                                       'NameSpace' => 'std::__detail',
                                       'PrivateABI' => 1,
                                       'Size' => '1',
                                       'TParam' => {
                                                     '0' => {
                                                              'key' => '_Key',
                                                              'type' => '16238'
                                                            },
                                                     '1' => {
                                                              'key' => '_Value',
                                                              'type' => '41868'
                                                            },
                                                     '10' => {
                                                               'key' => '_Constant_iterators',
                                                               'type' => '61241',
                                                               'val' => '0'
                                                             },
                                                     '2' => {
                                                              'key' => '_Alloc',
                                                              'type' => '42135'
                                                            },
                                                     '3' => {
                                                              'key' => '_ExtractKey',
                                                              'type' => '27072'
                                                            },
                                                     '4' => {
                                                              'key' => '_Equal',
                                                              'type' => '42551'
                                                            },
                                                     '5' => {
                                                              'key' => '_Hash',
                                                              'type' => '18643'
                                                            },
                                                     '6' => {
                                                              'key' => '_RangeHash',
                                                              'type' => '27256'
                                                            },
                                                     '7' => {
                                                              'key' => '_Unused',
                                                              'type' => '27356'
                                                            },
                                                     '8' => {
                                                              'key' => '_RehashPolicy',
                                                              'type' => '27365'
                                                            },
                                                     '9' => {
                                                              'key' => '_Traits',
                                                              'type' => '27756'
                                                            }
                                                   },
                                       'Type' => 'Struct'
                                     },
                          '31584' => {
                                       'Copied' => 1,
                                       'Header' => undef,
                                       'Line' => '1082',
                                       'Name' => 'struct std::__detail::_Rehash_base<std::basic_string_view<char>, std::pair<std::basic_string_view<char>const, std::function<swoc::_1_3_5::BufferWriter&(swoc::_1_3_5::BufferWriter&, struct swoc::_1_3_5::bwf::Spec const&)> >, std::allocator<std::pair<const std::basic_string_view<char, std::char_traits<char> >, std::function<swoc::_1_3_5::BufferWriter&(swoc::_1_3_5::BufferWriter&, swoc::_1_3_5::bwf::Spec const&)> > >, std::__detail::_Select1st, std::equal_to<std::basic_string_view<char> >, std::hash<std::basic_string_view<char> >, std::__detail::_Mod_range_hashing, std::__detail::_Default_ranged_hash, std::__detail::_Prime_rehash_policy, std::__detail::_Hashtable_traits<true, false, true> >',
                                       'NameSpace' => 'std::__detail',
                                       'PrivateABI' => 1,
                                       'Size' => '1',
                                       'TParam' => {
                                                     '0' => {
                                                              'key' => '_Key',
                                                              'type' => '16238'
                                                            },
                                                     '1' => {
                                                              'key' => '_Value',
                                                              'type' => '41868'
                                                            },
                                                     '2' => {
                                                              'key' => '_Alloc',
                                                              'type' => '42135'
                                                            },
                                                     '3' => {
                                                              'key' => '_ExtractKey',
                                                              'type' => '27072'
                                                            },
                                                     '4' => {
                                                              'key' => '_Equal',
                                                              'type' => '42551'
                                                            },
                                                     '5' => {
                                                              'key' => '_Hash',
                                                              'type' => '18643'
                                                            },
                                                     '6' => {
                                                              'key' => '_RangeHash',
                                                              'type' => '27256'
                                                            },
                                                     '7' => {
                                                              'key' => '_Unused',
                                                              'type' => '27356'
                                                            },
                                                     '8' => {
                                                              'key' => '_RehashPolicy',
                                                              'type' => '27365'
                                                            },
                                                     '9' => {
                                                              'key' => '_Traits',
                                                              'type' => '27756'
                                                            }
                                                   },
                                       'Type' => 'Struct'
                                     },
                          '31789' => {
                                       'Copied' => 1,
                                       'Header' => undef,
                                       'Line' => '1673',
                                       'Name' => 'struct std::__detail::_Equality<std::basic_string_view<char>, std::pair<std::basic_string_view<char>const, std::function<swoc::_1_3_5::BufferWriter&(swoc::_1_3_5::BufferWriter&, struct swoc::_1_3_5::bwf::Spec const&)> >, std::allocator<std::pair<const std::basic_string_view<char, std::char_traits<char> >, std::function<swoc::_1_3_5::BufferWriter&(swoc::_1_3_5::BufferWriter&, swoc::_1_3_5::bwf::Spec const&)> > >, std::__detail::_Select1st, std::equal_to<std::basic_string_view<char> >, std::hash<std::basic_string_view<char> >, std::__detail::_Mod_range_hashing, std::__detail::_Default_ranged_hash, std::__detail::_Prime_rehash_policy, std::__detail::_Hashtable_traits<true, false, true>, true>',
                                       'NameSpace' => 'std::__detail',
                                       'PrivateABI' => 1,
                                       'Size' => '1',
                                       'TParam' => {
                                                     '0' => {
                                                              'key' => '_Key',
                                                              'type' => '16238'
                                                            },
                                                     '1' => {
                                                              'key' => '_Value',
                                                              'type' => '41868'
                                                            },
                                                     '10' => {
                                                               'key' => '_Unique_keys',
                                                               'type' => '61241',
                                                               'val' => '1'
                                                             },
                                                     '2' => {
                                                              'key' => '_Alloc',
                                                              'type' => '42135'
                                                            },
                                                     '3' => {
                                                              'key' => '_ExtractKey',
                                                              'type' => '27072'
                                                            },
                                                     '4' => {
                                                              'key' => '_Equal',
                                                              'type' => '42551'
                                                            },
                                                     '5' => {
                                                              'key' => '_Hash',
                                                              'type' => '18643'
                                                            },
                                                     '6' => {
                                                              'key' => '_RangeHash',
                                                              'type' => '27256'
                                                            },
                                                     '7' => {
                                                              'key' => '_Unused',
                                                              'type' => '27356'
                                                            },
                                                     '8' => {
                                                              'key' => '_RehashPolicy',
                                                              'type' => '27365'
                                                            },
                                                     '9' => {
                                                              'key' => '_Traits',
                                                              'type' => '27756'
                                                            }
                                                   },
                                       'Type' => 'Struct'
                                     },
                          '33059' => {
                                       'Header' => undef,
                                       'Line' => '53',
                                       'Name' => 'struct std::_Enable_default_constructor<true, std::__detail::_Hash_node_base>',
                                       'NameSpace' => 'std',
                                       'PrivateABI' => 1,
                                       'Size' => '1',
                                       'TParam' => {
                                                     '0' => {
                                                              'key' => '_Switch',
                                                              'type' => '61241',
                                                              'val' => '1'
                                                            },
                                                     '1' => {
                                                              'key' => '_Tag',
                                                              'type' => '27132'
                                                            }
                                                   },
                                       'Type' => 'Struct'
                                     },
                          '33284' => {
                                       'Header' => undef,
                                       'Line' => '75',
                                       'Memb' => {
                                                   '0' => {
                                                            'name' => '_M_object',
                                                            'offset' => '0',
                                                            'type' => '53794'
                                                          },
                                                   '1' => {
                                                            'name' => '_M_const_object',
                                                            'offset' => '0',
                                                            'type' => '53751'
                                                          },
                                                   '2' => {
                                                            'name' => '_M_function_pointer',
                                                            'offset' => '0',
                                                            'type' => '62740'
                                                          },
                                                   '3' => {
                                                            'name' => '_M_member_pointer',
                                                            'offset' => '0',
                                                            'type' => '64795'
                                                          }
                                                 },
                                       'Name' => 'union std::_Nocopy_types',
                                       'NameSpace' => 'std',
                                       'PrivateABI' => 1,
                                       'Size' => '16',
                                       'Type' => 'Union'
                                     },
                          '33345' => {
                                       'Copied' => 1,
                                       'Name' => 'std::_Undefined_class',
                                       'NameSpace' => 'std',
                                       'PrivateABI' => 1,
                                       'Type' => 'Class'
                                     },
                          '33350' => {
                                       'Header' => undef,
                                       'Line' => '83',
                                       'Memb' => {
                                                   '0' => {
                                                            'name' => '_M_unused',
                                                            'offset' => '0',
                                                            'type' => '33284'
                                                          },
                                                   '1' => {
                                                            'name' => '_M_pod_data',
                                                            'offset' => '0',
                                                            'type' => '64304'
                                                          }
                                                 },
                                       'Name' => 'union std::_Any_data',
                                       'NameSpace' => 'std',
                                       'PrivateABI' => 1,
                                       'Size' => '16',
                                       'Type' => 'Union'
                                     },
                          '33447' => {
                                       'BaseType' => '33350',
                                       'Name' => 'union std::_Any_data const',
                                       'Size' => '16',
                                       'Type' => 'Const'
                                     },
                          '33452' => {
                                       'Header' => undef,
                                       'Line' => '102',
                                       'Memb' => {
                                                   '0' => {
                                                            'name' => '__get_type_info',
                                                            'value' => '0'
                                                          },
                                                   '1' => {
                                                            'name' => '__get_functor_ptr',
                                                            'value' => '1'
                                                          },
                                                   '2' => {
                                                            'name' => '__clone_functor',
                                                            'value' => '2'
                                                          },
                                                   '3' => {
                                                            'name' => '__destroy_functor',
                                                            'value' => '3'
                                                          }
                                                 },
                                       'Name' => 'enum std::_Manager_operation',
                                       'NameSpace' => 'std',
                                       'PrivateABI' => 1,
                                       'Size' => '4',
                                       'Type' => 'Enum'
                                     },
                          '33493' => {
                                       'Header' => undef,
                                       'Line' => '114',
                                       'Memb' => {
                                                   '0' => {
                                                            'name' => '_M_functor',
                                                            'offset' => '0',
                                                            'type' => '33350'
                                                          },
                                                   '1' => {
                                                            'name' => '_M_manager',
                                                            'offset' => '22',
                                                            'type' => '33642'
                                                          }
                                                 },
                                       'Name' => 'std::_Function_base',
                                       'NameSpace' => 'std',
                                       'PrivateABI' => 1,
                                       'Size' => '24',
                                       'Type' => 'Class'
                                     },
                          '33642' => {
                                       'BaseType' => '64835',
                                       'Header' => undef,
                                       'Line' => '249',
                                       'Name' => 'std::_Function_base::_Manager_type',
                                       'NameSpace' => 'std::_Function_base',
                                       'PrivateABI' => 1,
                                       'Size' => '8',
                                       'Type' => 'Typedef'
                                     },
                          '33708' => {
                                       'Header' => undef,
                                       'Line' => '2089',
                                       'Name' => 'anon-struct',
                                       'PrivateABI' => 1,
                                       'Size' => '8',
                                       'Type' => 'Struct'
                                     },
                          '343096' => {
                                        'Header' => undef,
                                        'Line' => '562',
                                        'Memb' => {
                                                    '0' => {
                                                             'access' => 'protected',
                                                             'name' => '_addr',
                                                             'offset' => '0',
                                                             'type' => '343110'
                                                           },
                                                    '1' => {
                                                             'access' => 'protected',
                                                             'name' => '_family',
                                                             'offset' => '22',
                                                             'type' => '277266'
                                                           }
                                                  },
                                        'Name' => 'swoc::_1_3_5::IPAddr',
                                        'NameSpace' => 'swoc::_1_3_5',
                                        'PrivateABI' => 1,
                                        'Size' => '24',
                                        'Type' => 'Class'
                                      },
                          '343110' => {
                                        'Header' => undef,
                                        'Line' => '697',
                                        'Memb' => {
                                                    '0' => {
                                                             'name' => '_ip4',
                                                             'offset' => '0',
                                                             'type' => '344819'
                                                           },
                                                    '1' => {
                                                             'name' => '_ip6',
                                                             'offset' => '0',
                                                             'type' => '346314'
                                                           },
                                                    '2' => {
                                                             'name' => '_octet',
                                                             'offset' => '0',
                                                             'type' => '277474'
                                                           },
                                                    '3' => {
                                                             'name' => '_u64',
                                                             'offset' => '0',
                                                             'type' => '367107'
                                                           }
                                                  },
                                        'Name' => 'union swoc::_1_3_5::IPAddr::raw_addr_type',
                                        'NameSpace' => 'swoc::_1_3_5::IPAddr',
                                        'PrivateABI' => 1,
                                        'Protected' => 1,
                                        'Size' => '16',
                                        'Type' => 'Union'
                                      },
                          '344814' => {
                                        'BaseType' => '343096',
                                        'Name' => 'swoc::_1_3_5::IPAddr const',
                                        'Size' => '24',
                                        'Type' => 'Const'
                                      },
                          '344819' => {
                                        'Header' => undef,
                                        'Line' => '193',
                                        'Memb' => {
                                                    '0' => {
                                                             'access' => 'protected',
                                                             'name' => '_addr',
                                                             'offset' => '0',
                                                             'type' => '277344'
                                                           }
                                                  },
                                        'Name' => 'swoc::_1_3_5::IP4Addr',
                                        'NameSpace' => 'swoc::_1_3_5',
                                        'PrivateABI' => 1,
                                        'Size' => '4',
                                        'Type' => 'Class'
                                      },
                          '345792' => {
                                        'BaseType' => '344819',
                                        'Name' => 'swoc::_1_3_5::IP4Addr const',
                                        'Size' => '4',
                                        'Type' => 'Const'
                                      },
                          '345797' => {
                                        'Header' => undef,
                                        'Line' => '721',
                                        'Memb' => {
                                                    '0' => {
                                                             'access' => 'protected',
                                                             'name' => '_cidr',
                                                             'offset' => '0',
                                                             'type' => '345871'
                                                           }
                                                  },
                                        'Name' => 'swoc::_1_3_5::IPMask',
                                        'NameSpace' => 'swoc::_1_3_5',
                                        'PrivateABI' => 1,
                                        'Size' => '1',
                                        'Type' => 'Class'
                                      },
                          '345871' => {
                                        'BaseType' => '61684',
                                        'Header' => undef,
                                        'Line' => '728',
                                        'Name' => 'swoc::_1_3_5::IPMask::raw_type',
                                        'NameSpace' => 'swoc::_1_3_5::IPMask',
                                        'PrivateABI' => 1,
                                        'Size' => '1',
                                        'Type' => 'Typedef'
                                      },
                          '346309' => {
                                        'BaseType' => '345797',
                                        'Name' => 'swoc::_1_3_5::IPMask const',
                                        'Size' => '1',
                                        'Type' => 'Const'
                                      },
                          '346314' => {
                                        'Header' => undef,
                                        'Line' => '355',
                                        'Memb' => {
                                                    '0' => {
                                                             'access' => 'protected',
                                                             'name' => '_addr',
                                                             'offset' => '0',
                                                             'type' => '346347'
                                                           }
                                                  },
                                        'Name' => 'swoc::_1_3_5::IP6Addr',
                                        'NameSpace' => 'swoc::_1_3_5',
                                        'PrivateABI' => 1,
                                        'Size' => '16',
                                        'Type' => 'Class'
                                      },
                          '346347' => {
                                        'Header' => undef,
                                        'Line' => '533',
                                        'Memb' => {
                                                    '0' => {
                                                             'name' => '_store',
                                                             'offset' => '0',
                                                             'type' => '346396'
                                                           },
                                                    '1' => {
                                                             'name' => '_quad',
                                                             'offset' => '0',
                                                             'type' => '346410'
                                                           },
                                                    '2' => {
                                                             'name' => '_raw',
                                                             'offset' => '0',
                                                             'type' => '346424'
                                                           }
                                                  },
                                        'NameSpace' => 'swoc::_1_3_5::IP6Addr',
                                        'PrivateABI' => 1,
                                        'Protected' => 1,
                                        'Size' => '16',
                                        'Type' => 'Union'
                                      },
                          '346396' => {
                                        'BaseType' => '301537',
                                        'Header' => undef,
                                        'Line' => '395',
                                        'Name' => 'swoc::_1_3_5::IP6Addr::word_store_type',
                                        'NameSpace' => 'swoc::_1_3_5::IP6Addr',
                                        'PrivateABI' => 1,
                                        'Size' => '16',
                                        'Type' => 'Typedef'
                                      },
                          '346410' => {
                                        'BaseType' => '302649',
                                        'Header' => undef,
                                        'Line' => '375',
                                        'Name' => 'swoc::_1_3_5::IP6Addr::quad_store_type',
                                        'NameSpace' => 'swoc::_1_3_5::IP6Addr',
                                        'PrivateABI' => 1,
                                        'Size' => '16',
                                        'Type' => 'Typedef'
                                      },
                          '346424' => {
                                        'BaseType' => '303761',
                                        'Header' => undef,
                                        'Line' => '371',
                                        'Name' => 'swoc::_1_3_5::IP6Addr::raw_type',
                                        'NameSpace' => 'swoc::_1_3_5::IP6Addr',
                                        'PrivateABI' => 1,
                                        'Size' => '16',
                                        'Type' => 'Typedef'
                                      },
                          '347735' => {
                                        'BaseType' => '346314',
                                        'Name' => 'swoc::_1_3_5::IP6Addr const',
                                        'Size' => '16',
                                        'Type' => 'Const'
                                      },
                          '347740' => {
                                        'Header' => undef,
                                        'Line' => '98',
                                        'Memb' => {
                                                    '0' => {
                                                             'access' => 'protected',
                                                             'name' => '_min',
                                                             'offset' => '0',
                                                             'type' => '344819'
                                                           },
                                                    '1' => {
                                                             'access' => 'protected',
                                                             'name' => '_max',
                                                             'offset' => '4',
                                                             'type' => '344819'
                                                           }
                                                  },
                                        'Name' => 'swoc::_1_3_5::DiscreteRange<swoc::_1_3_5::IP4Addr>',
                                        'NameSpace' => 'swoc::_1_3_5',
                                        'PrivateABI' => 1,
                                        'Size' => '8',
                                        'TParam' => {
                                                      '0' => {
                                                               'key' => 'T',
                                                               'type' => '344819'
                                                             }
                                                    },
                                        'Type' => 'Class'
                                      },
                          '349043' => {
                                        'Base' => {
                                                    '347740' => {
                                                                  'pos' => '0'
                                                                }
                                                  },
                                        'Header' => undef,
                                        'Line' => '812',
                                        'Name' => 'swoc::_1_3_5::IP4Range',
                                        'NameSpace' => 'swoc::_1_3_5',
                                        'PrivateABI' => 1,
                                        'Size' => '8',
                                        'Type' => 'Class'
                                      },
                          '350018' => {
                                        'BaseType' => '349043',
                                        'Name' => 'swoc::_1_3_5::IP4Range const',
                                        'Size' => '8',
                                        'Type' => 'Const'
                                      },
                          '350023' => {
                                        'Header' => undef,
                                        'Line' => '1283',
                                        'Memb' => {
                                                    '0' => {
                                                             'access' => 'protected',
                                                             'name' => '_addr',
                                                             'offset' => '0',
                                                             'type' => '344819'
                                                           },
                                                    '1' => {
                                                             'access' => 'protected',
                                                             'name' => '_mask',
                                                             'offset' => '4',
                                                             'type' => '345797'
                                                           }
                                                  },
                                        'Name' => 'swoc::_1_3_5::IP4Net',
                                        'NameSpace' => 'swoc::_1_3_5',
                                        'PrivateABI' => 1,
                                        'Size' => '8',
                                        'Type' => 'Class'
                                      },
                          '350561' => {
                                        'BaseType' => '350023',
                                        'Name' => 'swoc::_1_3_5::IP4Net const',
                                        'Size' => '8',
                                        'Type' => 'Const'
                                      },
                          '350566' => {
                                        'Header' => undef,
                                        'Line' => '98',
                                        'Memb' => {
                                                    '0' => {
                                                             'access' => 'protected',
                                                             'name' => '_min',
                                                             'offset' => '0',
                                                             'type' => '346314'
                                                           },
                                                    '1' => {
                                                             'access' => 'protected',
                                                             'name' => '_max',
                                                             'offset' => '22',
                                                             'type' => '346314'
                                                           }
                                                  },
                                        'Name' => 'swoc::_1_3_5::DiscreteRange<swoc::_1_3_5::IP6Addr>',
                                        'NameSpace' => 'swoc::_1_3_5',
                                        'PrivateABI' => 1,
                                        'Size' => '32',
                                        'TParam' => {
                                                      '0' => {
                                                               'key' => 'T',
                                                               'type' => '346314'
                                                             }
                                                    },
                                        'Type' => 'Class'
                                      },
                          '351869' => {
                                        'Base' => {
                                                    '350566' => {
                                                                  'pos' => '0'
                                                                }
                                                  },
                                        'Header' => undef,
                                        'Line' => '954',
                                        'Name' => 'swoc::_1_3_5::IP6Range',
                                        'NameSpace' => 'swoc::_1_3_5',
                                        'PrivateABI' => 1,
                                        'Size' => '32',
                                        'Type' => 'Class'
                                      },
                          '352764' => {
                                        'BaseType' => '351869',
                                        'Name' => 'swoc::_1_3_5::IP6Range const',
                                        'Size' => '32',
                                        'Type' => 'Const'
                                      },
                          '352769' => {
                                        'Header' => undef,
                                        'Line' => '1350',
                                        'Memb' => {
                                                    '0' => {
                                                             'access' => 'protected',
                                                             'name' => '_addr',
                                                             'offset' => '0',
                                                             'type' => '346314'
                                                           },
                                                    '1' => {
                                                             'access' => 'protected',
                                                             'name' => '_mask',
                                                             'offset' => '22',
                                                             'type' => '345797'
                                                           }
                                                  },
                                        'Name' => 'swoc::_1_3_5::IP6Net',
                                        'NameSpace' => 'swoc::_1_3_5',
                                        'PrivateABI' => 1,
                                        'Size' => '24',
                                        'Type' => 'Class'
                                      },
                          '353274' => {
                                        'BaseType' => '352769',
                                        'Name' => 'swoc::_1_3_5::IP6Net const',
                                        'Size' => '24',
                                        'Type' => 'Const'
                                      },
                          '353279' => {
                                        'Header' => undef,
                                        'Line' => '1093',
                                        'Memb' => {
                                                    '0' => {
                                                             'access' => 'protected',
                                                             'name' => '_range',
                                                             'offset' => '0',
                                                             'type' => '353293'
                                                           },
                                                    '1' => {
                                                             'access' => 'protected',
                                                             'name' => '_family',
                                                             'offset' => '50',
                                                             'type' => '277266'
                                                           }
                                                  },
                                        'Name' => 'swoc::_1_3_5::IPRange',
                                        'NameSpace' => 'swoc::_1_3_5',
                                        'PrivateABI' => 1,
                                        'Size' => '40',
                                        'Type' => 'Class'
                                      },
                          '353293' => {
                                        'Header' => undef,
                                        'Line' => '1216',
                                        'Memb' => {
                                                    '0' => {
                                                             'name' => '_nil',
                                                             'offset' => '0',
                                                             'type' => '287904'
                                                           },
                                                    '1' => {
                                                             'name' => '_ip4',
                                                             'offset' => '0',
                                                             'type' => '349043'
                                                           },
                                                    '2' => {
                                                             'name' => '_ip6',
                                                             'offset' => '0',
                                                             'type' => '351869'
                                                           }
                                                  },
                                        'NameSpace' => 'swoc::_1_3_5::IPRange',
                                        'PrivateABI' => 1,
                                        'Protected' => 1,
                                        'Size' => '32',
                                        'Type' => 'Union'
                                      },
                          '354488' => {
                                        'BaseType' => '353279',
                                        'Name' => 'swoc::_1_3_5::IPRange const',
                                        'Size' => '40',
                                        'Type' => 'Const'
                                      },
                          '354493' => {
                                        'Header' => undef,
                                        'Line' => '1418',
                                        'Memb' => {
                                                    '0' => {
                                                             'access' => 'protected',
                                                             'name' => '_addr',
                                                             'offset' => '0',
                                                             'type' => '343096'
                                                           },
                                                    '1' => {
                                                             'access' => 'protected',
                                                             'name' => '_mask',
                                                             'offset' => '36',
                                                             'type' => '345797'
                                                           }
                                                  },
                                        'Name' => 'swoc::_1_3_5::IPNet',
                                        'NameSpace' => 'swoc::_1_3_5',
                                        'PrivateABI' => 1,
                                        'Size' => '32',
                                        'Type' => 'Class'
                                      },
                          '355221' => {
                                        'BaseType' => '354493',
                                        'Name' => 'swoc::_1_3_5::IPNet const',
                                        'Size' => '32',
                                        'Type' => 'Const'
                                      },
                          '366703' => {
                                        'BaseType' => '344814',
                                        'Name' => 'swoc::_1_3_5::IPAddr const&',
                                        'Size' => '8',
                                        'Type' => 'Ref'
                                      },
                          '366708' => {
                                        'BaseType' => '277323',
                                        'Name' => 'struct sockaddr const*',
                                        'Size' => '8',
                                        'Type' => 'Pointer'
                                      },
                          '366768' => {
                                        'BaseType' => '346309',
                                        'Name' => 'swoc::_1_3_5::IPMask const&',
                                        'Size' => '8',
                                        'Type' => 'Ref'
                                      },
                          '366793' => {
                                        'BaseType' => '13409',
                                        'Name' => 'unsigned long[2]',
                                        'Size' => '16',
                                        'Type' => 'Array'
                                      },
                          '366869' => {
                                        'BaseType' => '13421',
                                        'Name' => 'unsigned short[8]',
                                        'Size' => '16',
                                        'Type' => 'Array'
                                      },
                          '366935' => {
                                        'BaseType' => '61263',
                                        'Name' => 'unsigned char[16]',
                                        'Size' => '16',
                                        'Type' => 'Array'
                                      },
                          '367067' => {
                                        'BaseType' => '277469',
                                        'Name' => 'struct in6_addr const&',
                                        'Size' => '8',
                                        'Type' => 'Ref'
                                      },
                          '367107' => {
                                        'BaseType' => '61720',
                                        'Name' => 'uint64_t[2]',
                                        'Size' => '16',
                                        'Type' => 'Array'
                                      },
                          '367128' => {
                                        'BaseType' => '345792',
                                        'Name' => 'swoc::_1_3_5::IP4Addr const&',
                                        'Size' => '8',
                                        'Type' => 'Ref'
                                      },
                          '367133' => {
                                        'BaseType' => '347735',
                                        'Name' => 'swoc::_1_3_5::IP6Addr const&',
                                        'Size' => '8',
                                        'Type' => 'Ref'
                                      },
                          '367373' => {
                                        'BaseType' => '350018',
                                        'Name' => 'swoc::_1_3_5::IP4Range const&',
                                        'Size' => '8',
                                        'Type' => 'Ref'
                                      },
                          '367378' => {
                                        'BaseType' => '352764',
                                        'Name' => 'swoc::_1_3_5::IP6Range const&',
                                        'Size' => '8',
                                        'Type' => 'Ref'
                                      },
                          '37375' => {
                                       'Header' => undef,
                                       'Line' => '2028',
                                       'Name' => 'struct std::__remove_pointer_helper<swoc::_1_3_5::MemArena::Block*>',
                                       'NameSpace' => 'std',
                                       'PrivateABI' => 1,
                                       'Size' => '1',
                                       'TParam' => {
                                                     '0' => {
                                                              'key' => '_Tp',
                                                              'type' => '65735'
                                                            }
                                                   },
                                       'Type' => 'Struct'
                                     },
                          '37389' => {
                                       'BaseType' => '5672',
                                       'Header' => undef,
                                       'Line' => '2029',
                                       'Name' => 'std::__remove_pointer_helper<swoc::_1_3_5::MemArena::Block*>::type',
                                       'NameSpace' => 'std::__remove_pointer_helper<swoc::_1_3_5::MemArena::Block*>',
                                       'PrivateABI' => 1,
                                       'Size' => '32',
                                       'Type' => 'Typedef'
                                     },
                          '393674' => {
                                        'BaseType' => '355221',
                                        'Name' => 'swoc::_1_3_5::IPNet const&',
                                        'Size' => '8',
                                        'Type' => 'Ref'
                                      },
                          '394630' => {
                                        'BaseType' => '353274',
                                        'Name' => 'swoc::_1_3_5::IP6Net const&',
                                        'Size' => '8',
                                        'Type' => 'Ref'
                                      },
                          '395074' => {
                                        'BaseType' => '350561',
                                        'Name' => 'swoc::_1_3_5::IP4Net const&',
                                        'Size' => '8',
                                        'Type' => 'Ref'
                                      },
                          '395518' => {
                                        'BaseType' => '354488',
                                        'Name' => 'swoc::_1_3_5::IPRange const&',
                                        'Size' => '8',
                                        'Type' => 'Ref'
                                      },
                          '41868' => {
                                       'Base' => {
                                                   '46717' => {
                                                                'access' => 'private',
                                                                'pos' => '0'
                                                              }
                                                 },
                                       'Header' => undef,
                                       'Line' => '211',
                                       'Memb' => {
                                                   '0' => {
                                                            'name' => 'first',
                                                            'offset' => '0',
                                                            'type' => '18638'
                                                          },
                                                   '1' => {
                                                            'name' => 'second',
                                                            'offset' => '22',
                                                            'type' => '42672'
                                                          }
                                                 },
                                       'Name' => 'struct std::pair<std::basic_string_view<char>const, std::function<swoc::_1_3_5::BufferWriter&(swoc::_1_3_5::BufferWriter&, struct swoc::_1_3_5::bwf::Spec const&)> >',
                                       'NameSpace' => 'std',
                                       'PrivateABI' => 1,
                                       'Size' => '48',
                                       'TParam' => {
                                                     '0' => {
                                                              'key' => '_T1',
                                                              'type' => '18638'
                                                            },
                                                     '1' => {
                                                              'key' => '_T2',
                                                              'type' => '42672'
                                                            }
                                                   },
                                       'Type' => 'Struct'
                                     },
                          '42135' => {
                                       'Base' => {
                                                   '59589' => {
                                                                'pos' => '0'
                                                              }
                                                 },
                                       'Header' => undef,
                                       'Line' => '124',
                                       'Name' => 'std::allocator<std::pair<const std::basic_string_view<char, std::char_traits<char> >, std::function<swoc::_1_3_5::BufferWriter&(swoc::_1_3_5::BufferWriter&, swoc::_1_3_5::bwf::Spec const&)> > >',
                                       'NameSpace' => 'std',
                                       'PrivateABI' => 1,
                                       'Size' => '1',
                                       'TParam' => {
                                                     '0' => {
                                                              'name' => 'std::pair<const std::basic_string_view<char, std::char_traits<char> >, std::function<swoc::_1_3_5::BufferWriter&(swoc::_1_3_5::BufferWriter&, swoc::_1_3_5::bwf::Spec const&)> >'
                                                            }
                                                   },
                                       'Type' => 'Class'
                                     },
                          '42316' => {
                                       'Base' => {
                                                   '59984' => {
                                                                'pos' => '0'
                                                              }
                                                 },
                                       'Header' => undef,
                                       'Line' => '124',
                                       'Name' => 'std::allocator<std::__detail::_Hash_node<std::pair<const std::basic_string_view<char, std::char_traits<char> >, std::function<swoc::_1_3_5::BufferWriter&(swoc::_1_3_5::BufferWriter&, swoc::_1_3_5::bwf::Spec const&)> >, true> >',
                                       'NameSpace' => 'std',
                                       'PrivateABI' => 1,
                                       'Size' => '1',
                                       'TParam' => {
                                                     '0' => {
                                                              'name' => 'std::__detail::_Hash_node<std::pair<const std::basic_string_view<char, std::char_traits<char> >, std::function<swoc::_1_3_5::BufferWriter&(swoc::_1_3_5::BufferWriter&, swoc::_1_3_5::bwf::Spec const&)> >, true>'
                                                            }
                                                   },
                                       'Type' => 'Class'
                                     },
                          '42510' => {
                                       'Header' => undef,
                                       'Line' => '131',
                                       'Name' => 'struct std::binary_function<std::basic_string_view<char>, std::basic_string_view<char>, bool>',
                                       'NameSpace' => 'std',
                                       'PrivateABI' => 1,
                                       'Size' => '1',
                                       'TParam' => {
                                                     '0' => {
                                                              'key' => '_Arg1',
                                                              'type' => '16238'
                                                            },
                                                     '1' => {
                                                              'key' => '_Arg2',
                                                              'type' => '16238'
                                                            },
                                                     '2' => {
                                                              'key' => '_Result',
                                                              'type' => '61241'
                                                            }
                                                   },
                                       'Type' => 'Struct'
                                     },
                          '42551' => {
                                       'Base' => {
                                                   '42510' => {
                                                                'pos' => '0'
                                                              }
                                                 },
                                       'Copied' => 1,
                                       'Header' => undef,
                                       'Line' => '365',
                                       'Name' => 'struct std::equal_to<std::basic_string_view<char> >',
                                       'NameSpace' => 'std',
                                       'PrivateABI' => 1,
                                       'Size' => '1',
                                       'TParam' => {
                                                     '0' => {
                                                              'key' => '_Tp',
                                                              'type' => '16238'
                                                            }
                                                   },
                                       'Type' => 'Struct'
                                     },
                          '42672' => {
                                       'Base' => {
                                                   '33493' => {
                                                                'pos' => '1'
                                                              },
                                                   '46919' => {
                                                                'pos' => '0'
                                                              }
                                                 },
                                       'Header' => undef,
                                       'Line' => '334',
                                       'Memb' => {
                                                   '0' => {
                                                            'access' => 'private',
                                                            'name' => '_M_invoker',
                                                            'offset' => '36',
                                                            'type' => '43076'
                                                          }
                                                 },
                                       'Name' => 'std::function<swoc::_1_3_5::BufferWriter&(swoc::_1_3_5::BufferWriter&, struct swoc::_1_3_5::bwf::Spec const&)>',
                                       'NameSpace' => 'std',
                                       'PrivateABI' => 1,
                                       'Size' => '32',
                                       'TParam' => {
                                                     '0' => {
                                                              'key' => '_Signature',
                                                              'type' => '88738'
                                                            }
                                                   },
                                       'Type' => 'Class'
                                     },
                          '43076' => {
                                       'BaseType' => '66430',
                                       'Header' => undef,
                                       'Line' => '666',
                                       'Name' => 'std::function<swoc::_1_3_5::BufferWriter&(swoc::_1_3_5::BufferWriter&, struct swoc::_1_3_5::bwf::Spec const&)>::_Invoker_type',
                                       'NameSpace' => 'std::function<swoc::_1_3_5::BufferWriter&(swoc::_1_3_5::BufferWriter&, struct swoc::_1_3_5::bwf::Spec const&)>',
                                       'Private' => 1,
                                       'PrivateABI' => 1,
                                       'Size' => '8',
                                       'Type' => 'Typedef'
                                     },
                          '43146' => {
                                       'Base' => {
                                                   '28780' => {
                                                                'pos' => '0'
                                                              },
                                                   '29285' => {
                                                                'pos' => '1'
                                                              },
                                                   '29996' => {
                                                                'pos' => '5'
                                                              },
                                                   '31410' => {
                                                                'pos' => '2'
                                                              },
                                                   '31584' => {
                                                                'pos' => '3'
                                                              },
                                                   '31789' => {
                                                                'pos' => '4'
                                                              },
                                                   '33059' => {
                                                                'pos' => '6'
                                                              }
                                                 },
                                       'Header' => undef,
                                       'Line' => '180',
                                       'Memb' => {
                                                   '0' => {
                                                            'access' => 'private',
                                                            'name' => '_M_buckets',
                                                            'offset' => '0',
                                                            'type' => '43206'
                                                          },
                                                   '1' => {
                                                            'access' => 'private',
                                                            'name' => '_M_bucket_count',
                                                            'offset' => '8',
                                                            'type' => '43232'
                                                          },
                                                   '2' => {
                                                            'access' => 'private',
                                                            'name' => '_M_before_begin',
                                                            'offset' => '22',
                                                            'type' => '43260'
                                                          },
                                                   '3' => {
                                                            'access' => 'private',
                                                            'name' => '_M_element_count',
                                                            'offset' => '36',
                                                            'type' => '43232'
                                                          },
                                                   '4' => {
                                                            'access' => 'private',
                                                            'name' => '_M_rehash_policy',
                                                            'offset' => '50',
                                                            'type' => '27365'
                                                          },
                                                   '5' => {
                                                            'access' => 'private',
                                                            'name' => '_M_single_bucket',
                                                            'offset' => '72',
                                                            'type' => '43314'
                                                          }
                                                 },
                                       'Name' => 'std::_Hashtable<std::basic_string_view<char>, std::pair<std::basic_string_view<char>const, std::function<swoc::_1_3_5::BufferWriter&(swoc::_1_3_5::BufferWriter&, struct swoc::_1_3_5::bwf::Spec const&)> >, std::allocator<std::pair<const std::basic_string_view<char, std::char_traits<char> >, std::function<swoc::_1_3_5::BufferWriter&(swoc::_1_3_5::BufferWriter&, swoc::_1_3_5::bwf::Spec const&)> > >, std::__detail::_Select1st, std::equal_to<std::basic_string_view<char> >, std::hash<std::basic_string_view<char> >, std::__detail::_Mod_range_hashing, std::__detail::_Default_ranged_hash, std::__detail::_Prime_rehash_policy, std::__detail::_Hashtable_traits<true, false, true> >',
                                       'NameSpace' => 'std',
                                       'PrivateABI' => 1,
                                       'Size' => '56',
                                       'TParam' => {
                                                     '0' => {
                                                              'key' => '_Key',
                                                              'type' => '16238'
                                                            },
                                                     '1' => {
                                                              'key' => '_Value',
                                                              'type' => '41868'
                                                            },
                                                     '2' => {
                                                              'key' => '_Alloc',
                                                              'type' => '42135'
                                                            },
                                                     '3' => {
                                                              'key' => '_ExtractKey',
                                                              'type' => '27072'
                                                            },
                                                     '4' => {
                                                              'key' => '_Equal',
                                                              'type' => '42551'
                                                            },
                                                     '5' => {
                                                              'key' => '_Hash',
                                                              'type' => '18643'
                                                            },
                                                     '6' => {
                                                              'key' => '_RangeHash',
                                                              'type' => '27256'
                                                            },
                                                     '7' => {
                                                              'key' => '_Unused',
                                                              'type' => '27356'
                                                            },
                                                     '8' => {
                                                              'key' => '_RehashPolicy',
                                                              'type' => '27365'
                                                            },
                                                     '9' => {
                                                              'key' => '_Traits',
                                                              'type' => '27756'
                                                            }
                                                   },
                                       'Type' => 'Class'
                                     },
                          '43206' => {
                                       'BaseType' => '30311',
                                       'Header' => undef,
                                       'Line' => '225',
                                       'Name' => 'std::_Hashtable<std::basic_string_view<char>, std::pair<std::basic_string_view<char>const, std::function<swoc::_1_3_5::BufferWriter&(swoc::_1_3_5::BufferWriter&, struct swoc::_1_3_5::bwf::Spec const&)> >, std::allocator<std::pair<const std::basic_string_view<char, std::char_traits<char> >, std::function<swoc::_1_3_5::BufferWriter&(swoc::_1_3_5::BufferWriter&, swoc::_1_3_5::bwf::Spec const&)> > >, std::__detail::_Select1st, std::equal_to<std::basic_string_view<char> >, std::hash<std::basic_string_view<char> >, std::__detail::_Mod_range_hashing, std::__detail::_Default_ranged_hash, std::__detail::_Prime_rehash_policy, std::__detail::_Hashtable_traits<true, false, true> >::__buckets_ptr',
                                       'NameSpace' => 'std::_Hashtable<std::basic_string_view<char>, std::pair<std::basic_string_view<char>const, std::function<swoc::_1_3_5::BufferWriter&(swoc::_1_3_5::BufferWriter&, struct swoc::_1_3_5::bwf::Spec const&)> >, std::allocator<std::pair<const std::basic_string_view<char, std::char_traits<char> >, std::function<swoc::_1_3_5::BufferWriter&(swoc::_1_3_5::BufferWriter&, swoc::_1_3_5::bwf::Spec const&)> > >, std::__detail::_Select1st, std::equal_to<std::basic_string_view<char> >, std::hash<std::basic_string_view<char> >, std::__detail::_Mod_range_hashing, std::__detail::_Default_ranged_hash, std::__detail::_Prime_rehash_policy, std::__detail::_Hashtable_traits<true, false, true> >',
                                       'Private' => 1,
                                       'PrivateABI' => 1,
                                       'Size' => '8',
                                       'Type' => 'Typedef'
                                     },
                          '43232' => {
                                       'BaseType' => '29194',
                                       'Header' => undef,
                                       'Line' => '383',
                                       'Name' => 'std::_Hashtable<std::basic_string_view<char>, std::pair<std::basic_string_view<char>const, std::function<swoc::_1_3_5::BufferWriter&(swoc::_1_3_5::BufferWriter&, struct swoc::_1_3_5::bwf::Spec const&)> >, std::allocator<std::pair<const std::basic_string_view<char, std::char_traits<char> >, std::function<swoc::_1_3_5::BufferWriter&(swoc::_1_3_5::BufferWriter&, swoc::_1_3_5::bwf::Spec const&)> > >, std::__detail::_Select1st, std::equal_to<std::basic_string_view<char> >, std::hash<std::basic_string_view<char> >, std::__detail::_Mod_range_hashing, std::__detail::_Default_ranged_hash, std::__detail::_Prime_rehash_policy, std::__detail::_Hashtable_traits<true, false, true> >::size_type',
                                       'NameSpace' => 'std::_Hashtable<std::basic_string_view<char>, std::pair<std::basic_string_view<char>const, std::function<swoc::_1_3_5::BufferWriter&(swoc::_1_3_5::BufferWriter&, struct swoc::_1_3_5::bwf::Spec const&)> >, std::allocator<std::pair<const std::basic_string_view<char, std::char_traits<char> >, std::function<swoc::_1_3_5::BufferWriter&(swoc::_1_3_5::BufferWriter&, swoc::_1_3_5::bwf::Spec const&)> > >, std::__detail::_Select1st, std::equal_to<std::basic_string_view<char> >, std::hash<std::basic_string_view<char> >, std::__detail::_Mod_range_hashing, std::__detail::_Default_ranged_hash, std::__detail::_Prime_rehash_policy, std::__detail::_Hashtable_traits<true, false, true> >',
                                       'PrivateABI' => 1,
                                       'Size' => '8',
                                       'Type' => 'Typedef'
                                     },
                          '43260' => {
                                       'BaseType' => '30337',
                                       'Header' => undef,
                                       'Line' => '223',
                                       'Name' => 'std::_Hashtable<std::basic_string_view<char>, std::pair<std::basic_string_view<char>const, std::function<swoc::_1_3_5::BufferWriter&(swoc::_1_3_5::BufferWriter&, struct swoc::_1_3_5::bwf::Spec const&)> >, std::allocator<std::pair<const std::basic_string_view<char, std::char_traits<char> >, std::function<swoc::_1_3_5::BufferWriter&(swoc::_1_3_5::BufferWriter&, swoc::_1_3_5::bwf::Spec const&)> > >, std::__detail::_Select1st, std::equal_to<std::basic_string_view<char> >, std::hash<std::basic_string_view<char> >, std::__detail::_Mod_range_hashing, std::__detail::_Default_ranged_hash, std::__detail::_Prime_rehash_policy, std::__detail::_Hashtable_traits<true, false, true> >::__node_base',
                                       'NameSpace' => 'std::_Hashtable<std::basic_string_view<char>, std::pair<std::basic_string_view<char>const, std::function<swoc::_1_3_5::BufferWriter&(swoc::_1_3_5::BufferWriter&, struct swoc::_1_3_5::bwf::Spec const&)> >, std::allocator<std::pair<const std::basic_string_view<char, std::char_traits<char> >, std::function<swoc::_1_3_5::BufferWriter&(swoc::_1_3_5::BufferWriter&, swoc::_1_3_5::bwf::Spec const&)> > >, std::__detail::_Select1st, std::equal_to<std::basic_string_view<char> >, std::hash<std::basic_string_view<char> >, std::__detail::_Mod_range_hashing, std::__detail::_Default_ranged_hash, std::__detail::_Prime_rehash_policy, std::__detail::_Hashtable_traits<true, false, true> >',
                                       'Private' => 1,
                                       'PrivateABI' => 1,
                                       'Size' => '8',
                                       'Type' => 'Typedef'
                                     },
                          '43314' => {
                                       'BaseType' => '30324',
                                       'Header' => undef,
                                       'Line' => '224',
                                       'Name' => 'std::_Hashtable<std::basic_string_view<char>, std::pair<std::basic_string_view<char>const, std::function<swoc::_1_3_5::BufferWriter&(swoc::_1_3_5::BufferWriter&, struct swoc::_1_3_5::bwf::Spec const&)> >, std::allocator<std::pair<const std::basic_string_view<char, std::char_traits<char> >, std::function<swoc::_1_3_5::BufferWriter&(swoc::_1_3_5::BufferWriter&, swoc::_1_3_5::bwf::Spec const&)> > >, std::__detail::_Select1st, std::equal_to<std::basic_string_view<char> >, std::hash<std::basic_string_view<char> >, std::__detail::_Mod_range_hashing, std::__detail::_Default_ranged_hash, std::__detail::_Prime_rehash_policy, std::__detail::_Hashtable_traits<true, false, true> >::__node_base_ptr',
                                       'NameSpace' => 'std::_Hashtable<std::basic_string_view<char>, std::pair<std::basic_string_view<char>const, std::function<swoc::_1_3_5::BufferWriter&(swoc::_1_3_5::BufferWriter&, struct swoc::_1_3_5::bwf::Spec const&)> >, std::allocator<std::pair<const std::basic_string_view<char, std::char_traits<char> >, std::function<swoc::_1_3_5::BufferWriter&(swoc::_1_3_5::BufferWriter&, swoc::_1_3_5::bwf::Spec const&)> > >, std::__detail::_Select1st, std::equal_to<std::basic_string_view<char> >, std::hash<std::basic_string_view<char> >, std::__detail::_Mod_range_hashing, std::__detail::_Default_ranged_hash, std::__detail::_Prime_rehash_policy, std::__detail::_Hashtable_traits<true, false, true> >',
                                       'Private' => 1,
                                       'PrivateABI' => 1,
                                       'Size' => '8',
                                       'Type' => 'Typedef'
                                     },
                          '448472' => {
                                        'Copied' => 1,
                                        'Header' => undef,
                                        'Line' => '407',
                                        'Name' => 'std::_Optional_base_impl<swoc::_1_3_5::Errata::Severity, std::_Optional_base<swoc::_1_3_5::Errata::Severity> >',
                                        'NameSpace' => 'std',
                                        'PrivateABI' => 1,
                                        'Size' => '1',
                                        'TParam' => {
                                                      '0' => {
                                                               'key' => '_Tp',
                                                               'type' => '508674'
                                                             },
                                                      '1' => {
                                                               'key' => '_Dp',
                                                               'type' => '449448'
                                                             }
                                                    },
                                        'Type' => 'Class'
                                      },
                          '448662' => {
                                        'Header' => undef,
                                        'Line' => '107',
                                        'Memb' => {
                                                    '0' => {
                                                             'name' => '_M_payload',
                                                             'offset' => '0',
                                                             'type' => '448684'
                                                           },
                                                    '1' => {
                                                             'name' => '_M_engaged',
                                                             'offset' => '1',
                                                             'type' => '61241'
                                                           }
                                                  },
                                        'Name' => 'struct std::_Optional_payload_base<swoc::_1_3_5::Errata::Severity>',
                                        'NameSpace' => 'std',
                                        'PrivateABI' => 1,
                                        'Size' => '2',
                                        'TParam' => {
                                                      '0' => {
                                                               'key' => '_Tp',
                                                               'type' => '508674'
                                                             }
                                                    },
                                        'Type' => 'Struct'
                                      },
                          '448675' => {
                                        'Header' => undef,
                                        'Line' => '195',
                                        'Name' => 'struct std::_Optional_payload_base<swoc::_1_3_5::Errata::Severity>::_Empty_byte',
                                        'NameSpace' => 'std::_Optional_payload_base<swoc::_1_3_5::Errata::Severity>',
                                        'PrivateABI' => 1,
                                        'Size' => '1',
                                        'Type' => 'Struct'
                                      },
                          '448684' => {
                                        'Header' => undef,
                                        'Line' => '198',
                                        'Memb' => {
                                                    '0' => {
                                                             'name' => '_M_empty',
                                                             'offset' => '0',
                                                             'type' => '448675'
                                                           },
                                                    '1' => {
                                                             'name' => '_M_value',
                                                             'offset' => '0',
                                                             'type' => '508674'
                                                           }
                                                  },
                                        'Name' => 'union std::_Optional_payload_base<swoc::_1_3_5::Errata::Severity>::_Storage<swoc::_1_3_5::Errata::Severity>',
                                        'NameSpace' => 'std::_Optional_payload_base<swoc::_1_3_5::Errata::Severity>',
                                        'PrivateABI' => 1,
                                        'Size' => '1',
                                        'TParam' => {
                                                      '0' => {
                                                               'key' => '_Up',
                                                               'type' => '508674'
                                                             }
                                                    },
                                        'Type' => 'Union'
                                      },
                          '449342' => {
                                        'Base' => {
                                                    '448662' => {
                                                                  'pos' => '0'
                                                                }
                                                  },
                                        'Header' => undef,
                                        'Line' => '298',
                                        'Name' => 'struct std::_Optional_payload<swoc::_1_3_5::Errata::Severity>',
                                        'NameSpace' => 'std',
                                        'PrivateABI' => 1,
                                        'Size' => '2',
                                        'TParam' => {
                                                      '0' => {
                                                               'key' => '_Tp',
                                                               'type' => '508674'
                                                             }
                                                    },
                                        'Type' => 'Struct'
                                      },
                          '449448' => {
                                        'Base' => {
                                                    '448472' => {
                                                                  'pos' => '0'
                                                                }
                                                  },
                                        'Header' => undef,
                                        'Line' => '601',
                                        'Memb' => {
                                                    '0' => {
                                                             'name' => '_M_payload',
                                                             'offset' => '0',
                                                             'type' => '449342'
                                                           }
                                                  },
                                        'Name' => 'struct std::_Optional_base<swoc::_1_3_5::Errata::Severity>',
                                        'NameSpace' => 'std',
                                        'PrivateABI' => 1,
                                        'Size' => '2',
                                        'TParam' => {
                                                      '0' => {
                                                               'key' => '_Tp',
                                                               'type' => '508674'
                                                             }
                                                    },
                                        'Type' => 'Struct'
                                      },
                          '449710' => {
                                        'Header' => undef,
                                        'Line' => '87',
                                        'Name' => 'struct std::_Enable_copy_move<true, true, true, true, std::optional<swoc::_1_3_5::Errata::Severity> >',
                                        'NameSpace' => 'std',
                                        'PrivateABI' => 1,
                                        'Size' => '1',
                                        'TParam' => {
                                                      '0' => {
                                                               'key' => '_Copy',
                                                               'type' => '61241',
                                                               'val' => '1'
                                                             },
                                                      '1' => {
                                                               'key' => '_CopyAssignment',
                                                               'type' => '61241',
                                                               'val' => '1'
                                                             },
                                                      '2' => {
                                                               'key' => '_Move',
                                                               'type' => '61241',
                                                               'val' => '1'
                                                             },
                                                      '3' => {
                                                               'key' => '_MoveAssignment',
                                                               'type' => '61241',
                                                               'val' => '1'
                                                             },
                                                      '4' => {
                                                               'key' => '_Tag',
                                                               'type' => '449773'
                                                             }
                                                    },
                                        'Type' => 'Struct'
                                      },
                          '449773' => {
                                        'Base' => {
                                                    '449448' => {
                                                                  'pos' => '0'
                                                                },
                                                    '449710' => {
                                                                  'pos' => '1'
                                                                }
                                                  },
                                        'Header' => undef,
                                        'Line' => '662',
                                        'Name' => 'std::optional<swoc::_1_3_5::Errata::Severity>',
                                        'NameSpace' => 'std',
                                        'PrivateABI' => 1,
                                        'Size' => '2',
                                        'TParam' => {
                                                      '0' => {
                                                               'key' => '_Tp',
                                                               'type' => '508674'
                                                             }
                                                    },
                                        'Type' => 'Class'
                                      },
                          '450382' => {
                                        'Header' => undef,
                                        'Line' => '2028',
                                        'Name' => 'struct std::__remove_pointer_helper<swoc::_1_3_5::Errata::Annotation*>',
                                        'NameSpace' => 'std',
                                        'PrivateABI' => 1,
                                        'Size' => '1',
                                        'TParam' => {
                                                      '0' => {
                                                               'key' => '_Tp',
                                                               'type' => '518040'
                                                             }
                                                    },
                                        'Type' => 'Struct'
                                      },
                          '450396' => {
                                        'BaseType' => '508865',
                                        'Header' => undef,
                                        'Line' => '2029',
                                        'Name' => 'std::__remove_pointer_helper<swoc::_1_3_5::Errata::Annotation*>::type',
                                        'NameSpace' => 'std::__remove_pointer_helper<swoc::_1_3_5::Errata::Annotation*>',
                                        'PrivateABI' => 1,
                                        'Size' => '40',
                                        'Type' => 'Typedef'
                                      },
                          '46717' => {
                                       'Header' => undef,
                                       'Line' => '189',
                                       'Name' => 'std::__pair_base<std::basic_string_view<char>const, std::function<swoc::_1_3_5::BufferWriter&(swoc::_1_3_5::BufferWriter&, struct swoc::_1_3_5::bwf::Spec const&)> >',
                                       'NameSpace' => 'std',
                                       'PrivateABI' => 1,
                                       'Size' => '1',
                                       'TParam' => {
                                                     '0' => {
                                                              'key' => '_U1',
                                                              'type' => '18638'
                                                            },
                                                     '1' => {
                                                              'key' => '_U2',
                                                              'type' => '42672'
                                                            }
                                                   },
                                       'Type' => 'Class'
                                     },
                          '46878' => {
                                       'Header' => undef,
                                       'Line' => '131',
                                       'Name' => 'struct std::binary_function<swoc::_1_3_5::BufferWriter&, swoc::_1_3_5::bwf::Spec const&, swoc::_1_3_5::BufferWriter&>',
                                       'NameSpace' => 'std',
                                       'PrivateABI' => 1,
                                       'Size' => '1',
                                       'TParam' => {
                                                     '0' => {
                                                              'key' => '_Arg1',
                                                              'type' => '65855'
                                                            },
                                                     '1' => {
                                                              'key' => '_Arg2',
                                                              'type' => '65945'
                                                            },
                                                     '2' => {
                                                              'key' => '_Result',
                                                              'type' => '65855'
                                                            }
                                                   },
                                       'Type' => 'Struct'
                                     },
                          '46919' => {
                                       'Base' => {
                                                   '46878' => {
                                                                'pos' => '0'
                                                              }
                                                 },
                                       'Header' => undef,
                                       'Line' => '64',
                                       'Name' => 'struct std::_Maybe_unary_or_binary_function<swoc::_1_3_5::BufferWriter&, swoc::_1_3_5::BufferWriter&>',
                                       'NameSpace' => 'std',
                                       'PrivateABI' => 1,
                                       'Size' => '1',
                                       'TParam' => {
                                                     '0' => {
                                                              'key' => '_Res',
                                                              'type' => '65855'
                                                            },
                                                     '1' => {
                                                              'key' => undef,
                                                              'type' => '65855'
                                                            }
                                                   },
                                       'Type' => 'Struct'
                                     },
                          '47020' => {
                                       'Header' => undef,
                                       'Line' => '2084',
                                       'Name' => 'struct std::aligned_storage<48ul, 8ul>',
                                       'NameSpace' => 'std',
                                       'PrivateABI' => 1,
                                       'Size' => '1',
                                       'TParam' => {
                                                     '0' => {
                                                              'key' => '_Len',
                                                              'type' => '13409',
                                                              'val' => '48'
                                                            },
                                                     '1' => {
                                                              'key' => '_Align',
                                                              'type' => '13409',
                                                              'val' => '8'
                                                            }
                                                   },
                                       'Type' => 'Struct'
                                     },
                          '47034' => {
                                       'Header' => undef,
                                       'Line' => '2086',
                                       'Memb' => {
                                                   '0' => {
                                                            'name' => '__data',
                                                            'offset' => '0',
                                                            'type' => '66465'
                                                          },
                                                   '1' => {
                                                            'name' => '__align',
                                                            'offset' => '0',
                                                            'type' => '33708'
                                                          }
                                                 },
                                       'Name' => 'union std::aligned_storage<48ul, 8ul>::type',
                                       'NameSpace' => 'std::aligned_storage<48ul, 8ul>',
                                       'PrivateABI' => 1,
                                       'Size' => '48',
                                       'Type' => 'Union'
                                     },
                          '47481' => {
                                       'Header' => undef,
                                       'Line' => '102',
                                       'Memb' => {
                                                   '0' => {
                                                            'access' => 'private',
                                                            'name' => '_M_h',
                                                            'offset' => '0',
                                                            'type' => '47494'
                                                          }
                                                 },
                                       'Name' => 'std::unordered_map<std::basic_string_view<char>, std::function<swoc::_1_3_5::BufferWriter&(swoc::_1_3_5::BufferWriter&, struct swoc::_1_3_5::bwf::Spec const&)>, std::hash<std::basic_string_view<char> >, std::equal_to<std::basic_string_view<char> >, std::allocator<std::pair<const std::basic_string_view<char, std::char_traits<char> >, std::function<swoc::_1_3_5::BufferWriter&(swoc::_1_3_5::BufferWriter&, swoc::_1_3_5::bwf::Spec const&)> > > >',
                                       'NameSpace' => 'std',
                                       'PrivateABI' => 1,
                                       'Size' => '56',
                                       'TParam' => {
                                                     '0' => {
                                                              'key' => '_Key',
                                                              'type' => '16238'
                                                            },
                                                     '1' => {
                                                              'key' => '_Tp',
                                                              'type' => '42672'
                                                            },
                                                     '2' => {
                                                              'key' => '_Hash',
                                                              'type' => '18643'
                                                            },
                                                     '3' => {
                                                              'key' => '_Pred',
                                                              'type' => '42551'
                                                            },
                                                     '4' => {
                                                              'key' => '_Alloc',
                                                              'type' => '42135'
                                                            }
                                                   },
                                       'Type' => 'Class'
                                     },
                          '47494' => {
                                       'BaseType' => '50162',
                                       'Header' => undef,
                                       'Line' => '104',
                                       'Name' => 'std::unordered_map<std::basic_string_view<char>, std::function<swoc::_1_3_5::BufferWriter&(swoc::_1_3_5::BufferWriter&, struct swoc::_1_3_5::bwf::Spec const&)>, std::hash<std::basic_string_view<char> >, std::equal_to<std::basic_string_view<char> >, std::allocator<std::pair<const std::basic_string_view<char, std::char_traits<char> >, std::function<swoc::_1_3_5::BufferWriter&(swoc::_1_3_5::BufferWriter&, swoc::_1_3_5::bwf::Spec const&)> > > >::_Hashtable',
                                       'NameSpace' => 'std::unordered_map<std::basic_string_view<char>, std::function<swoc::_1_3_5::BufferWriter&(swoc::_1_3_5::BufferWriter&, struct swoc::_1_3_5::bwf::Spec const&)>, std::hash<std::basic_string_view<char> >, std::equal_to<std::basic_string_view<char> >, std::allocator<std::pair<const std::basic_string_view<char, std::char_traits<char> >, std::function<swoc::_1_3_5::BufferWriter&(swoc::_1_3_5::BufferWriter&, swoc::_1_3_5::bwf::Spec const&)> > > >',
                                       'Private' => 1,
                                       'PrivateABI' => 1,
                                       'Size' => '56',
                                       'Type' => 'Typedef'
                                     },
                          '50162' => {
                                       'BaseType' => '43146',
                                       'Header' => undef,
                                       'Line' => '48',
                                       'Name' => 'std::__umap_hashtable',
                                       'NameSpace' => 'std',
                                       'PrivateABI' => 1,
                                       'Size' => '56',
                                       'Type' => 'Typedef'
                                     },
                          '5074' => {
                                      'BaseType' => '2252',
                                      'Name' => 'swoc::_1_3_5::TextView const',
                                      'Size' => '16',
                                      'Type' => 'Const'
                                    },
                          '508661' => {
                                        'Header' => undef,
                                        'Line' => '58',
                                        'Memb' => {
                                                    '0' => {
                                                             'access' => 'protected',
                                                             'name' => '_data',
                                                             'offset' => '0',
                                                             'type' => '518120'
                                                           }
                                                  },
                                        'Name' => 'swoc::_1_3_5::Errata',
                                        'NameSpace' => 'swoc::_1_3_5',
                                        'PrivateABI' => 1,
                                        'Size' => '8',
                                        'Type' => 'Class'
                                      },
                          '508674' => {
                                        'Header' => undef,
                                        'Line' => '63',
                                        'Memb' => {
                                                    '0' => {
                                                             'name' => '_raw',
                                                             'offset' => '0',
                                                             'type' => '508834'
                                                           }
                                                  },
                                        'Name' => 'struct swoc::_1_3_5::Errata::Severity',
                                        'NameSpace' => 'swoc::_1_3_5::Errata',
                                        'PrivateABI' => 1,
                                        'Size' => '1',
                                        'Type' => 'Struct'
                                      },
                          '508834' => {
                                        'BaseType' => '61684',
                                        'Header' => undef,
                                        'Line' => '61',
                                        'Name' => 'swoc::_1_3_5::Errata::severity_type',
                                        'NameSpace' => 'swoc::_1_3_5::Errata',
                                        'PrivateABI' => 1,
                                        'Size' => '1',
                                        'Type' => 'Typedef'
                                      },
                          '508847' => {
                                        'BaseType' => '107285',
                                        'Header' => undef,
                                        'Line' => '60',
                                        'Name' => 'swoc::_1_3_5::Errata::code_type',
                                        'NameSpace' => 'swoc::_1_3_5::Errata',
                                        'PrivateABI' => 1,
                                        'Size' => '16',
                                        'Type' => 'Typedef'
                                      },
                          '508865' => {
                                        'Header' => undef,
                                        'Line' => '94',
                                        'Memb' => {
                                                    '0' => {
                                                             'access' => 'protected',
                                                             'name' => '_text',
                                                             'offset' => '0',
                                                             'type' => '18714'
                                                           },
                                                    '1' => {
                                                             'access' => 'protected',
                                                             'name' => '_level',
                                                             'offset' => '22',
                                                             'type' => '13421'
                                                           },
                                                    '2' => {
                                                             'access' => 'protected',
                                                             'name' => '_severity',
                                                             'offset' => '24',
                                                             'type' => '449773'
                                                           },
                                                    '3' => {
                                                             'access' => 'protected',
                                                             'name' => '_next',
                                                             'offset' => '36',
                                                             'type' => '518060'
                                                           },
                                                    '4' => {
                                                             'access' => 'protected',
                                                             'name' => '_prev',
                                                             'offset' => '50',
                                                             'type' => '518060'
                                                           }
                                                  },
                                        'Name' => 'swoc::_1_3_5::Errata::Annotation',
                                        'NameSpace' => 'swoc::_1_3_5::Errata',
                                        'PrivateABI' => 1,
                                        'Size' => '40',
                                        'Type' => 'Class'
                                      },
                          '508878' => {
                                        'BaseType' => '508865',
                                        'Header' => undef,
                                        'Line' => '95',
                                        'Name' => 'swoc::_1_3_5::Errata::Annotation::self_type',
                                        'NameSpace' => 'swoc::_1_3_5::Errata::Annotation',
                                        'Private' => 1,
                                        'PrivateABI' => 1,
                                        'Size' => '40',
                                        'Type' => 'Typedef'
                                      },
                          '509259' => {
                                        'Header' => undef,
                                        'Line' => '163',
                                        'Memb' => {
                                                    '0' => {
                                                             'name' => '_severity',
                                                             'offset' => '0',
                                                             'type' => '508674'
                                                           },
                                                    '1' => {
                                                             'name' => '_code',
                                                             'offset' => '8',
                                                             'type' => '508847'
                                                           },
                                                    '2' => {
                                                             'name' => '_notes',
                                                             'offset' => '36',
                                                             'type' => '509518'
                                                           },
                                                    '3' => {
                                                             'name' => '_arena',
                                                             'offset' => '72',
                                                             'type' => '5663'
                                                           }
                                                  },
                                        'Name' => 'struct swoc::_1_3_5::Errata::Data',
                                        'NameSpace' => 'swoc::_1_3_5::Errata',
                                        'PrivateABI' => 1,
                                        'Protected' => 1,
                                        'Size' => '152',
                                        'Type' => 'Struct'
                                      },
                          '509518' => {
                                        'BaseType' => '511905',
                                        'Header' => undef,
                                        'Line' => '160',
                                        'Name' => 'swoc::_1_3_5::Errata::Container',
                                        'NameSpace' => 'swoc::_1_3_5::Errata',
                                        'PrivateABI' => 1,
                                        'Protected' => 1,
                                        'Size' => '24',
                                        'Type' => 'Typedef'
                                      },
                          '511804' => {
                                        'BaseType' => '508661',
                                        'Name' => 'swoc::_1_3_5::Errata const',
                                        'Size' => '8',
                                        'Type' => 'Const'
                                      },
                          '511809' => {
                                        'Copied' => 1,
                                        'Header' => undef,
                                        'Line' => '370',
                                        'Name' => 'struct swoc::_1_3_5::IntrusiveLinkage<swoc::_1_3_5::Errata::Annotation, 24, 32>',
                                        'NameSpace' => 'swoc::_1_3_5',
                                        'PrivateABI' => 1,
                                        'Size' => '1',
                                        'TParam' => {
                                                      '0' => {
                                                               'key' => 'T',
                                                               'type' => '508865'
                                                             },
                                                      '1' => {
                                                               'key' => 'NEXT',
                                                               'type' => '597330',
                                                               'val' => '24'
                                                             },
                                                      '2' => {
                                                               'key' => 'PREV',
                                                               'type' => '597330',
                                                               'val' => '32'
                                                             }
                                                    },
                                        'Type' => 'Struct'
                                      },
                          '511905' => {
                                        'Header' => undef,
                                        'Line' => '71',
                                        'Memb' => {
                                                    '0' => {
                                                             'access' => 'protected',
                                                             'name' => '_head',
                                                             'offset' => '0',
                                                             'type' => '518110'
                                                           },
                                                    '1' => {
                                                             'access' => 'protected',
                                                             'name' => '_tail',
                                                             'offset' => '8',
                                                             'type' => '518110'
                                                           },
                                                    '2' => {
                                                             'access' => 'protected',
                                                             'name' => '_count',
                                                             'offset' => '22',
                                                             'type' => '13392'
                                                           }
                                                  },
                                        'Name' => 'swoc::_1_3_5::IntrusiveDList<swoc::_1_3_5::IntrusiveLinkage<swoc::_1_3_5::Errata::Annotation, 24, 32> >',
                                        'NameSpace' => 'swoc::_1_3_5',
                                        'PrivateABI' => 1,
                                        'Size' => '24',
                                        'TParam' => {
                                                      '0' => {
                                                               'key' => 'L',
                                                               'type' => '511809'
                                                             }
                                                    },
                                        'Type' => 'Class'
                                      },
                          '512168' => {
                                        'BaseType' => '450396',
                                        'Header' => undef,
                                        'Line' => '80',
                                        'Name' => 'swoc::_1_3_5::IntrusiveDList<swoc::_1_3_5::IntrusiveLinkage<swoc::_1_3_5::Errata::Annotation, 24, 32> >::value_type',
                                        'NameSpace' => 'swoc::_1_3_5::IntrusiveDList<swoc::_1_3_5::IntrusiveLinkage<swoc::_1_3_5::Errata::Annotation, 24, 32> >',
                                        'PrivateABI' => 1,
                                        'Size' => '40',
                                        'Type' => 'Typedef'
                                      },
                          '518040' => {
                                        'BaseType' => '508865',
                                        'Name' => 'swoc::_1_3_5::Errata::Annotation*',
                                        'Size' => '8',
                                        'Type' => 'Pointer'
                                      },
                          '518060' => {
                                        'BaseType' => '508878',
                                        'Name' => 'swoc::_1_3_5::Errata::Annotation::self_type*',
                                        'Size' => '8',
                                        'Type' => 'Pointer'
                                      },
                          '518110' => {
                                        'BaseType' => '512168',
                                        'Name' => 'swoc::_1_3_5::IntrusiveDList<swoc::_1_3_5::IntrusiveLinkage<swoc::_1_3_5::Errata::Annotation, 24, 32> >::value_type*',
                                        'Size' => '8',
                                        'Type' => 'Pointer'
                                      },
                          '518120' => {
                                        'BaseType' => '509259',
                                        'Name' => 'struct swoc::_1_3_5::Errata::Data*',
                                        'Size' => '8',
                                        'Type' => 'Pointer'
                                      },
                          '518140' => {
                                        'BaseType' => '511804',
                                        'Name' => 'swoc::_1_3_5::Errata const&',
                                        'Size' => '8',
                                        'Type' => 'Ref'
                                      },
                          '53751' => {
                                       'BaseType' => '53756',
                                       'Name' => 'void const*',
                                       'Size' => '8',
                                       'Type' => 'Pointer'
                                     },
                          '53756' => {
                                       'BaseType' => '1',
                                       'Name' => 'void const',
                                       'Type' => 'Const'
                                     },
                          '53794' => {
                                       'BaseType' => '1',
                                       'Name' => 'void*',
                                       'Size' => '8',
                                       'Type' => 'Pointer'
                                     },
                          '53847' => {
                                       'BaseType' => '13451',
                                       'Name' => 'char*',
                                       'Size' => '8',
                                       'Type' => 'Pointer'
                                     },
                          '53852' => {
                                       'BaseType' => '53847',
                                       'Name' => 'char*const',
                                       'Size' => '8',
                                       'Type' => 'Const'
                                     },
                          '54183' => {
                                       'Name' => 'float',
                                       'Size' => '4',
                                       'Type' => 'Intrinsic'
                                     },
                          '54190' => {
                                       'Name' => 'double',
                                       'Size' => '8',
                                       'Type' => 'Intrinsic'
                                     },
                          '56284' => {
                                       'Name' => 'long',
                                       'Size' => '8',
                                       'Type' => 'Intrinsic'
                                     },
                          '5663' => {
                                      'Base' => {
                                                  '116578' => {
                                                                'pos' => '0'
                                                              }
                                                },
                                      'Header' => undef,
                                      'Line' => '31',
                                      'Memb' => {
                                                  '0' => {
                                                           'access' => 'protected',
                                                           'name' => '_active_allocated',
                                                           'offset' => '8',
                                                           'type' => '13392'
                                                         },
                                                  '1' => {
                                                           'access' => 'protected',
                                                           'name' => '_active_reserved',
                                                           'offset' => '22',
                                                           'type' => '13392'
                                                         },
                                                  '2' => {
                                                           'access' => 'protected',
                                                           'name' => '_frozen_allocated',
                                                           'offset' => '36',
                                                           'type' => '13392'
                                                         },
                                                  '3' => {
                                                           'access' => 'protected',
                                                           'name' => '_frozen_reserved',
                                                           'offset' => '50',
                                                           'type' => '13392'
                                                         },
                                                  '4' => {
                                                           'access' => 'protected',
                                                           'name' => '_reserve_hint',
                                                           'offset' => '64',
                                                           'type' => '13392'
                                                         },
                                                  '5' => {
                                                           'access' => 'protected',
                                                           'name' => '_frozen',
                                                           'offset' => '72',
                                                           'type' => '614750'
                                                         },
                                                  '6' => {
                                                           'access' => 'protected',
                                                           'name' => '_active',
                                                           'offset' => '114',
                                                           'type' => '614750'
                                                         },
                                                  '7' => {
                                                           'access' => 'protected',
                                                           'name' => '_static_block',
                                                           'offset' => '150',
                                                           'type' => '65735'
                                                         }
                                                },
                                      'Name' => 'swoc::_1_3_5::MemArena',
                                      'NameSpace' => 'swoc::_1_3_5',
                                      'PrivateABI' => 1,
                                      'Size' => '104',
                                      'Type' => 'Class',
                                      'VTable' => {
                                                    '0' => '(int (*)(...)) 0',
                                                    '16' => '(int (*)(...)) swoc::_1_3_5::MemArena::~MemArena() [_ZN4swoc6_1_3_58MemArenaD1Ev]',
                                                    '24' => '(int (*)(...)) swoc::_1_3_5::MemArena::~MemArena() [_ZN4swoc6_1_3_58MemArenaD0Ev]',
                                                    '32' => '(int (*)(...)) swoc::_1_3_5::MemArena::do_allocate(unsigned long, unsigned long) [_ZN4swoc6_1_3_58MemArena11do_allocateEmm]',
                                                    '40' => '(int (*)(...)) swoc::_1_3_5::MemArena::do_deallocate(void*, unsigned long, unsigned long) [_ZN4swoc6_1_3_58MemArena13do_deallocateEPvmm]',
                                                    '48' => '(int (*)(...)) swoc::_1_3_5::MemArena::do_is_equal(std::pmr::memory_resource const&) const [_ZNK4swoc6_1_3_58MemArena11do_is_equalERKNSt3pmr15memory_resourceE]',
                                                    '8' => '(int (*)(...)) (& typeinfo for swoc::_1_3_5::MemArena) [_ZTIN4swoc6_1_3_58MemArenaE]'
                                                  }
                                    },
                          '5672' => {
                                      'Header' => undef,
                                      'Line' => '42',
                                      'Memb' => {
                                                  '0' => {
                                                           'access' => 'protected',
                                                           'name' => 'size',
                                                           'offset' => '0',
                                                           'type' => '13392'
                                                         },
                                                  '1' => {
                                                           'access' => 'protected',
                                                           'name' => 'allocated',
                                                           'offset' => '8',
                                                           'type' => '13392'
                                                         },
                                                  '2' => {
                                                           'access' => 'protected',
                                                           'name' => '_link',
                                                           'offset' => '22',
                                                           'type' => '5686'
                                                         }
                                                },
                                      'Name' => 'struct swoc::_1_3_5::MemArena::Block',
                                      'NameSpace' => 'swoc::_1_3_5::MemArena',
                                      'PrivateABI' => 1,
                                      'Size' => '32',
                                      'Type' => 'Struct'
                                    },
                          '5686' => {
                                      'Header' => undef,
                                      'Line' => '141',
                                      'Memb' => {
                                                  '0' => {
                                                           'name' => '_next',
                                                           'offset' => '0',
                                                           'type' => '65735'
                                                         },
                                                  '1' => {
                                                           'name' => '_prev',
                                                           'offset' => '8',
                                                           'type' => '65735'
                                                         }
                                                },
                                      'Name' => 'struct swoc::_1_3_5::MemArena::Block::Linkage',
                                      'NameSpace' => 'swoc::_1_3_5::MemArena::Block',
                                      'PrivateABI' => 1,
                                      'Protected' => 1,
                                      'Size' => '16',
                                      'Type' => 'Struct'
                                    },
                          '56931' => {
                                       'Header' => undef,
                                       'Line' => '55',
                                       'Name' => '__gnu_cxx::new_allocator<char>',
                                       'NameSpace' => '__gnu_cxx',
                                       'PrivateABI' => 1,
                                       'Size' => '1',
                                       'TParam' => {
                                                     '0' => {
                                                              'key' => '_Tp',
                                                              'type' => '13451'
                                                            }
                                                   },
                                       'Type' => 'Class'
                                     },
                          '57414' => {
                                       'Base' => {
                                                   '19209' => {
                                                                'pos' => '0'
                                                              }
                                                 },
                                       'Copied' => 1,
                                       'Header' => undef,
                                       'Line' => '48',
                                       'Name' => 'struct __gnu_cxx::__alloc_traits<std::allocator<char> >',
                                       'NameSpace' => '__gnu_cxx',
                                       'PrivateABI' => 1,
                                       'Size' => '1',
                                       'TParam' => {
                                                     '0' => {
                                                              'key' => '_Alloc',
                                                              'type' => '15913'
                                                            }
                                                   },
                                       'Type' => 'Struct'
                                     },
                          '57606' => {
                                       'BaseType' => '19223',
                                       'Header' => undef,
                                       'Line' => '57',
                                       'Name' => '__gnu_cxx::__alloc_traits<std::allocator<char> >::pointer',
                                       'NameSpace' => '__gnu_cxx::__alloc_traits<std::allocator<char> >',
                                       'PrivateABI' => 1,
                                       'Size' => '8',
                                       'Type' => 'Typedef'
                                     },
                          '57630' => {
                                       'BaseType' => '19286',
                                       'Header' => undef,
                                       'Line' => '59',
                                       'Name' => '__gnu_cxx::__alloc_traits<std::allocator<char> >::size_type',
                                       'NameSpace' => '__gnu_cxx::__alloc_traits<std::allocator<char> >',
                                       'PrivateABI' => 1,
                                       'Size' => '8',
                                       'Type' => 'Typedef'
                                     },
                          '59589' => {
                                       'Header' => undef,
                                       'Line' => '55',
                                       'Name' => '__gnu_cxx::new_allocator<std::pair<std::basic_string_view<char>const, std::function<swoc::_1_3_5::BufferWriter&(swoc::_1_3_5::BufferWriter&, struct swoc::_1_3_5::bwf::Spec const&)> > >',
                                       'NameSpace' => '__gnu_cxx',
                                       'PrivateABI' => 1,
                                       'Size' => '1',
                                       'TParam' => {
                                                     '0' => {
                                                              'key' => '_Tp',
                                                              'type' => '41868'
                                                            }
                                                   },
                                       'Type' => 'Class'
                                     },
                          '597330' => {
                                        'Class' => '508865',
                                        'Name' => 'swoc::_1_3_5::Errata::Annotation::self_type*(swoc::_1_3_5::Errata::Annotation::*)',
                                        'Return' => '518060',
                                        'Size' => '8',
                                        'Type' => 'FieldPtr'
                                      },
                          '59984' => {
                                       'Header' => undef,
                                       'Line' => '55',
                                       'Name' => '__gnu_cxx::new_allocator<std::__detail::_Hash_node<std::pair<std::basic_string_view<char>const, std::function<swoc::_1_3_5::BufferWriter&(swoc::_1_3_5::BufferWriter&, struct swoc::_1_3_5::bwf::Spec const&)> >, true> >',
                                       'NameSpace' => '__gnu_cxx',
                                       'PrivateABI' => 1,
                                       'Size' => '1',
                                       'TParam' => {
                                                     '0' => {
                                                              'key' => '_Tp',
                                                              'type' => '29581'
                                                            }
                                                   },
                                       'Type' => 'Class'
                                     },
                          '60420' => {
                                       'Base' => {
                                                   '47020' => {
                                                                'pos' => '0'
                                                              }
                                                 },
                                       'Header' => undef,
                                       'Line' => '90',
                                       'Memb' => {
                                                   '0' => {
                                                            'name' => '_M_storage',
                                                            'offset' => '0',
                                                            'type' => '47034'
                                                          }
                                                 },
                                       'Name' => 'struct __gnu_cxx::__aligned_buffer<std::pair<std::basic_string_view<char>const, std::function<swoc::_1_3_5::BufferWriter&(swoc::_1_3_5::BufferWriter&, struct swoc::_1_3_5::bwf::Spec const&)> > >',
                                       'NameSpace' => '__gnu_cxx',
                                       'PrivateABI' => 1,
                                       'Size' => '48',
                                       'TParam' => {
                                                     '0' => {
                                                              'key' => '_Tp',
                                                              'type' => '41868'
                                                            }
                                                   },
                                       'Type' => 'Struct'
                                     },
                          '61241' => {
                                       'Name' => 'bool',
                                       'Size' => '1',
                                       'Type' => 'Intrinsic'
                                     },
                          '61263' => {
                                       'Name' => 'unsigned char',
                                       'Size' => '1',
                                       'Type' => 'Intrinsic'
                                     },
                          '61270' => {
                                       'Name' => 'signed char',
                                       'Size' => '1',
                                       'Type' => 'Intrinsic'
                                     },
                          '61355' => {
                                       'BaseType' => '61270',
                                       'Header' => undef,
                                       'Line' => '37',
                                       'Name' => '__int8_t',
                                       'PrivateABI' => 1,
                                       'Size' => '1',
                                       'Type' => 'Typedef'
                                     },
                          '61367' => {
                                       'BaseType' => '61263',
                                       'Header' => undef,
                                       'Line' => '38',
                                       'Name' => '__uint8_t',
                                       'PrivateABI' => 1,
                                       'Size' => '1',
                                       'Type' => 'Typedef'
                                     },
                          '61391' => {
                                       'BaseType' => '13421',
                                       'Header' => undef,
                                       'Line' => '40',
                                       'Name' => '__uint16_t',
                                       'PrivateABI' => 1,
                                       'Size' => '2',
                                       'Type' => 'Typedef'
                                     },
                          '61420' => {
                                       'BaseType' => '13365',
                                       'Header' => undef,
                                       'Line' => '42',
                                       'Name' => '__uint32_t',
                                       'PrivateABI' => 1,
                                       'Size' => '4',
                                       'Type' => 'Typedef'
                                     },
                          '61444' => {
                                       'BaseType' => '13409',
                                       'Header' => undef,
                                       'Line' => '45',
                                       'Name' => '__uint64_t',
                                       'PrivateABI' => 1,
                                       'Size' => '8',
                                       'Type' => 'Typedef'
                                     },
                          '614750' => {
                                        'BaseType' => '6365',
                                        'Header' => undef,
                                        'Line' => '151',
                                        'Name' => 'swoc::_1_3_5::MemArena::BlockList',
                                        'NameSpace' => 'swoc::_1_3_5::MemArena',
                                        'PrivateABI' => 1,
                                        'Size' => '24',
                                        'Type' => 'Typedef'
                                      },
                          '61552' => {
                                       'BaseType' => '56284',
                                       'Header' => undef,
                                       'Line' => '72',
                                       'Name' => '__intmax_t',
                                       'PrivateABI' => 1,
                                       'Size' => '8',
                                       'Type' => 'Typedef'
                                     },
                          '61564' => {
                                       'BaseType' => '13409',
                                       'Header' => undef,
                                       'Line' => '73',
                                       'Name' => '__uintmax_t',
                                       'PrivateABI' => 1,
                                       'Size' => '8',
                                       'Type' => 'Typedef'
                                     },
                          '61576' => {
                                       'BaseType' => '56284',
                                       'Header' => undef,
                                       'Line' => '152',
                                       'Name' => '__off_t',
                                       'PrivateABI' => 1,
                                       'Size' => '8',
                                       'Type' => 'Typedef'
                                     },
                          '61612' => {
                                       'BaseType' => '56284',
                                       'Header' => undef,
                                       'Line' => '160',
                                       'Name' => '__time_t',
                                       'PrivateABI' => 1,
                                       'Size' => '8',
                                       'Type' => 'Typedef'
                                     },
                          '61624' => {
                                       'BaseType' => '56284',
                                       'Header' => undef,
                                       'Line' => '197',
                                       'Name' => '__syscall_slong_t',
                                       'PrivateABI' => 1,
                                       'Size' => '8',
                                       'Type' => 'Typedef'
                                     },
                          '61636' => {
                                       'BaseType' => '61355',
                                       'Header' => undef,
                                       'Line' => '24',
                                       'Name' => 'int8_t',
                                       'PrivateABI' => 1,
                                       'Size' => '1',
                                       'Type' => 'Typedef'
                                     },
                          '61684' => {
                                       'BaseType' => '61367',
                                       'Header' => undef,
                                       'Line' => '24',
                                       'Name' => 'uint8_t',
                                       'PrivateABI' => 1,
                                       'Size' => '1',
                                       'Type' => 'Typedef'
                                     },
                          '61696' => {
                                       'BaseType' => '61391',
                                       'Header' => undef,
                                       'Line' => '25',
                                       'Name' => 'uint16_t',
                                       'PrivateABI' => 1,
                                       'Size' => '2',
                                       'Type' => 'Typedef'
                                     },
                          '61708' => {
                                       'BaseType' => '61420',
                                       'Header' => undef,
                                       'Line' => '26',
                                       'Name' => 'uint32_t',
                                       'PrivateABI' => 1,
                                       'Size' => '4',
                                       'Type' => 'Typedef'
                                     },
                          '61720' => {
                                       'BaseType' => '61444',
                                       'Header' => undef,
                                       'Line' => '27',
                                       'Name' => 'uint64_t',
                                       'PrivateABI' => 1,
                                       'Size' => '8',
                                       'Type' => 'Typedef'
                                     },
                          '61948' => {
                                       'BaseType' => '61552',
                                       'Header' => undef,
                                       'Line' => '101',
                                       'Name' => 'intmax_t',
                                       'PrivateABI' => 1,
                                       'Size' => '8',
                                       'Type' => 'Typedef'
                                     },
                          '61960' => {
                                       'BaseType' => '61564',
                                       'Header' => undef,
                                       'Line' => '102',
                                       'Name' => 'uintmax_t',
                                       'PrivateABI' => 1,
                                       'Size' => '8',
                                       'Type' => 'Typedef'
                                     },
                          '62342' => {
                                       'BaseType' => '61612',
                                       'Header' => undef,
                                       'Line' => '10',
                                       'Name' => 'time_t',
                                       'PrivateABI' => 1,
                                       'Size' => '8',
                                       'Type' => 'Typedef'
                                     },
                          '62359' => {
                                       'Header' => undef,
                                       'Line' => '11',
                                       'Memb' => {
                                                   '0' => {
                                                            'name' => 'tv_sec',
                                                            'offset' => '0',
                                                            'type' => '61612'
                                                          },
                                                   '1' => {
                                                            'name' => 'tv_nsec',
                                                            'offset' => '8',
                                                            'type' => '61624'
                                                          }
                                                 },
                                       'Name' => 'struct timespec',
                                       'PrivateABI' => 1,
                                       'Size' => '16',
                                       'Type' => 'Struct'
                                     },
                          '62740' => {
                                       'Name' => 'void(*)()',
                                       'Return' => '1',
                                       'Size' => '8',
                                       'Type' => 'FuncPtr'
                                     },
                          '62745' => {
                                       'Name' => 'void()',
                                       'Return' => '1',
                                       'Type' => 'Func'
                                     },
                          '6365' => {
                                      'Header' => undef,
                                      'Line' => '71',
                                      'Memb' => {
                                                  '0' => {
                                                           'access' => 'protected',
                                                           'name' => '_head',
                                                           'offset' => '0',
                                                           'type' => '65805'
                                                         },
                                                  '1' => {
                                                           'access' => 'protected',
                                                           'name' => '_tail',
                                                           'offset' => '8',
                                                           'type' => '65805'
                                                         },
                                                  '2' => {
                                                           'access' => 'protected',
                                                           'name' => '_count',
                                                           'offset' => '22',
                                                           'type' => '13392'
                                                         }
                                                },
                                      'Name' => 'swoc::_1_3_5::IntrusiveDList<swoc::_1_3_5::MemArena::Block::Linkage>',
                                      'NameSpace' => 'swoc::_1_3_5',
                                      'PrivateABI' => 1,
                                      'Size' => '24',
                                      'TParam' => {
                                                    '0' => {
                                                             'key' => 'L',
                                                             'type' => '5686'
                                                           }
                                                  },
                                      'Type' => 'Class'
                                    },
                          '64304' => {
                                       'BaseType' => '13451',
                                       'Name' => 'char[16]',
                                       'Size' => '16',
                                       'Type' => 'Array'
                                     },
                          '64553' => {
                                       'BaseType' => '114',
                                       'Name' => 'swoc::_1_3_5::MemSpan<void>::value_type*',
                                       'Size' => '8',
                                       'Type' => 'Pointer'
                                     },
                          '64633' => {
                                       'BaseType' => '27132',
                                       'Name' => 'struct std::__detail::_Hash_node_base*',
                                       'Size' => '8',
                                       'Type' => 'Pointer'
                                     },
                          '64795' => {
                                       'Class' => '33345',
                                       'Name' => 'void()(std::_Undefined_class::*)',
                                       'Return' => '62745',
                                       'Size' => '8',
                                       'Type' => 'FieldPtr'
                                     },
                          '64835' => {
                                       'Name' => 'bool(*)(union std::_Any_data&, union std::_Any_data const&, enum std::_Manager_operation)',
                                       'Param' => {
                                                    '0' => {
                                                             'type' => '64865'
                                                           },
                                                    '1' => {
                                                             'type' => '64870'
                                                           },
                                                    '2' => {
                                                             'type' => '33452'
                                                           }
                                                  },
                                       'Return' => '61241',
                                       'Size' => '8',
                                       'Type' => 'FuncPtr'
                                     },
                          '64865' => {
                                       'BaseType' => '33350',
                                       'Name' => 'union std::_Any_data&',
                                       'Size' => '8',
                                       'Type' => 'Ref'
                                     },
                          '64870' => {
                                       'BaseType' => '33447',
                                       'Name' => 'union std::_Any_data const&',
                                       'Size' => '8',
                                       'Type' => 'Ref'
                                     },
                          '64981' => {
                                       'BaseType' => '2252',
                                       'Name' => 'swoc::_1_3_5::TextView*',
                                       'Size' => '8',
                                       'Type' => 'Pointer'
                                     },
                          '650159' => {
                                        'BaseType' => '13409',
                                        'Header' => undef,
                                        'Line' => '145',
                                        'Name' => '__dev_t',
                                        'PrivateABI' => 1,
                                        'Size' => '8',
                                        'Type' => 'Typedef'
                                      },
                          '650171' => {
                                        'BaseType' => '13365',
                                        'Header' => undef,
                                        'Line' => '146',
                                        'Name' => '__uid_t',
                                        'PrivateABI' => 1,
                                        'Size' => '4',
                                        'Type' => 'Typedef'
                                      },
                          '650183' => {
                                        'BaseType' => '13365',
                                        'Header' => undef,
                                        'Line' => '147',
                                        'Name' => '__gid_t',
                                        'PrivateABI' => 1,
                                        'Size' => '4',
                                        'Type' => 'Typedef'
                                      },
                          '650195' => {
                                        'BaseType' => '13409',
                                        'Header' => undef,
                                        'Line' => '148',
                                        'Name' => '__ino_t',
                                        'PrivateABI' => 1,
                                        'Size' => '8',
                                        'Type' => 'Typedef'
                                      },
                          '650207' => {
                                        'BaseType' => '13365',
                                        'Header' => undef,
                                        'Line' => '150',
                                        'Name' => '__mode_t',
                                        'PrivateABI' => 1,
                                        'Size' => '4',
                                        'Type' => 'Typedef'
                                      },
                          '650219' => {
                                        'BaseType' => '13409',
                                        'Header' => undef,
                                        'Line' => '151',
                                        'Name' => '__nlink_t',
                                        'PrivateABI' => 1,
                                        'Size' => '8',
                                        'Type' => 'Typedef'
                                      },
                          '650282' => {
                                        'BaseType' => '56284',
                                        'Header' => undef,
                                        'Line' => '175',
                                        'Name' => '__blksize_t',
                                        'PrivateABI' => 1,
                                        'Size' => '8',
                                        'Type' => 'Typedef'
                                      },
                          '650294' => {
                                        'BaseType' => '56284',
                                        'Header' => undef,
                                        'Line' => '180',
                                        'Name' => '__blkcnt_t',
                                        'PrivateABI' => 1,
                                        'Size' => '8',
                                        'Type' => 'Typedef'
                                      },
                          '650381' => {
                                        'BaseType' => '61576',
                                        'Header' => undef,
                                        'Line' => '56',
                                        'Name' => 'off_t',
                                        'PrivateABI' => 1,
                                        'Size' => '8',
                                        'Type' => 'Typedef'
                                      },
                          '650455' => {
                                        'Header' => undef,
                                        'Line' => '26',
                                        'Memb' => {
                                                    '0' => {
                                                             'name' => 'st_dev',
                                                             'offset' => '0',
                                                             'type' => '650159'
                                                           },
                                                    '1' => {
                                                             'name' => 'st_ino',
                                                             'offset' => '8',
                                                             'type' => '650195'
                                                           },
                                                    '10' => {
                                                              'name' => 'st_blocks',
                                                              'offset' => '100',
                                                              'type' => '650294'
                                                            },
                                                    '11' => {
                                                              'name' => 'st_atim',
                                                              'offset' => '114',
                                                              'type' => '62359'
                                                            },
                                                    '12' => {
                                                              'name' => 'st_mtim',
                                                              'offset' => '136',
                                                              'type' => '62359'
                                                            },
                                                    '13' => {
                                                              'name' => 'st_ctim',
                                                              'offset' => '260',
                                                              'type' => '62359'
                                                            },
                                                    '14' => {
                                                              'name' => '__glibc_reserved',
                                                              'offset' => '288',
                                                              'type' => '650669'
                                                            },
                                                    '2' => {
                                                             'name' => 'st_nlink',
                                                             'offset' => '22',
                                                             'type' => '650219'
                                                           },
                                                    '3' => {
                                                             'name' => 'st_mode',
                                                             'offset' => '36',
                                                             'type' => '650207'
                                                           },
                                                    '4' => {
                                                             'name' => 'st_uid',
                                                             'offset' => '40',
                                                             'type' => '650171'
                                                           },
                                                    '5' => {
                                                             'name' => 'st_gid',
                                                             'offset' => '50',
                                                             'type' => '650183'
                                                           },
                                                    '6' => {
                                                             'name' => '__pad0',
                                                             'offset' => '54',
                                                             'type' => '13428'
                                                           },
                                                    '7' => {
                                                             'name' => 'st_rdev',
                                                             'offset' => '64',
                                                             'type' => '650159'
                                                           },
                                                    '8' => {
                                                             'name' => 'st_size',
                                                             'offset' => '72',
                                                             'type' => '61576'
                                                           },
                                                    '9' => {
                                                             'name' => 'st_blksize',
                                                             'offset' => '86',
                                                             'type' => '650282'
                                                           }
                                                  },
                                        'Name' => 'struct stat',
                                        'PrivateABI' => 1,
                                        'Size' => '144',
                                        'Type' => 'Struct'
                                      },
                          '650669' => {
                                        'BaseType' => '61624',
                                        'Name' => '__syscall_slong_t[3]',
                                        'Size' => '24',
                                        'Type' => 'Array'
                                      },
                          '65735' => {
                                       'BaseType' => '5672',
                                       'Name' => 'struct swoc::_1_3_5::MemArena::Block*',
                                       'Size' => '8',
                                       'Type' => 'Pointer'
                                     },
                          '65805' => {
                                       'BaseType' => '6632',
                                       'Name' => 'swoc::_1_3_5::IntrusiveDList<swoc::_1_3_5::MemArena::Block::Linkage>::value_type*',
                                       'Size' => '8',
                                       'Type' => 'Pointer'
                                     },
                          '65855' => {
                                       'BaseType' => '9378',
                                       'Name' => 'swoc::_1_3_5::BufferWriter&',
                                       'Size' => '8',
                                       'Type' => 'Ref'
                                     },
                          '65875' => {
                                       'BaseType' => '5074',
                                       'Name' => 'swoc::_1_3_5::TextView const&',
                                       'Size' => '8',
                                       'Type' => 'Ref'
                                     },
                          '65945' => {
                                       'BaseType' => '11023',
                                       'Name' => 'struct swoc::_1_3_5::bwf::Spec const&',
                                       'Size' => '8',
                                       'Type' => 'Ref'
                                     },
                          '6632' => {
                                      'BaseType' => '37389',
                                      'Header' => undef,
                                      'Line' => '80',
                                      'Name' => 'swoc::_1_3_5::IntrusiveDList<swoc::_1_3_5::MemArena::Block::Linkage>::value_type',
                                      'NameSpace' => 'swoc::_1_3_5::IntrusiveDList<swoc::_1_3_5::MemArena::Block::Linkage>',
                                      'PrivateABI' => 1,
                                      'Size' => '32',
                                      'Type' => 'Typedef'
                                    },
                          '66430' => {
                                       'Name' => 'swoc::_1_3_5::BufferWriter&(*)(union std::_Any_data const&, swoc::_1_3_5::BufferWriter&, struct swoc::_1_3_5::bwf::Spec const&)',
                                       'Param' => {
                                                    '0' => {
                                                             'type' => '64870'
                                                           },
                                                    '1' => {
                                                             'type' => '65855'
                                                           },
                                                    '2' => {
                                                             'type' => '65945'
                                                           }
                                                  },
                                       'Return' => '65855',
                                       'Size' => '8',
                                       'Type' => 'FuncPtr'
                                     },
                          '66465' => {
                                       'BaseType' => '61263',
                                       'Name' => 'unsigned char[48]',
                                       'Size' => '48',
                                       'Type' => 'Array'
                                     },
                          '66571' => {
                                       'BaseType' => '30324',
                                       'Name' => 'std::__detail::_Hashtable_alloc<std::allocator<std::__detail::_Hash_node<std::pair<const std::basic_string_view<char, std::char_traits<char> >, std::function<swoc::_1_3_5::BufferWriter&(swoc::_1_3_5::BufferWriter&, swoc::_1_3_5::bwf::Spec const&)> >, true> > >::__node_base_ptr*',
                                       'Size' => '8',
                                       'Type' => 'Pointer'
                                     },
                          '66576' => {
                                       'BaseType' => '30337',
                                       'Name' => 'std::__detail::_Hashtable_alloc<std::allocator<std::__detail::_Hash_node<std::pair<const std::basic_string_view<char, std::char_traits<char> >, std::function<swoc::_1_3_5::BufferWriter&(swoc::_1_3_5::BufferWriter&, swoc::_1_3_5::bwf::Spec const&)> >, true> > >::__node_base*',
                                       'Size' => '8',
                                       'Type' => 'Pointer'
                                     },
                          '66856' => {
                                       'BaseType' => '8199',
                                       'Name' => 'swoc::_1_3_5::FixedBufferWriter&',
                                       'Size' => '8',
                                       'Type' => 'Ref'
                                     },
                          '67092' => {
                                       'BaseType' => '67097',
                                       'Name' => 'int(**)(...)',
                                       'Size' => '8',
                                       'Type' => 'Pointer'
                                     },
                          '67097' => {
                                       'Name' => 'int(*)(...)',
                                       'Param' => {
                                                    '0' => {
                                                             'type' => '-1'
                                                           }
                                                  },
                                       'Return' => '13428',
                                       'Size' => '8',
                                       'Type' => 'FuncPtr'
                                     },
                          '67158' => {
                                       'BaseType' => '1068',
                                       'Name' => 'swoc::_1_3_5::MemSpan<void>const&',
                                       'Size' => '8',
                                       'Type' => 'Ref'
                                     },
                          '67193' => {
                                       'BaseType' => '26838',
                                       'Name' => 'std::ostream&',
                                       'Size' => '8',
                                       'Type' => 'Ref'
                                     },
                          '709247' => {
                                        'Header' => undef,
                                        'Line' => '24',
                                        'Memb' => {
                                                    '0' => {
                                                             'access' => 'protected',
                                                             'name' => '_path',
                                                             'offset' => '0',
                                                             'type' => '26572'
                                                           }
                                                  },
                                        'Name' => 'swoc::_1_3_5::file::path',
                                        'NameSpace' => 'swoc::_1_3_5::file',
                                        'PrivateABI' => 1,
                                        'Size' => '32',
                                        'Type' => 'Class'
                                      },
                          '709915' => {
                                        'BaseType' => '709247',
                                        'Name' => 'swoc::_1_3_5::file::path const',
                                        'Size' => '32',
                                        'Type' => 'Const'
                                      },
                          '709920' => {
                                        'Copied' => 1,
                                        'Header' => undef,
                                        'Line' => '95',
                                        'Memb' => {
                                                    '0' => {
                                                             'access' => 'protected',
                                                             'name' => '_stat',
                                                             'offset' => '0',
                                                             'type' => '650455'
                                                           }
                                                  },
                                        'Name' => 'swoc::_1_3_5::file::file_status',
                                        'NameSpace' => 'swoc::_1_3_5::file',
                                        'PrivateABI' => 1,
                                        'Size' => '144',
                                        'Type' => 'Class'
                                      },
                          '709948' => {
                                        'BaseType' => '709920',
                                        'Name' => 'swoc::_1_3_5::file::file_status const',
                                        'Size' => '144',
                                        'Type' => 'Const'
                                      },
                          '718272' => {
                                        'BaseType' => '709915',
                                        'Name' => 'swoc::_1_3_5::file::path const&',
                                        'Size' => '8',
                                        'Type' => 'Ref'
                                      },
                          '742757' => {
                                        'BaseType' => '107285',
                                        'Name' => 'std::error_code&',
                                        'Size' => '8',
                                        'Type' => 'Ref'
                                      },
                          '744895' => {
                                        'BaseType' => '709948',
                                        'Name' => 'swoc::_1_3_5::file::file_status const&',
                                        'Size' => '8',
                                        'Type' => 'Ref'
                                      },
                          '764897' => {
                                        'BaseType' => '53794',
                                        'Name' => 'void*const',
                                        'Size' => '8',
                                        'Type' => 'Const'
                                      },
                          '8199' => {
                                      'Base' => {
                                                  '9378' => {
                                                              'pos' => '0'
                                                            }
                                                },
                                      'Header' => undef,
                                      'Line' => '286',
                                      'Memb' => {
                                                  '0' => {
                                                           'access' => 'protected',
                                                           'name' => '_buffer',
                                                           'offset' => '8',
                                                           'type' => '53852'
                                                         },
                                                  '1' => {
                                                           'access' => 'protected',
                                                           'name' => '_capacity',
                                                           'offset' => '22',
                                                           'type' => '13392'
                                                         },
                                                  '2' => {
                                                           'access' => 'protected',
                                                           'name' => '_attempted',
                                                           'offset' => '36',
                                                           'type' => '13392'
                                                         }
                                                },
                                      'Name' => 'swoc::_1_3_5::FixedBufferWriter',
                                      'NameSpace' => 'swoc::_1_3_5',
                                      'PrivateABI' => 1,
                                      'Size' => '32',
                                      'Type' => 'Class',
                                      'VTable' => {
                                                    '0' => '(int (*)(...)) 0',
                                                    '104' => '(int (*)(...)) swoc::_1_3_5::FixedBufferWriter::copy(unsigned long, unsigned long, unsigned long) [_ZN4swoc6_1_3_517FixedBufferWriter4copyEmmm]',
                                                    '112' => '(int (*)(...)) swoc::_1_3_5::FixedBufferWriter::~FixedBufferWriter() [_ZN4swoc6_1_3_517FixedBufferWriterD1Ev]',
                                                    '120' => '(int (*)(...)) swoc::_1_3_5::FixedBufferWriter::~FixedBufferWriter() [_ZN4swoc6_1_3_517FixedBufferWriterD0Ev]',
                                                    '128' => '(int (*)(...)) swoc::_1_3_5::FixedBufferWriter::operator>>(std::ostream&) const [_ZNK4swoc6_1_3_517FixedBufferWriterrsERSo]',
                                                    '16' => '(int (*)(...)) swoc::_1_3_5::FixedBufferWriter::write(char) [_ZN4swoc6_1_3_517FixedBufferWriter5writeEc]',
                                                    '24' => '(int (*)(...)) swoc::_1_3_5::FixedBufferWriter::write(void const*, unsigned long) [_ZN4swoc6_1_3_517FixedBufferWriter5writeEPKvm]',
                                                    '32' => '(int (*)(...)) swoc::_1_3_5::FixedBufferWriter::data() const [_ZNK4swoc6_1_3_517FixedBufferWriter4dataEv]',
                                                    '40' => '(int (*)(...)) swoc::_1_3_5::FixedBufferWriter::error() const [_ZNK4swoc6_1_3_517FixedBufferWriter5errorEv]',
                                                    '48' => '(int (*)(...)) swoc::_1_3_5::FixedBufferWriter::aux_data() [_ZN4swoc6_1_3_517FixedBufferWriter8aux_dataEv]',
                                                    '56' => '(int (*)(...)) swoc::_1_3_5::FixedBufferWriter::capacity() const [_ZNK4swoc6_1_3_517FixedBufferWriter8capacityEv]',
                                                    '64' => '(int (*)(...)) swoc::_1_3_5::FixedBufferWriter::extent() const [_ZNK4swoc6_1_3_517FixedBufferWriter6extentEv]',
                                                    '72' => '(int (*)(...)) swoc::_1_3_5::FixedBufferWriter::commit(unsigned long) [_ZN4swoc6_1_3_517FixedBufferWriter6commitEm]',
                                                    '8' => '(int (*)(...)) (& typeinfo for swoc::_1_3_5::FixedBufferWriter) [_ZTIN4swoc6_1_3_517FixedBufferWriterE]',
                                                    '80' => '(int (*)(...)) swoc::_1_3_5::FixedBufferWriter::discard(unsigned long) [_ZN4swoc6_1_3_517FixedBufferWriter7discardEm]',
                                                    '88' => '(int (*)(...)) swoc::_1_3_5::FixedBufferWriter::restrict(unsigned long) [_ZN4swoc6_1_3_517FixedBufferWriter8restrictEm]',
                                                    '96' => '(int (*)(...)) swoc::_1_3_5::FixedBufferWriter::restore(unsigned long) [_ZN4swoc6_1_3_517FixedBufferWriter7restoreEm]'
                                                  }
                                    },
                          '88738' => {
                                       'Name' => 'swoc::_1_3_5::BufferWriter&(swoc::_1_3_5::BufferWriter&, struct swoc::_1_3_5::bwf::Spec const&)',
                                       'Param' => {
                                                    '0' => {
                                                             'type' => '65855'
                                                           },
                                                    '1' => {
                                                             'type' => '65945'
                                                           }
                                                  },
                                       'Return' => '65855',
                                       'Type' => 'Func'
                                     },
                          '89918' => {
                                       'Copied' => 1,
                                       'Header' => undef,
                                       'Line' => '266',
                                       'Name' => 'struct std::ratio<1l, 1000000000l>',
                                       'NameSpace' => 'std',
                                       'PrivateABI' => 1,
                                       'Size' => '1',
                                       'TParam' => {
                                                     '0' => {
                                                              'key' => '_Num',
                                                              'type' => '56284',
                                                              'val' => '1'
                                                            },
                                                     '1' => {
                                                              'key' => '_Den',
                                                              'type' => '56284',
                                                              'val' => '1000000000'
                                                            }
                                                   },
                                       'Type' => 'Struct'
                                     },
                          '90009' => {
                                       'Header' => undef,
                                       'Line' => '459',
                                       'Memb' => {
                                                   '0' => {
                                                            'access' => 'private',
                                                            'name' => '__r',
                                                            'offset' => '0',
                                                            'type' => '90180'
                                                          }
                                                 },
                                       'Name' => 'struct std::chrono::duration<long, std::ratio<1l, 1000000000l> >',
                                       'NameSpace' => 'std::chrono',
                                       'PrivateABI' => 1,
                                       'Size' => '8',
                                       'TParam' => {
                                                     '0' => {
                                                              'key' => '_Rep',
                                                              'type' => '56284'
                                                            },
                                                     '1' => {
                                                              'key' => '_Period',
                                                              'type' => '89918'
                                                            }
                                                   },
                                       'Type' => 'Struct'
                                     },
                          '90180' => {
                                       'BaseType' => '56284',
                                       'Header' => undef,
                                       'Line' => '503',
                                       'Name' => 'std::chrono::duration<long, std::ratio<1l, 1000000000l> >::rep',
                                       'NameSpace' => 'std::chrono::duration<long, std::ratio<1l, 1000000000l> >',
                                       'PrivateABI' => 1,
                                       'Size' => '8',
                                       'Type' => 'Typedef'
                                     },
                          '90670' => {
                                       'Copied' => 1,
                                       'Header' => undef,
                                       'Line' => '1125',
                                       'Name' => 'struct std::chrono::_V2::system_clock',
                                       'NameSpace' => 'std::chrono::_V2',
                                       'PrivateABI' => 1,
                                       'Size' => '1',
                                       'Type' => 'Struct'
                                     },
                          '90701' => {
                                       'BaseType' => '90788',
                                       'Header' => undef,
                                       'Line' => '1130',
                                       'Name' => 'std::chrono::_V2::system_clock::time_point',
                                       'NameSpace' => 'std::chrono::_V2::system_clock',
                                       'PrivateABI' => 1,
                                       'Size' => '8',
                                       'Type' => 'Typedef'
                                     },
                          '90788' => {
                                       'Header' => undef,
                                       'Line' => '872',
                                       'Memb' => {
                                                   '0' => {
                                                            'access' => 'private',
                                                            'name' => '__d',
                                                            'offset' => '0',
                                                            'type' => '90861'
                                                          }
                                                 },
                                       'Name' => 'struct std::chrono::time_point<std::chrono::_V2::system_clock, std::chrono::duration<long, std::ratio<1l, 1000000000l> > >',
                                       'NameSpace' => 'std::chrono',
                                       'PrivateABI' => 1,
                                       'Size' => '8',
                                       'TParam' => {
                                                     '0' => {
                                                              'key' => '_Clock',
                                                              'type' => '90670'
                                                            },
                                                     '1' => {
                                                              'key' => '_Dur',
                                                              'type' => '90009'
                                                            }
                                                   },
                                       'Type' => 'Struct'
                                     },
                          '90861' => {
                                       'BaseType' => '90009',
                                       'Header' => undef,
                                       'Line' => '878',
                                       'Name' => 'std::chrono::time_point<std::chrono::_V2::system_clock, std::chrono::duration<long, std::ratio<1l, 1000000000l> > >::duration',
                                       'NameSpace' => 'std::chrono::time_point<std::chrono::_V2::system_clock, std::chrono::duration<long, std::ratio<1l, 1000000000l> > >',
                                       'PrivateABI' => 1,
                                       'Size' => '8',
                                       'Type' => 'Typedef'
                                     },
                          '9378' => {
                                      'Header' => undef,
                                      'Line' => '43',
                                      'Memb' => {
                                                  '0' => {
                                                           'name' => '_vptr',
                                                           'offset' => '0',
                                                           'type' => '67092'
                                                         }
                                                },
                                      'Name' => 'swoc::_1_3_5::BufferWriter',
                                      'NameSpace' => 'swoc::_1_3_5',
                                      'PrivateABI' => 1,
                                      'Size' => '8',
                                      'Type' => 'Class',
                                      'VTable' => {
                                                    '0' => '(int (*)(...)) 0',
                                                    '104' => '(int (*)(...)) __cxa_pure_virtual',
                                                    '112' => '0u',
                                                    '120' => '0u',
                                                    '128' => '(int (*)(...)) __cxa_pure_virtual',
                                                    '16' => '(int (*)(...)) __cxa_pure_virtual',
                                                    '24' => '(int (*)(...)) swoc::_1_3_5::BufferWriter::write(void const*, unsigned long) [_ZN4swoc6_1_3_512BufferWriter5writeEPKvm]',
                                                    '32' => '(int (*)(...)) __cxa_pure_virtual',
                                                    '40' => '(int (*)(...)) __cxa_pure_virtual',
                                                    '48' => '(int (*)(...)) swoc::_1_3_5::BufferWriter::aux_data() [_ZN4swoc6_1_3_512BufferWriter8aux_dataEv]',
                                                    '56' => '(int (*)(...)) __cxa_pure_virtual',
                                                    '64' => '(int (*)(...)) __cxa_pure_virtual',
                                                    '72' => '(int (*)(...)) __cxa_pure_virtual',
                                                    '8' => '(int (*)(...)) (& typeinfo for swoc::_1_3_5::BufferWriter) [_ZTIN4swoc6_1_3_512BufferWriterE]',
                                                    '80' => '(int (*)(...)) __cxa_pure_virtual',
                                                    '88' => '(int (*)(...)) __cxa_pure_virtual',
                                                    '96' => '(int (*)(...)) __cxa_pure_virtual'
                                                  }
                                    }
                        },
          'UndefinedSymbols' => {
                                  'libtsswoc.so.10.0.0' => {
                                                             '_ITM_deregisterTMCloneTable' => 0,
                                                             '_ITM_registerTMCloneTable' => 0,
                                                             '_Unwind_Resume@GCC_3.0' => 0,
                                                             '_ZNKSt5ctypeIcE13_M_widen_initEv@GLIBCXX_3.4.11' => 0,
                                                             '_ZNSo5writeEPKcl@GLIBCXX_3.4' => 0,
                                                             '_ZNSt12domain_errorC1EPKc@GLIBCXX_3.4.21' => 0,
                                                             '_ZNSt12domain_errorD1Ev@GLIBCXX_3.4' => 0,
                                                             '_ZNSt13runtime_errorC1EPKc@GLIBCXX_3.4.21' => 0,
                                                             '_ZNSt13runtime_errorD1Ev@GLIBCXX_3.4' => 0,
                                                             '_ZNSt16invalid_argumentC1EPKc@GLIBCXX_3.4.21' => 0,
                                                             '_ZNSt16invalid_argumentD1Ev@GLIBCXX_3.4' => 0,
                                                             '_ZNSt3_V215system_categoryEv@GLIBCXX_3.4.21' => 0,
                                                             '_ZNSt3_V216generic_categoryEv@GLIBCXX_3.4.21' => 0,
                                                             '_ZNSt3pmr15memory_resourceD2Ev@GLIBCXX_3.4.28' => 0,
                                                             '_ZNSt6chrono3_V212system_clock3nowEv@GLIBCXX_3.4.19' => 0,
                                                             '_ZNSt7__cxx1112basic_stringIcSt11char_traitsIcESaIcEE10_M_disposeEv@GLIBCXX_3.4.21' => 0,
                                                             '_ZNSt7__cxx1112basic_stringIcSt11char_traitsIcESaIcEE10_M_replaceEmmPKcm@GLIBCXX_3.4.21' => 0,
                                                             '_ZNSt7__cxx1112basic_stringIcSt11char_traitsIcESaIcEE6resizeEmc@GLIBCXX_3.4.21' => 0,
                                                             '_ZNSt7__cxx1112basic_stringIcSt11char_traitsIcESaIcEE7reserveEm@GLIBCXX_3.4.21' => 0,
                                                             '_ZNSt7__cxx1112basic_stringIcSt11char_traitsIcESaIcEE9_M_appendEPKcm@GLIBCXX_3.4.21' => 0,
                                                             '_ZNSt7__cxx1112basic_stringIcSt11char_traitsIcESaIcEE9_M_createERmm@GLIBCXX_3.4.21' => 0,
                                                             '_ZNSt7__cxx1112basic_stringIcSt11char_traitsIcESaIcEE9_M_mutateEmmPKcm@GLIBCXX_3.4.21' => 0,
                                                             '_ZNSt8ios_base4InitC1Ev@GLIBCXX_3.4' => 0,
                                                             '_ZNSt8ios_base4InitD1Ev@GLIBCXX_3.4' => 0,
                                                             '_ZSt11_Hash_bytesPKvmm@CXXABI_1.3.5' => 0,
                                                             '_ZSt16__ostream_insertIcSt11char_traitsIcEERSt13basic_ostreamIT_T0_ES6_PKS3_l@GLIBCXX_3.4.9' => 0,
                                                             '_ZSt16__throw_bad_castv@GLIBCXX_3.4' => 0,
                                                             '_ZSt17__throw_bad_allocv@GLIBCXX_3.4' => 0,
                                                             '_ZSt19__throw_logic_errorPKc@GLIBCXX_3.4' => 0,
                                                             '_ZSt20__throw_length_errorPKc@GLIBCXX_3.4' => 0,
                                                             '_ZSt24__throw_out_of_range_fmtPKcz@GLIBCXX_3.4.20' => 0,
                                                             '_ZSt25__throw_bad_function_callv@GLIBCXX_3.4.14' => 0,
                                                             '_ZSt28__throw_bad_array_new_lengthv@GLIBCXX_3.4.29' => 0,
                                                             '_ZTINSt3pmr15memory_resourceE@GLIBCXX_3.4.28' => 0,
                                                             '_ZTIPKi@CXXABI_1.3' => 0,
                                                             '_ZTIPKt@CXXABI_1.3' => 0,
                                                             '_ZTIPi@CXXABI_1.3' => 0,
                                                             '_ZTIPm@CXXABI_1.3' => 0,
                                                             '_ZTIPt@CXXABI_1.3' => 0,
                                                             '_ZTIPv@CXXABI_1.3' => 0,
                                                             '_ZTISt12domain_error@GLIBCXX_3.4' => 0,
                                                             '_ZTISt13runtime_error@GLIBCXX_3.4' => 0,
                                                             '_ZTISt16invalid_argument@GLIBCXX_3.4' => 0,
                                                             '_ZTVN10__cxxabiv117__class_type_infoE@CXXABI_1.3' => 0,
                                                             '_ZTVN10__cxxabiv119__pointer_type_infoE@CXXABI_1.3' => 0,
                                                             '_ZTVN10__cxxabiv120__si_class_type_infoE@CXXABI_1.3' => 0,
                                                             '_ZTVN10__cxxabiv121__vmi_class_type_infoE@CXXABI_1.3' => 0,
                                                             '_ZTVNSt3pmr15memory_resourceE@GLIBCXX_3.4.28' => 0,
                                                             '_ZdlPvm@CXXABI_1.3.9' => 0,
                                                             '_Znwm@GLIBCXX_3.4' => 0,
                                                             '__cxa_allocate_exception@CXXABI_1.3' => 0,
                                                             '__cxa_atexit@GLIBC_2.2.5' => 0,
                                                             '__cxa_finalize@GLIBC_2.2.5' => 0,
                                                             '__cxa_free_exception@CXXABI_1.3' => 0,
                                                             '__cxa_guard_abort@CXXABI_1.3' => 0,
                                                             '__cxa_guard_acquire@CXXABI_1.3' => 0,
                                                             '__cxa_guard_release@CXXABI_1.3' => 0,
                                                             '__cxa_pure_virtual@CXXABI_1.3' => 0,
                                                             '__cxa_throw@CXXABI_1.3' => 0,
                                                             '__errno_location@GLIBC_2.2.5' => 0,
                                                             '__gmon_start__' => 0,
                                                             '__gxx_personality_v0@CXXABI_1.3' => 0,
                                                             '__libc_single_threaded@GLIBC_2.32' => 0,
                                                             'access@GLIBC_2.2.5' => 0,
                                                             'close@GLIBC_2.2.5' => 0,
                                                             'free@GLIBC_2.2.5' => 0,
                                                             'fstat@GLIBC_2.33' => 0,
                                                             'gmtime_r@GLIBC_2.2.5' => 0,
                                                             'in6addr_any@GLIBC_2.2.5' => 0,
                                                             'in6addr_loopback@GLIBC_2.2.5' => 0,
                                                             'isdigit@GLIBC_2.2.5' => 0,
                                                             'isspace@GLIBC_2.2.5' => 0,
                                                             'isxdigit@GLIBC_2.2.5' => 0,
                                                             'localtime_r@GLIBC_2.2.5' => 0,
                                                             'malloc@GLIBC_2.2.5' => 0,
                                                             'memchr@GLIBC_2.2.5' => 0,
                                                             'memcmp@GLIBC_2.2.5' => 0,
                                                             'memcpy@GLIBC_2.14' => 0,
                                                             'memmove@GLIBC_2.2.5' => 0,
                                                             'memset@GLIBC_2.2.5' => 0,
                                                             'open@GLIBC_2.2.5' => 0,
                                                             'read@GLIBC_2.2.5' => 0,
                                                             'realpath@GLIBC_2.3' => 0,
                                                             'stat@GLIBC_2.33' => 0,
                                                             'strerror@GLIBC_2.2.5' => 0,
                                                             'strftime@GLIBC_2.2.5' => 0,
                                                             'strlen@GLIBC_2.2.5' => 0,
                                                             'strncasecmp@GLIBC_2.2.5' => 0,
                                                             'tolower@GLIBC_2.2.5' => 0,
                                                             'toupper@GLIBC_2.2.5' => 0
                                                           }
                                },
          'WordSize' => '8'
        };
