$VAR1 = {
          'ABI_DUMPER_VERSION' => '1.1',
          'ABI_DUMP_VERSION' => '3.5',
          'Arch' => 'x86_64',
          'Compiler' => 'GNU C++17 11.2.1 20220127 (Red Hat 11.2.1-9) -mcx16 -mtune=generic -march=x86-64 -g -Og -std=c++17 -feliminate-unused-debug-symbols -fno-strict-aliasing -fPIC',
          'Headers' => {
                         'Headers.h' => 1,
                         'TextView.h' => 1,
                         'ts.h' => 1
                       },
          'Language' => 'C++',
          'LibraryName' => 'libtscore.so.9.0.2',
          'LibraryVersion' => '9.0.2',
          'NameSpaces' => {
                            'YAML' => 1,
                            'YAML::ErrorMsg' => 1,
                            'YAML::Exp' => 1,
                            'YAML::Keys' => 1,
                            'YAML::Utils' => 1,
                            'YAML::detail' => 1,
                            '__gnu_cxx' => 1,
                            '__gnu_cxx::__ops' => 1,
                            '__pstl::execution::v1' => 1,
                            'ats' => 1,
                            'detail' => 1,
                            'ext::details' => 1,
                            'jearena' => 1,
                            'std' => 1,
                            'std::_V2' => 1,
                            'std::__cxx11' => 1,
                            'std::__detail' => 1,
                            'std::__exception_ptr' => 1,
                            'std::chrono' => 1,
                            'std::chrono::_V2' => 1,
                            'tag' => 1,
                            'ts' => 1,
                            'ts::bw_fmt' => 1,
                            'ts::bwf' => 1,
                            'ts::bwf::detail' => 1,
                            'ts::detail' => 1,
                            'ts::file' => 1
                          },
          'Needed' => {
                        'ld-linux-x86-64.so.2' => 1,
                        'libc.so.6' => 1,
                        'libcap.so.2' => 1,
                        'libcrypto.so.1.1' => 1,
                        'libgcc_s.so.1' => 1,
                        'libhwloc.so.15' => 1,
                        'libm.so.6' => 1,
                        'libpcre.so.1' => 1,
                        'libresolv.so.2' => 1,
                        'libssl.so.1.1' => 1,
                        'libstdc++.so.6' => 1,
                        'libtscpputil.so.9' => 1
                      },
          'PublicABI' => '1',
          'Sources' => {},
          'SymbolInfo' => {
                            '1023083' => {
                                           'Header' => 'Headers.h',
                                           'MnglName' => '_ZlsRSoR21ATSConsistentHashNode',
                                           'Param' => {
                                                        '0' => {
                                                                 'name' => 'os',
                                                                 'type' => '140700'
                                                               },
                                                        '1' => {
                                                                 'name' => 'thing',
                                                                 'type' => '1023504'
                                                               }
                                                      },
                                           'Return' => '140700',
                                           'ShortName' => 'operator<<'
                                         },
                            '1120341' => {
                                           'Data' => 1,
                                           'Header' => 'ts.h',
                                           'Return' => '8012',
                                           'ShortName' => 'diags_on_for_plugins'
                                         },
                            '1213957' => {
                                           'Header' => 'Headers.h',
                                           'MnglName' => '_ZN2tslsERSoRKNS_6ErrataE',
                                           'NameSpace' => 'ts',
                                           'Param' => {
                                                        '0' => {
                                                                 'name' => 'os',
                                                                 'type' => '140700'
                                                               },
                                                        '1' => {
                                                                 'name' => 'err',
                                                                 'type' => '1214142'
                                                               }
                                                      },
                                           'Return' => '140700',
                                           'ShortName' => 'operator<<'
                                         },
                            '1399129' => {
                                           'Header' => 'TextView.h',
                                           'MnglName' => '_ZN3ext7details5ltrimERKNSt7__cxx1112basic_stringIcSt11char_traitsIcESaIcEEES8_',
                                           'NameSpace' => 'ext::details',
                                           'Param' => {
                                                        '0' => {
                                                                 'name' => 'str',
                                                                 'type' => '135971'
                                                               },
                                                        '1' => {
                                                                 'name' => 'chars',
                                                                 'type' => '135971'
                                                               }
                                                      },
                                           'Return' => '50298',
                                           'ShortName' => 'ltrim'
                                         },
                            '1851865' => {
                                           'Header' => 'Headers.h',
                                           'MnglName' => '_ZeqRK6IpAddrPK8sockaddr',
                                           'Param' => {
                                                        '0' => {
                                                                 'name' => 'lhs',
                                                                 'type' => '1114584'
                                                               },
                                                        '1' => {
                                                                 'name' => 'rhs',
                                                                 'type' => '1114579'
                                                               }
                                                      },
                                           'Return' => '7936',
                                           'ShortName' => 'operator=='
                                         },
                            '3617546' => {
                                           'Header' => 'Headers.h',
                                           'MnglName' => '_ZN4YAMLlsERSoRKNS_4NodeE',
                                           'NameSpace' => 'YAML',
                                           'Param' => {
                                                        '0' => {
                                                                 'name' => 'out',
                                                                 'type' => '140700'
                                                               },
                                                        '1' => {
                                                                 'name' => 'node',
                                                                 'type' => '2867718'
                                                               }
                                                      },
                                           'Return' => '140700',
                                           'ShortName' => 'operator<<'
                                         },
                            '3617577' => {
                                           'Header' => 'Headers.h',
                                           'MnglName' => '_ZN4YAMLlsERNS_7EmitterERKNS_4NodeE',
                                           'NameSpace' => 'YAML',
                                           'Param' => {
                                                        '0' => {
                                                                 'name' => 'out',
                                                                 'type' => '3619173'
                                                               },
                                                        '1' => {
                                                                 'name' => 'node',
                                                                 'type' => '2867718'
                                                               }
                                                      },
                                           'Return' => '3619173',
                                           'ShortName' => 'operator<<'
                                         },
                            '4069283' => {
                                           'Header' => 'TextView.h',
                                           'MnglName' => '_ZN4YAMLntERKNS_5RegExE',
                                           'NameSpace' => 'YAML',
                                           'Param' => {
                                                        '0' => {
                                                                 'name' => 'ex',
                                                                 'type' => '4070169'
                                                               }
                                                      },
                                           'Return' => '4065458',
                                           'ShortName' => 'operator!'
                                         },
                            '826873' => {
                                          'Header' => 'Headers.h',
                                          'MnglName' => '_ZStlsRSoRN2ts17FixedBufferWriterE',
                                          'NameSpace' => 'std',
                                          'Param' => {
                                                       '0' => {
                                                                'name' => 's',
                                                                'type' => '140700'
                                                              },
                                                       '1' => {
                                                                'name' => 'w',
                                                                'type' => '853294'
                                                              }
                                                     },
                                          'Return' => '140700',
                                          'ShortName' => 'operator<<'
                                        }
                          },
          'SymbolVersion' => {},
          'Symbols' => {
                         'libtscore.so.9.0.2' => {
                                                   'HOST_RES_DEFAULT_PREFERENCE_ORDER' => -12,
                                                   'HOST_RES_PREFERENCE_STRING' => -32,
                                                   'HOST_RES_STYLE_STRING' => -40,
                                                   'IP_PROTO_TAG_HTTP_0_9' => -16,
                                                   'IP_PROTO_TAG_HTTP_1_0' => -16,
                                                   'IP_PROTO_TAG_HTTP_1_1' => -16,
                                                   'IP_PROTO_TAG_HTTP_2_0' => -16,
                                                   'IP_PROTO_TAG_HTTP_3' => -16,
                                                   'IP_PROTO_TAG_HTTP_3_D27' => -16,
                                                   'IP_PROTO_TAG_HTTP_QUIC' => -16,
                                                   'IP_PROTO_TAG_HTTP_QUIC_D27' => -16,
                                                   'IP_PROTO_TAG_IPV4' => -16,
                                                   'IP_PROTO_TAG_IPV6' => -16,
                                                   'IP_PROTO_TAG_QUIC' => -16,
                                                   'IP_PROTO_TAG_TCP' => -16,
                                                   'IP_PROTO_TAG_TLS_1_0' => -16,
                                                   'IP_PROTO_TAG_TLS_1_1' => -16,
                                                   'IP_PROTO_TAG_TLS_1_2' => -16,
                                                   'IP_PROTO_TAG_TLS_1_3' => -16,
                                                   'IP_PROTO_TAG_UDP' => -16,
                                                   'LeafTypeStr' => -40,
                                                   '_Z10ats_ip_setP8sockaddrRK6IpAddrt' => 1,
                                                   '_Z10convert_tmPK2tm' => 1,
                                                   '_Z10ink_atoi64PKcPS0_' => 1,
                                                   '_Z10ink_atoi64PKci' => 1,
                                                   '_Z10ink_fputlnP8_IO_FILEPKc' => 1,
                                                   '_Z10ink_noticePKcz' => 1,
                                                   '_Z10read_readyii' => 1,
                                                   '_Z10safe_fcntliii' => 1,
                                                   '_Z10safe_ioctliiPc' => 1,
                                                   '_Z11ExtFieldPtrPvPKvPi' => 1,
                                                   '_Z11InkStrerrori' => 1,
                                                   '_Z11ats_ip_hashPK8sockaddr' => 1,
                                                   '_Z11ats_ip_ntopPK8sockaddrPcm' => 1,
                                                   '_Z11ats_ip_ptonRKSt17basic_string_viewIcSt11char_traitsIcEEP8sockaddr' => 1,
                                                   '_Z11get_runrootv' => 1,
                                                   '_Z11ink_atoui64PKc' => 1,
                                                   '_Z11ink_ctime_rPKlPc' => 1,
                                                   '_Z11ink_eprintfPKcz' => 1,
                                                   '_Z11ink_strlcatPcPKcm' => 1,
                                                   '_Z11ink_strlcpyPcPKcm' => 1,
                                                   '_Z11ink_warningPKcz' => 1,
                                                   '_Z11read_socketiPci' => 1,
                                                   '_Z11runroot_mapRKNSt7__cxx1112basic_stringIcSt11char_traitsIcESaIcEEE' => 1,
                                                   '_Z11safe_clr_flii' => 1,
                                                   '_Z11safe_listenii' => 1,
                                                   '_Z11safe_set_flii' => 1,
                                                   '_Z12ats_ip_nptopPK8sockaddrPcm' => 1,
                                                   '_Z12ats_ip_parseSt17basic_string_viewIcSt11char_traitsIcEEPS2_S3_S3_' => 1,
                                                   '_Z12close_socketi' => 1,
                                                   '_Z12create_queuev' => 1,
                                                   '_Z12delete_queueP5llq_s' => 1,
                                                   '_Z12fd_read_chari' => 1,
                                                   '_Z12fd_read_lineiPci' => 1,
                                                   '_Z12global_usageB5cxx11' => -32,
                                                   '_Z12ink_bsprintfPcPKcz' => 1,
                                                   '_Z12ink_code_MMHPhiS_' => 1,
                                                   '_Z12ink_code_md5PKhiPh' => 1,
                                                   '_Z12ink_fatal_vaPKcP13__va_list_tag' => 1,
                                                   '_Z12ink_pwarningPKcz' => 1,
                                                   '_Z12ink_res_initP16ts_imp_res_statePK10IpEndpointmiPKcS5_S5_' => 1,
                                                   '_Z12ink_sem_initP13ink_semaphorej' => 1,
                                                   '_Z12ink_sem_postP13ink_semaphore' => 1,
                                                   '_Z12ink_sem_waitP13ink_semaphore' => 1,
                                                   '_Z12int64_to_strPcjlPjjc' => 1,
                                                   '_Z12is_directoryRKNSt7__cxx1112basic_stringIcSt11char_traitsIcESaIcEEE' => 1,
                                                   '_Z12process_argsPK14AppVersionInfoPK19ArgumentDescriptionjPPKcS6_' => 1,
                                                   '_Z12write_socketiPKci' => 1,
                                                   '_Z13ats_ip_to_hexPK8sockaddrPcm' => 1,
                                                   '_Z13check_runrootB5cxx11v' => 1,
                                                   '_Z13check_signalsPFviP9siginfo_tPvE' => 1,
                                                   '_Z13get_cont_flagN9ContFlags5flagsE' => 1,
                                                   '_Z13ink_bvsprintfPcPKcP13__va_list_tag' => 1,
                                                   '_Z13ink_emergencyPKcz' => 1,
                                                   '_Z13ink_inet_addrPKc' => 1,
                                                   '_Z13safe_blockingi' => 1,
                                                   '_Z13set_cont_flagN9ContFlags5flagsEb' => 1,
                                                   '_Z13unescapifyStrPc' => 1,
                                                   '_Z14EnableCoreFileb' => 1,
                                                   '_Z14ExtractIpRangePcP8sockaddrS1_' => 1,
                                                   '_Z14ExtractIpRangePcPjS0_' => 1,
                                                   '_Z14elevating_openPKcj' => 1,
                                                   '_Z14elevating_openPKcjj' => 1,
                                                   '_Z14elevating_statPKcP4stat' => 1,
                                                   '_Z14get_cont_flagsv' => 1,
                                                   '_Z14ink_mutex_initP15pthread_mutex_t' => 1,
                                                   '_Z14queue_is_emptyP5llq_s' => 1,
                                                   '_Z14readIntoBufferPKcS0_Pi' => 1,
                                                   '_Z14set_cont_flagsRK9ContFlags' => 1,
                                                   '_Z15AcidPtrMutexGetPKv' => 1,
                                                   '_Z15ImpersonateUserPKc18ImpersonationLevel' => 1,
                                                   '_Z15default_commandB5cxx11' => -32,
                                                   '_Z15elevating_chmodPKci' => 1,
                                                   '_Z15elevating_fopenPKcS0_' => 1,
                                                   '_Z15ink_localtime_rPKlP2tm' => 1,
                                                   '_Z15ink_res_mkqueryP16ts_imp_res_stateiPKciiPKhiS4_Phi' => 1,
                                                   '_Z15ink_rwlock_initP16pthread_rwlock_t' => 1,
                                                   '_Z15ink_sem_destroyP13ink_semaphore' => 1,
                                                   '_Z15ink_sem_trywaitP13ink_semaphore' => 1,
                                                   '_Z15parseConfigLinePcP12matcher_linePK12matcher_tags' => 1,
                                                   '_Z15process_args_exPK14AppVersionInfoPK19ArgumentDescriptionjPPKc' => 1,
                                                   '_Z15queue_highwaterP5llq_s' => 1,
                                                   '_Z15runroot_handlerPPKcb' => 1,
                                                   '_Z15safe_getsockoptiiiPcPi' => 1,
                                                   '_Z15safe_setsockoptiiiPci' => 1,
                                                   '_Z15signal_is_crashi' => 1,
                                                   '_Z16ats_ip_port_hashPK8sockaddr' => 1,
                                                   '_Z16ink_emergency_vaPKcP13__va_list_tag' => 1,
                                                   '_Z16ink_file_namemaxPKc' => 1,
                                                   '_Z16ink_get_topologyv' => 1,
                                                   '_Z16ink_microsecondsi' => 1,
                                                   '_Z16ink_ns_name_ntopPKhPcm' => 1,
                                                   '_Z16safe_getpeernameiP8sockaddrPi' => 1,
                                                   '_Z16safe_getsocknameiP8sockaddrPi' => 1,
                                                   '_Z16safe_nonblockingi' => 1,
                                                   '_Z16signal_is_maskedi' => 1,
                                                   '_Z17DebugCapabilitiesPKc' => 1,
                                                   '_Z17EnableDeathSignali' => 1,
                                                   '_Z17ImpersonateUserIDj18ImpersonationLevel' => 1,
                                                   '_Z17ats_base64_decodePKcmPhmPm' => 1,
                                                   '_Z17ats_base64_encodePKcmPcmPm' => 1,
                                                   '_Z17ats_base64_encodePKhmPcmPm' => 1,
                                                   '_Z17ats_free_hugepagePvm' => 1,
                                                   '_Z17ats_host_res_fromiRA3_K17HostResPreference' => 1,
                                                   '_Z17ats_hugepage_initi' => 1,
                                                   '_Z17ats_hugepage_sizev' => 1,
                                                   '_Z17ats_tcp_somaxconnv' => 1,
                                                   '_Z17ats_unique_mallocm' => 1,
                                                   '_Z17ink_filepath_makePciPKcS1_' => 1,
                                                   '_Z17ink_get_max_filesv' => 1,
                                                   '_Z17ink_mutex_destroyP15pthread_mutex_t' => 1,
                                                   '_Z17ink_string_appendPcS_i' => 1,
                                                   '_Z17validate_hostnameP7x509_stPKhbPPc' => 1,
                                                   '_Z18AcidCommitMutexGetPKv' => 1,
                                                   '_Z18ats_alloc_hugepagem' => 1,
                                                   '_Z18ats_ip_family_namei' => 1,
                                                   '_Z18ats_ip_range_parseSt17basic_string_viewIcSt11char_traitsIcEER6IpAddrS4_' => 1,
                                                   '_Z18cftime_replacementPciPKcPKl' => 1,
                                                   '_Z18ink_filepath_mergePciPKcS1_i' => 1,
                                                   '_Z18ink_fileperm_parsePKc' => 1,
                                                   '_Z18ink_login_name_maxv' => 1,
                                                   '_Z18ink_max_out_rlimiti' => 1,
                                                   '_Z18ink_res_getserversP16ts_imp_res_stateP8sockaddri' => 1,
                                                   '_Z18ink_rwlock_destroyP16pthread_rwlock_t' => 1,
                                                   '_Z19parser_program_nameB5cxx11' => -32,
                                                   '_Z19runroot_map_defaultB5cxx11v' => 1,
                                                   '_Z20Load_IpMap_From_FileP5IpMapP8_IO_FILEPKc' => 1,
                                                   '_Z20Load_IpMap_From_FileP5IpMapiPKc' => 1,
                                                   '_Z20PreserveCapabilitiesv' => 1,
                                                   '_Z20RestrictCapabilitiesv' => 1,
                                                   '_Z20ats_hugepage_enabledv' => 1,
                                                   '_Z20ink_file_fd_readlineiiPc' => 1,
                                                   '_Z20ink_file_fd_zerofillil' => 1,
                                                   '_Z20ink_sys_name_releasePciS_i' => 1,
                                                   '_Z20signal_check_handleriPFviP9siginfo_tPvE' => 1,
                                                   '_Z20signal_crash_handleriP9siginfo_tPv' => 1,
                                                   '_Z21ink_file_get_geometryiR19ink_device_geometry' => 1,
                                                   '_Z21ink_file_is_directoryPKc' => 1,
                                                   '_Z21ink_file_is_mmappablej' => 1,
                                                   '_Z21ink_memcpy_until_charPcS_jh' => 1,
                                                   '_Z21ink_time_wall_secondsv' => 1,
                                                   '_Z21processDurationStringPcPi' => 1,
                                                   '_Z21signal_format_siginfoiP9siginfo_tPKc' => 1,
                                                   '_Z22ats_ip_getbestaddrinfoPKcP10IpEndpointS2_' => 1,
                                                   '_Z22facility_string_to_intPKc' => 1,
                                                   '_Z22ink_code_incr_MMH_initP7MMH_CTX' => 1,
                                                   '_Z22ink_code_incr_md5_initP11MD5state_st' => 1,
                                                   '_Z22squid_timestamp_to_bufPcjll' => 1,
                                                   '_Z23ats_ip_check_charactersSt17basic_string_viewIcSt11char_traitsIcEE' => 1,
                                                   '_Z23bind_unix_domain_socketPKcj' => 1,
                                                   '_Z23ink_code_incr_MMH_finalPhP7MMH_CTX' => 1,
                                                   '_Z23ink_code_incr_md5_finalPcP11MD5state_st' => 1,
                                                   '_Z23ink_file_fd_writestringiPKc' => 1,
                                                   '_Z24ink_code_incr_MMH_updateP7MMH_CTXPKci' => 1,
                                                   '_Z24ink_code_incr_md5_updateP11MD5state_stPKci' => 1,
                                                   '_Z24ink_number_of_processorsv' => 1,
                                                   '_Z24regression_status_stringi' => 1,
                                                   '_Z25RegressionTest_RegressionP14RegressionTestiPi' => 1,
                                                   '_Z25argparser_runroot_handlerRKNSt7__cxx1112basic_stringIcSt11char_traitsIcESaIcEEEPKcb' => 1,
                                                   '_Z25ats_force_order_by_familyPK8sockaddrP17HostResPreference' => 1,
                                                   '_Z25parse_host_res_preferencePKcP17HostResPreference' => 1,
                                                   '_Z25signal_start_check_threadPFviP9siginfo_tPvE' => 1,
                                                   '_Z27show_argument_configurationPK19ArgumentDescriptionj' => 1,
                                                   '_Z27ts_host_res_order_to_stringRA3_K17HostResPreferencePci' => 1,
                                                   '_Z29RegressionTest_AppVersionInfoP14RegressionTestiPi' => 1,
                                                   '_Z29signal_register_crash_handlerPFviP9siginfo_tPvE' => 1,
                                                   '_Z30RegressionTest_libts_TokenizerP14RegressionTestiPi' => 1,
                                                   '_Z30ink_string_concatenate_stringsPcz' => 1,
                                                   '_Z31signal_register_default_handlerPFviP9siginfo_tPvE' => 1,
                                                   '_Z32ink_string_concatenate_strings_nPciz' => 1,
                                                   '_Z5rperfP14RegressionTestPKcd' => 1,
                                                   '_Z5usagePK19ArgumentDescriptionjPKc' => 1,
                                                   '_Z6cftimePcS_PKl' => 1,
                                                   '_Z6existsRKNSt7__cxx1112basic_stringIcSt11char_traitsIcESaIcEEE' => 1,
                                                   '_Z7dequeueP5llq_s' => 1,
                                                   '_Z7enqueueP5llq_sPv' => 1,
                                                   '_Z7rprintfP14RegressionTestPKcz' => 1,
                                                   '_Z7tokLinePcPS_c' => 1,
                                                   '_Z9ink_abortPKcz' => 1,
                                                   '_Z9ink_errorPKcz' => 1,
                                                   '_Z9ink_fatalPKcz' => 1,
                                                   '_Z9queue_lenP5llq_s' => 1,
                                                   '_Z9read_addrPciPiP8sockaddrS_' => 1,
                                                   '_Z9safe_bindiPK8sockaddri' => 1,
                                                   '_ZN10ATSHashMD55clearEv' => 1,
                                                   '_ZN10ATSHashMD55finalEv' => 1,
                                                   '_ZN10ATSHashMD56updateEPKvm' => 1,
                                                   '_ZN10ATSHashMD5C1Ev' => 1,
                                                   '_ZN10ATSHashMD5C2Ev' => 1,
                                                   '_ZN10ATSHashMD5D0Ev' => 1,
                                                   '_ZN10ATSHashMD5D1Ev' => 1,
                                                   '_ZN10ATSHashMD5D2Ev' => 1,
                                                   '_ZN10HostBranchD1Ev' => 1,
                                                   '_ZN10HostBranchD2Ev' => 1,
                                                   '_ZN10HostLookup10MatchArrayEP15HostLookupStatePPvRSt6vectorIiSaIiEEb' => 1,
                                                   '_ZN10HostLookup10MatchFirstESt17basic_string_viewIcSt11char_traitsIcEEP15HostLookupStatePPv' => 1,
                                                   '_ZN10HostLookup11TableInsertESt17basic_string_viewIcSt11char_traitsIcEEib' => 1,
                                                   '_ZN10HostLookup12InsertBranchEP10HostBranchSt17basic_string_viewIcSt11char_traitsIcEE' => 1,
                                                   '_ZN10HostLookup13AllocateSpaceEi' => 1,
                                                   '_ZN10HostLookup13FindNextLevelEP10HostBranchSt17basic_string_viewIcSt11char_traitsIcEEb' => 1,
                                                   '_ZN10HostLookup13TableNewLevelEP10HostBranchSt17basic_string_viewIcSt11char_traitsIcEE' => 1,
                                                   '_ZN10HostLookup15PrintHostBranchEP10HostBranchRKSt8functionIFvPvEE' => 1,
                                                   '_ZN10HostLookup5PrintERKSt8functionIFvPvEE' => 1,
                                                   '_ZN10HostLookup5PrintEv' => 1,
                                                   '_ZN10HostLookup8NewEntryESt17basic_string_viewIcSt11char_traitsIcEEbPv' => 1,
                                                   '_ZN10HostLookup9MatchNextEP15HostLookupStatePPv' => 1,
                                                   '_ZN10HostLookupC1ESt17basic_string_viewIcSt11char_traitsIcEE' => 1,
                                                   '_ZN10HostLookupC2ESt17basic_string_viewIcSt11char_traitsIcEE' => 1,
                                                   '_ZN10MD5Context6updateEPKvi' => 1,
                                                   '_ZN10MD5Context8finalizeERN3ats10CryptoHashE' => 1,
                                                   '_ZN10MD5ContextC1Ev' => 1,
                                                   '_ZN10MD5ContextC2Ev' => 1,
                                                   '_ZN10MD5ContextD0Ev' => 1,
                                                   '_ZN10MD5ContextD1Ev' => 1,
                                                   '_ZN10MD5ContextD2Ev' => 1,
                                                   '_ZN10MMHContext6updateEPKvi' => 1,
                                                   '_ZN10MMHContext8finalizeERN3ats10CryptoHashE' => 1,
                                                   '_ZN10MMHContextC1Ev' => 1,
                                                   '_ZN10MMHContextC2Ev' => 1,
                                                   '_ZN10MMHContextD0Ev' => 1,
                                                   '_ZN10MMHContextD1Ev' => 1,
                                                   '_ZN10MMHContextD2Ev' => 1,
                                                   '_ZN10ParseRules5is_wsEc' => 1,
                                                   '_ZN10ParseRules8is_digitEc' => 1,
                                                   '_ZN10TextBuffer10readFromFDEi' => 1,
                                                   '_ZN10TextBuffer13enlargeBufferEj' => 1,
                                                   '_ZN10TextBuffer15rawReadFromFileEi' => 1,
                                                   '_ZN10TextBuffer5chompEv' => 1,
                                                   '_ZN10TextBuffer5reUseEv' => 1,
                                                   '_ZN10TextBuffer5slurpEi' => 1,
                                                   '_ZN10TextBuffer6formatEPKcz' => 1,
                                                   '_ZN10TextBuffer7releaseEv' => 1,
                                                   '_ZN10TextBuffer7vformatEPKcP13__va_list_tag' => 1,
                                                   '_ZN10TextBuffer8copyFromEPKvj' => 1,
                                                   '_ZN10TextBufferC1Ei' => 1,
                                                   '_ZN10TextBufferC2Ei' => 1,
                                                   '_ZN10TextBufferD1Ev' => 1,
                                                   '_ZN10TextBufferD2Ev' => 1,
                                                   '_ZN11ATSHashBaseD0Ev' => 1,
                                                   '_ZN11ATSHashBaseD1Ev' => 1,
                                                   '_ZN11ATSHashBaseD2Ev' => 1,
                                                   '_ZN11BaseLogFile10close_fileEv' => 1,
                                                   '_ZN11BaseLogFile11change_nameEPKc' => 1,
                                                   '_ZN11BaseLogFile14rolled_logfileEPc' => 1,
                                                   '_ZN11BaseLogFile16timestamp_to_strElPci' => 1,
                                                   '_ZN11BaseLogFile4rollEll' => 1,
                                                   '_ZN11BaseLogFile4rollEv' => 1,
                                                   '_ZN11BaseLogFile6existsEPKc' => 1,
                                                   '_ZN11BaseLogFile7displayEP8_IO_FILE' => 1,
                                                   '_ZN11BaseLogFile7log_logE19LogLogPriorityLevelPKcz' => 1,
                                                   '_ZN11BaseLogFile9open_fileEi' => 1,
                                                   '_ZN11BaseLogFileC1EPKc' => 1,
                                                   '_ZN11BaseLogFileC1EPKcm' => 1,
                                                   '_ZN11BaseLogFileC1ERKS_' => 1,
                                                   '_ZN11BaseLogFileC2EPKc' => 1,
                                                   '_ZN11BaseLogFileC2EPKcm' => 1,
                                                   '_ZN11BaseLogFileC2ERKS_' => 1,
                                                   '_ZN11BaseLogFileD1Ev' => 1,
                                                   '_ZN11BaseLogFileD2Ev' => 1,
                                                   '_ZN11EventNotify4lockEv' => 1,
                                                   '_ZN11EventNotify4waitEv' => 1,
                                                   '_ZN11EventNotify6signalEv' => 1,
                                                   '_ZN11EventNotify6unlockEv' => 1,
                                                   '_ZN11EventNotify7trylockEv' => 1,
                                                   '_ZN11EventNotify9timedwaitEi' => 1,
                                                   '_ZN11EventNotifyC1Ev' => 1,
                                                   '_ZN11EventNotifyC2Ev' => 1,
                                                   '_ZN11EventNotifyD1Ev' => 1,
                                                   '_ZN11EventNotifyD2Ev' => 1,
                                                   '_ZN12BaseMetaInfo11_build_nameEPKc' => 1,
                                                   '_ZN12BaseMetaInfo14_write_to_fileEv' => 1,
                                                   '_ZN12BaseMetaInfo15_read_from_fileEv' => 1,
                                                   '_ZN13ElevateAccess16acquirePrivilegeEj' => 1,
                                                   '_ZN13ElevateAccess16releasePrivilegeEv' => 1,
                                                   '_ZN13ElevateAccess6demoteEv' => 1,
                                                   '_ZN13ElevateAccess7elevateEj' => 1,
                                                   '_ZN13ElevateAccessC1Ej' => 1,
                                                   '_ZN13ElevateAccessC2Ej' => 1,
                                                   '_ZN13ElevateAccessD1Ev' => 1,
                                                   '_ZN13ElevateAccessD2Ev' => 1,
                                                   '_ZN14ATSHash32FNV1a5clearEv' => 1,
                                                   '_ZN14ATSHash32FNV1a5finalEv' => 1,
                                                   '_ZN14ATSHash32FNV1a6updateEPKvm' => 1,
                                                   '_ZN14ATSHash32FNV1a6updateIN7ATSHash8nullxfrmEEEvPKvmT_' => 1,
                                                   '_ZN14ATSHash32FNV1aC1Ev' => 1,
                                                   '_ZN14ATSHash32FNV1aC2Ev' => 1,
                                                   '_ZN14ATSHash32FNV1aD0Ev' => 1,
                                                   '_ZN14ATSHash32FNV1aD1Ev' => 1,
                                                   '_ZN14ATSHash32FNV1aD2Ev' => 1,
                                                   '_ZN14ATSHash64FNV1a5clearEv' => 1,
                                                   '_ZN14ATSHash64FNV1a5finalEv' => 1,
                                                   '_ZN14ATSHash64FNV1a6updateEPKvm' => 1,
                                                   '_ZN14ATSHash64FNV1a6updateIN7ATSHash8nullxfrmEEEvPKvmT_' => 1,
                                                   '_ZN14ATSHash64FNV1aC1Ev' => 1,
                                                   '_ZN14ATSHash64FNV1aC2Ev' => 1,
                                                   '_ZN14ATSHash64FNV1aD0Ev' => 1,
                                                   '_ZN14ATSHash64FNV1aD1Ev' => 1,
                                                   '_ZN14ATSHash64FNV1aD2Ev' => 1,
                                                   '_ZN14ATSHash64Sip245clearEv' => 1,
                                                   '_ZN14ATSHash64Sip245finalEv' => 1,
                                                   '_ZN14ATSHash64Sip246updateEPKvm' => 1,
                                                   '_ZN14ATSHash64Sip24C1EPKh' => 1,
                                                   '_ZN14ATSHash64Sip24C1Emm' => 1,
                                                   '_ZN14ATSHash64Sip24C1Ev' => 1,
                                                   '_ZN14ATSHash64Sip24C2EPKh' => 1,
                                                   '_ZN14ATSHash64Sip24C2Emm' => 1,
                                                   '_ZN14ATSHash64Sip24C2Ev' => 1,
                                                   '_ZN14ATSHash64Sip24D0Ev' => 1,
                                                   '_ZN14ATSHash64Sip24D1Ev' => 1,
                                                   '_ZN14ATSHash64Sip24D2Ev' => 1,
                                                   '_ZN14AppVersionInfo5setupEPKcS1_S1_S1_S1_S1_S1_S1_' => 1,
                                                   '_ZN14AppVersionInfoC1Ev' => 1,
                                                   '_ZN14AppVersionInfoC2Ev' => 1,
                                                   '_ZN14RegressionTest12check_statusEi' => 1,
                                                   '_ZN14RegressionTest12final_statusE' => -4,
                                                   '_ZN14RegressionTest3dfaE' => -24,
                                                   '_ZN14RegressionTest3runEPKci' => 1,
                                                   '_ZN14RegressionTest4listEv' => 1,
                                                   '_ZN14RegressionTest4mainEiPPKci' => 1,
                                                   '_ZN14RegressionTest7currentE' => -8,
                                                   '_ZN14RegressionTest8run_someEi' => 1,
                                                   '_ZN14RegressionTest9ran_testsE' => -4,
                                                   '_ZN14RegressionTestC1EPKcRK14SourceLocationPFvPS_iPiEi' => 1,
                                                   '_ZN14RegressionTestC2EPKcRK14SourceLocationPFvPS_iPiEi' => 1,
                                                   '_ZN14ats_scoped_straSESt17basic_string_viewIcSt11char_traitsIcEE' => 1,
                                                   '_ZN15ResourceTracker12_resourceMapE' => -48,
                                                   '_ZN15ResourceTracker12resourceLockE' => -40,
                                                   '_ZN15ResourceTracker4dumpEP8_IO_FILE' => 1,
                                                   '_ZN15ResourceTracker6lookupEPKc' => 1,
                                                   '_ZN15ResourceTracker9incrementEPKcl' => 1,
                                                   '_ZN15ResourceTracker9incrementEPKvlPKc' => 1,
                                                   '_ZN15SimpleTokenizer10_clearDataEv' => 1,
                                                   '_ZN15SimpleTokenizer8_getNextEcbi' => 1,
                                                   '_ZN15StrListOverflow11create_heapEi' => 1,
                                                   '_ZN15StrListOverflow4initEv' => 1,
                                                   '_ZN15StrListOverflow5allocEiPPS_' => 1,
                                                   '_ZN15StrListOverflow5cleanEv' => 1,
                                                   '_ZN16DiagsConfigState7enabledE' => -8,
                                                   '_ZN17ATSConsistentHash16lookup_availableEPKcPSt17_Rb_tree_iteratorISt4pairIKmP21ATSConsistentHashNodeEEPbP9ATSHash64' => 1,
                                                   '_ZN17ATSConsistentHash17lookup_by_hashvalEmPSt17_Rb_tree_iteratorISt4pairIKmP21ATSConsistentHashNodeEEPb' => 1,
                                                   '_ZN17ATSConsistentHash6insertEP21ATSConsistentHashNodefP9ATSHash64' => 1,
                                                   '_ZN17ATSConsistentHash6lookupEPKcPSt17_Rb_tree_iteratorISt4pairIKmP21ATSConsistentHashNodeEEPbP9ATSHash64' => 1,
                                                   '_ZN17ATSConsistentHashC1EiP9ATSHash64' => 1,
                                                   '_ZN17ATSConsistentHashC2EiP9ATSHash64' => 1,
                                                   '_ZN17ATSConsistentHashD1Ev' => 1,
                                                   '_ZN17ATSConsistentHashD2Ev' => 1,
                                                   '_ZN21x_pthread_mutexattr_tD1Ev' => 1,
                                                   '_ZN21x_pthread_mutexattr_tD2Ev' => 1,
                                                   '_ZN2ts11NumericTypeIjNS_7CodeTagEEaSERKS2_' => 1,
                                                   '_ZN2ts11NumericTypeIjNS_8MsgIdTagEEaSERKS2_' => 1,
                                                   '_ZN2ts12BufferWriter4fillEm' => 1,
                                                   '_ZN2ts12BufferWriter5printIJPK8sockaddrS4_RKPvEEERS0_NS_8TextViewEDpOT_' => 1,
                                                   '_ZN2ts12BufferWriter5printIJPKcRKPNS_6detail6RBNodeES8_S8_EEERS0_NS_8TextViewEDpOT_' => 1,
                                                   '_ZN2ts12BufferWriter5printIJRKiEEERS0_RKNS_8BWFormatEDpOT_' => 1,
                                                   '_ZN2ts12BufferWriter5printIJRKtEEERS0_NS_8TextViewEDpOT_' => 1,
                                                   '_ZN2ts12BufferWriter5printIJRNS_8TextViewERKiNS_3bwf13OptionalAffixEEEERS0_S2_DpOT_' => 1,
                                                   '_ZN2ts12BufferWriter5printIJRiRmEEERS0_RKNS_8BWFormatEDpOT_' => 1,
                                                   '_ZN2ts12BufferWriter5printIJmPvEEERS0_RKNS_8BWFormatEDpOT_' => 1,
                                                   '_ZN2ts12BufferWriter5printIJtEEERS0_NS_8TextViewEDpOT_' => 1,
                                                   '_ZN2ts12BufferWriter5writeEPKvm' => 1,
                                                   '_ZN2ts12BufferWriter6printvIJEEERS0_NS_8TextViewERKSt5tupleIJDpT_EE' => 1,
                                                   '_ZN2ts12BufferWriter6printvIJRK14SourceLocationEEERS0_NS_8TextViewERKSt5tupleIJDpT_EE' => 1,
                                                   '_ZN2ts12BufferWriter6printvIJRKiEEERS0_RKNS_8BWFormatERKSt5tupleIJDpT_EE' => 1,
                                                   '_ZN2ts12BufferWriter6printvIJRKtEEERS0_NS_8TextViewERKSt5tupleIJDpT_EE' => 1,
                                                   '_ZN2ts12BufferWriter6printvIJRNS_8TextViewERKiRNS_3bwf13OptionalAffixEEEERS0_S2_RKSt5tupleIJDpT_EE' => 1,
                                                   '_ZN2ts12BufferWriter6printvIJRPK8sockaddrS5_RKPvEEERS0_NS_8TextViewERKSt5tupleIJDpT_EE' => 1,
                                                   '_ZN2ts12BufferWriter6printvIJRPKcEEERS0_NS_8TextViewERKSt5tupleIJDpT_EE' => 1,
                                                   '_ZN2ts12BufferWriter6printvIJRPKcRKPNS_6detail6RBNodeES9_S9_EEERS0_NS_8TextViewERKSt5tupleIJDpT_EE' => 1,
                                                   '_ZN2ts12BufferWriter6printvIJRiRmEEERS0_RKNS_8BWFormatERKSt5tupleIJDpT_EE' => 1,
                                                   '_ZN2ts12BufferWriter6printvIJRlEEERS0_NS_8TextViewERKSt5tupleIJDpT_EE' => 1,
                                                   '_ZN2ts12BufferWriter6printvIJRmRPvEEERS0_RKNS_8BWFormatERKSt5tupleIJDpT_EE' => 1,
                                                   '_ZN2ts12BufferWriter6printvIJRtEEERS0_NS_8TextViewERKSt5tupleIJDpT_EE' => 1,
                                                   '_ZN2ts12BufferWriter9auxBufferEv' => 1,
                                                   '_ZN2ts12IntrusivePtrINS_6Errata4DataEE3setEPS2_' => 1,
                                                   '_ZN2ts12IntrusivePtrINS_6Errata4DataEE5resetEPS2_' => 1,
                                                   '_ZN2ts12IntrusivePtrINS_6Errata4DataEE5unsetEv' => 1,
                                                   '_ZN2ts12IntrusivePtrINS_6Errata4DataEE7releaseEv' => 1,
                                                   '_ZN2ts12IntrusivePtrINS_6Errata4DataEEC1EPS2_' => 1,
                                                   '_ZN2ts12IntrusivePtrINS_6Errata4DataEEC1ERKS3_' => 1,
                                                   '_ZN2ts12IntrusivePtrINS_6Errata4DataEEC1Ev' => 1,
                                                   '_ZN2ts12IntrusivePtrINS_6Errata4DataEEC2EPS2_' => 1,
                                                   '_ZN2ts12IntrusivePtrINS_6Errata4DataEEC2ERKS3_' => 1,
                                                   '_ZN2ts12IntrusivePtrINS_6Errata4DataEEC2Ev' => 1,
                                                   '_ZN2ts12IntrusivePtrINS_6Errata4DataEED1Ev' => 1,
                                                   '_ZN2ts12IntrusivePtrINS_6Errata4DataEED2Ev' => 1,
                                                   '_ZN2ts12IntrusivePtrINS_6Errata4DataEEaSERKS3_' => 1,
                                                   '_ZN2ts12IntrusivePtrINS_6Errata4SinkEE3setEPS2_' => 1,
                                                   '_ZN2ts12IntrusivePtrINS_6Errata4SinkEE5unsetEv' => 1,
                                                   '_ZN2ts12IntrusivePtrINS_6Errata4SinkEEC1ERKS3_' => 1,
                                                   '_ZN2ts12IntrusivePtrINS_6Errata4SinkEEC2ERKS3_' => 1,
                                                   '_ZN2ts12IntrusivePtrINS_6Errata4SinkEED1Ev' => 1,
                                                   '_ZN2ts12IntrusivePtrINS_6Errata4SinkEED2Ev' => 1,
                                                   '_ZN2ts12IntrusivePtrINS_8MemArena5BlockEE3setEPS2_' => 1,
                                                   '_ZN2ts12IntrusivePtrINS_8MemArena5BlockEE5resetEPS2_' => 1,
                                                   '_ZN2ts12IntrusivePtrINS_8MemArena5BlockEE5unsetEv' => 1,
                                                   '_ZN2ts12IntrusivePtrINS_8MemArena5BlockEEC1EPS2_' => 1,
                                                   '_ZN2ts12IntrusivePtrINS_8MemArena5BlockEEC1Ev' => 1,
                                                   '_ZN2ts12IntrusivePtrINS_8MemArena5BlockEEC2EPS2_' => 1,
                                                   '_ZN2ts12IntrusivePtrINS_8MemArena5BlockEEC2Ev' => 1,
                                                   '_ZN2ts12IntrusivePtrINS_8MemArena5BlockEED1Ev' => 1,
                                                   '_ZN2ts12IntrusivePtrINS_8MemArena5BlockEED2Ev' => 1,
                                                   '_ZN2ts12IntrusivePtrINS_8MemArena5BlockEEaSEOS3_' => 1,
                                                   '_ZN2ts12IntrusivePtrINS_8MemArena5BlockEEaSERKS3_' => 1,
                                                   '_ZN2ts14IntrusiveDListINS_6detail9IpMapBaseINS1_7Ip4NodeEE11NodeLinkageEE12insert_afterEPNS1_6RBNodeES8_' => 1,
                                                   '_ZN2ts14IntrusiveDListINS_6detail9IpMapBaseINS1_7Ip4NodeEE11NodeLinkageEE13insert_beforeEPNS1_6RBNodeES8_' => 1,
                                                   '_ZN2ts14IntrusiveDListINS_6detail9IpMapBaseINS1_7Ip4NodeEE11NodeLinkageEE14const_iteratorC1EPKS6_PKNS1_6RBNodeE' => 1,
                                                   '_ZN2ts14IntrusiveDListINS_6detail9IpMapBaseINS1_7Ip4NodeEE11NodeLinkageEE14const_iteratorC2EPKS6_PKNS1_6RBNodeE' => 1,
                                                   '_ZN2ts14IntrusiveDListINS_6detail9IpMapBaseINS1_7Ip4NodeEE11NodeLinkageEE14const_iteratorppEv' => 1,
                                                   '_ZN2ts14IntrusiveDListINS_6detail9IpMapBaseINS1_7Ip4NodeEE11NodeLinkageEE4headEv' => 1,
                                                   '_ZN2ts14IntrusiveDListINS_6detail9IpMapBaseINS1_7Ip4NodeEE11NodeLinkageEE4tailEv' => 1,
                                                   '_ZN2ts14IntrusiveDListINS_6detail9IpMapBaseINS1_7Ip4NodeEE11NodeLinkageEE5clearEv' => 1,
                                                   '_ZN2ts14IntrusiveDListINS_6detail9IpMapBaseINS1_7Ip4NodeEE11NodeLinkageEE5eraseEPNS1_6RBNodeE' => 1,
                                                   '_ZN2ts14IntrusiveDListINS_6detail9IpMapBaseINS1_7Ip4NodeEE11NodeLinkageEE6appendEPNS1_6RBNodeE' => 1,
                                                   '_ZN2ts14IntrusiveDListINS_6detail9IpMapBaseINS1_7Ip4NodeEE11NodeLinkageEE7prependEPNS1_6RBNodeE' => 1,
                                                   '_ZN2ts14IntrusiveDListINS_6detail9IpMapBaseINS1_7Ip6NodeEE11NodeLinkageEE12insert_afterEPNS1_6RBNodeES8_' => 1,
                                                   '_ZN2ts14IntrusiveDListINS_6detail9IpMapBaseINS1_7Ip6NodeEE11NodeLinkageEE13insert_beforeEPNS1_6RBNodeES8_' => 1,
                                                   '_ZN2ts14IntrusiveDListINS_6detail9IpMapBaseINS1_7Ip6NodeEE11NodeLinkageEE14const_iteratorC1EPKS6_PKNS1_6RBNodeE' => 1,
                                                   '_ZN2ts14IntrusiveDListINS_6detail9IpMapBaseINS1_7Ip6NodeEE11NodeLinkageEE14const_iteratorC2EPKS6_PKNS1_6RBNodeE' => 1,
                                                   '_ZN2ts14IntrusiveDListINS_6detail9IpMapBaseINS1_7Ip6NodeEE11NodeLinkageEE14const_iteratorppEv' => 1,
                                                   '_ZN2ts14IntrusiveDListINS_6detail9IpMapBaseINS1_7Ip6NodeEE11NodeLinkageEE4headEv' => 1,
                                                   '_ZN2ts14IntrusiveDListINS_6detail9IpMapBaseINS1_7Ip6NodeEE11NodeLinkageEE4tailEv' => 1,
                                                   '_ZN2ts14IntrusiveDListINS_6detail9IpMapBaseINS1_7Ip6NodeEE11NodeLinkageEE5clearEv' => 1,
                                                   '_ZN2ts14IntrusiveDListINS_6detail9IpMapBaseINS1_7Ip6NodeEE11NodeLinkageEE5eraseEPNS1_6RBNodeE' => 1,
                                                   '_ZN2ts14IntrusiveDListINS_6detail9IpMapBaseINS1_7Ip6NodeEE11NodeLinkageEE6appendEPNS1_6RBNodeE' => 1,
                                                   '_ZN2ts14IntrusiveDListINS_6detail9IpMapBaseINS1_7Ip6NodeEE11NodeLinkageEE7prependEPNS1_6RBNodeE' => 1,
                                                   '_ZN2ts17FixedBufferWriter4clipEm' => 1,
                                                   '_ZN2ts17FixedBufferWriter4fillEm' => 1,
                                                   '_ZN2ts17FixedBufferWriter5writeEPKvm' => 1,
                                                   '_ZN2ts17FixedBufferWriter5writeEc' => 1,
                                                   '_ZN2ts17FixedBufferWriter6extendEm' => 1,
                                                   '_ZN2ts17FixedBufferWriter9auxBufferEv' => 1,
                                                   '_ZN2ts17FixedBufferWriterD0Ev' => 1,
                                                   '_ZN2ts17FixedBufferWriterD1Ev' => 1,
                                                   '_ZN2ts17FixedBufferWriterD2Ev' => 1,
                                                   '_ZN2ts17LocalBufferWriterILm1024EE6extendEm' => 1,
                                                   '_ZN2ts17LocalBufferWriterILm1024EED0Ev' => 1,
                                                   '_ZN2ts17LocalBufferWriterILm1024EED1Ev' => 1,
                                                   '_ZN2ts17LocalBufferWriterILm1024EED2Ev' => 1,
                                                   '_ZN2ts17LocalBufferWriterILm48EE6extendEm' => 1,
                                                   '_ZN2ts17LocalBufferWriterILm48EED0Ev' => 1,
                                                   '_ZN2ts17LocalBufferWriterILm48EED1Ev' => 1,
                                                   '_ZN2ts17LocalBufferWriterILm48EED2Ev' => 1,
                                                   '_ZN2ts19bwf_register_globalESt17basic_string_viewIcSt11char_traitsIcEEPFvRNS_12BufferWriterERKNS_7BWFSpecEE' => 1,
                                                   '_ZN2ts25IntrusivePtrDefaultPolicyINS_6Errata4DataEE8finalizeEPS2_' => 1,
                                                   '_ZN2ts25IntrusivePtrDefaultPolicyINS_6Errata4SinkEE8finalizeEPS2_' => 1,
                                                   '_ZN2ts25IntrusivePtrDefaultPolicyINS_8MemArena5BlockEE8finalizeEPS2_' => 1,
                                                   '_ZN2ts3bwf4DateC1ESt17basic_string_viewIcSt11char_traitsIcEE' => 1,
                                                   '_ZN2ts3bwf4DateC2ESt17basic_string_viewIcSt11char_traitsIcEE' => 1,
                                                   '_ZN2ts3bwf8Hex_DumpERK10IpEndpoint' => 1,
                                                   '_ZN2ts4file11is_readableERKNS0_4pathE' => 1,
                                                   '_ZN2ts4file12current_pathEv' => 1,
                                                   '_ZN2ts4file14is_char_deviceERKNS0_11file_statusE' => 1,
                                                   '_ZN2ts4file15is_block_deviceERKNS0_11file_statusE' => 1,
                                                   '_ZN2ts4file15is_regular_fileERKNS0_11file_statusE' => 1,
                                                   '_ZN2ts4file17modification_timeERKNS0_11file_statusE' => 1,
                                                   '_ZN2ts4file18create_directoriesERKNS0_4pathERSt10error_codej' => 1,
                                                   '_ZN2ts4file19temp_directory_pathEv' => 1,
                                                   '_ZN2ts4file4copyERKNS0_4pathES3_RSt10error_code' => 1,
                                                   '_ZN2ts4file4loadB5cxx11ERKNS0_4pathERSt10error_code' => 1,
                                                   '_ZN2ts4file4pathdVESt17basic_string_viewIcSt11char_traitsIcEE' => 1,
                                                   '_ZN2ts4file6existsERKNS0_4pathE' => 1,
                                                   '_ZN2ts4file6is_dirERKNS0_11file_statusE' => 1,
                                                   '_ZN2ts4file6removeERKNS0_4pathERSt10error_code' => 1,
                                                   '_ZN2ts4file6statusERKNS0_4pathERSt10error_code' => 1,
                                                   '_ZN2ts4file8filenameERKNS0_4pathE' => 1,
                                                   '_ZN2ts4file9canonicalERKNS0_4pathERSt10error_code' => 1,
                                                   '_ZN2ts4file9file_sizeERKNS0_11file_statusE' => 1,
                                                   '_ZN2ts4file9file_typeERKNS0_11file_statusE' => 1,
                                                   '_ZN2ts6Errata11NIL_MESSAGEE' => -48,
                                                   '_ZN2ts6Errata12DEFAULT_GLUEB5cxx11E' => -32,
                                                   '_ZN2ts6Errata12registerSinkERKNS_12IntrusivePtrINS0_4SinkEEE' => 1,
                                                   '_ZN2ts6Errata3endEv' => 1,
                                                   '_ZN2ts6Errata3popEv' => 1,
                                                   '_ZN2ts6Errata4Data4pushEONS0_7MessageE' => 1,
                                                   '_ZN2ts6Errata4Data4pushERKNS0_7MessageE' => 1,
                                                   '_ZN2ts6Errata4DataD1Ev' => 1,
                                                   '_ZN2ts6Errata4DataD2Ev' => 1,
                                                   '_ZN2ts6Errata4pullERS0_' => 1,
                                                   '_ZN2ts6Errata4pushEONS0_7MessageE' => 1,
                                                   '_ZN2ts6Errata4pushERKNS0_7MessageE' => 1,
                                                   '_ZN2ts6Errata5beginEv' => 1,
                                                   '_ZN2ts6Errata5clearEv' => 1,
                                                   '_ZN2ts6Errata7Message10isCodeZeroERKS1_' => 1,
                                                   '_ZN2ts6Errata7Message12Default_CodeE' => -4,
                                                   '_ZN2ts6Errata7Message12Success_TestE' => -8,
                                                   '_ZN2ts6Errata7Message20DEFAULT_SUCCESS_TESTE' => -8,
                                                   '_ZN2ts6Errata7MessageD1Ev' => 1,
                                                   '_ZN2ts6Errata7MessageD2Ev' => 1,
                                                   '_ZN2ts6Errata8instanceEv' => 1,
                                                   '_ZN2ts6Errata9pre_writeEv' => 1,
                                                   '_ZN2ts6ErrataC1ENS_11NumericTypeIjNS_8MsgIdTagEEERKNSt7__cxx1112basic_stringIcSt11char_traitsIcESaIcEEE' => 1,
                                                   '_ZN2ts6ErrataC1EOS0_' => 1,
                                                   '_ZN2ts6ErrataC1ERKNSt7__cxx1112basic_stringIcSt11char_traitsIcESaIcEEE' => 1,
                                                   '_ZN2ts6ErrataC1ERKS0_' => 1,
                                                   '_ZN2ts6ErrataC2ENS_11NumericTypeIjNS_8MsgIdTagEEERKNSt7__cxx1112basic_stringIcSt11char_traitsIcESaIcEEE' => 1,
                                                   '_ZN2ts6ErrataC2EOS0_' => 1,
                                                   '_ZN2ts6ErrataC2ERKNSt7__cxx1112basic_stringIcSt11char_traitsIcESaIcEEE' => 1,
                                                   '_ZN2ts6ErrataC2ERKS0_' => 1,
                                                   '_ZN2ts6ErrataD1Ev' => 1,
                                                   '_ZN2ts6ErrataD2Ev' => 1,
                                                   '_ZN2ts6ErrataaSEOS0_' => 1,
                                                   '_ZN2ts6ErrataaSERKNS0_7MessageE' => 1,
                                                   '_ZN2ts6ErrataaSERKS0_' => 1,
                                                   '_ZN2ts6bw_fmt12Do_AlignmentERKNS_7BWFSpecERNS_12BufferWriterES5_' => 1,
                                                   '_ZN2ts6bw_fmt13Arg_FormatterIRKSt5tupleIJRK14SourceLocationEELm0EEERNS_12BufferWriterESA_RKNS_7BWFSpecERKT_' => 1,
                                                   '_ZN2ts6bw_fmt13Arg_FormatterIRKSt5tupleIJRKiEELm0EEERNS_12BufferWriterES9_RKNS_7BWFSpecERKT_' => 1,
                                                   '_ZN2ts6bw_fmt13Arg_FormatterIRKSt5tupleIJRKtEELm0EEERNS_12BufferWriterES9_RKNS_7BWFSpecERKT_' => 1,
                                                   '_ZN2ts6bw_fmt13Arg_FormatterIRKSt5tupleIJRNS_8TextViewERKiRNS_3bwf13OptionalAffixEEELm0EEERNS_12BufferWriterESE_RKNS_7BWFSpecERKT_' => 1,
                                                   '_ZN2ts6bw_fmt13Arg_FormatterIRKSt5tupleIJRNS_8TextViewERKiRNS_3bwf13OptionalAffixEEELm1EEERNS_12BufferWriterESE_RKNS_7BWFSpecERKT_' => 1,
                                                   '_ZN2ts6bw_fmt13Arg_FormatterIRKSt5tupleIJRNS_8TextViewERKiRNS_3bwf13OptionalAffixEEELm2EEERNS_12BufferWriterESE_RKNS_7BWFSpecERKT_' => 1,
                                                   '_ZN2ts6bw_fmt13Arg_FormatterIRKSt5tupleIJRPK8sockaddrS6_RKPvEELm0EEERNS_12BufferWriterESE_RKNS_7BWFSpecERKT_' => 1,
                                                   '_ZN2ts6bw_fmt13Arg_FormatterIRKSt5tupleIJRPK8sockaddrS6_RKPvEELm1EEERNS_12BufferWriterESE_RKNS_7BWFSpecERKT_' => 1,
                                                   '_ZN2ts6bw_fmt13Arg_FormatterIRKSt5tupleIJRPK8sockaddrS6_RKPvEELm2EEERNS_12BufferWriterESE_RKNS_7BWFSpecERKT_' => 1,
                                                   '_ZN2ts6bw_fmt13Arg_FormatterIRKSt5tupleIJRPKcEELm0EEERNS_12BufferWriterESA_RKNS_7BWFSpecERKT_' => 1,
                                                   '_ZN2ts6bw_fmt13Arg_FormatterIRKSt5tupleIJRPKcRKPNS_6detail6RBNodeESA_SA_EELm0EEERNS_12BufferWriterESF_RKNS_7BWFSpecERKT_' => 1,
                                                   '_ZN2ts6bw_fmt13Arg_FormatterIRKSt5tupleIJRPKcRKPNS_6detail6RBNodeESA_SA_EELm1EEERNS_12BufferWriterESF_RKNS_7BWFSpecERKT_' => 1,
                                                   '_ZN2ts6bw_fmt13Arg_FormatterIRKSt5tupleIJRPKcRKPNS_6detail6RBNodeESA_SA_EELm2EEERNS_12BufferWriterESF_RKNS_7BWFSpecERKT_' => 1,
                                                   '_ZN2ts6bw_fmt13Arg_FormatterIRKSt5tupleIJRPKcRKPNS_6detail6RBNodeESA_SA_EELm3EEERNS_12BufferWriterESF_RKNS_7BWFSpecERKT_' => 1,
                                                   '_ZN2ts6bw_fmt13Arg_FormatterIRKSt5tupleIJRiRmEELm0EEERNS_12BufferWriterES9_RKNS_7BWFSpecERKT_' => 1,
                                                   '_ZN2ts6bw_fmt13Arg_FormatterIRKSt5tupleIJRiRmEELm1EEERNS_12BufferWriterES9_RKNS_7BWFSpecERKT_' => 1,
                                                   '_ZN2ts6bw_fmt13Arg_FormatterIRKSt5tupleIJRlEELm0EEERNS_12BufferWriterES8_RKNS_7BWFSpecERKT_' => 1,
                                                   '_ZN2ts6bw_fmt13Arg_FormatterIRKSt5tupleIJRmRPvEELm0EEERNS_12BufferWriterESA_RKNS_7BWFSpecERKT_' => 1,
                                                   '_ZN2ts6bw_fmt13Arg_FormatterIRKSt5tupleIJRmRPvEELm1EEERNS_12BufferWriterESA_RKNS_7BWFSpecERKT_' => 1,
                                                   '_ZN2ts6bw_fmt13Arg_FormatterIRKSt5tupleIJRtEELm0EEERNS_12BufferWriterES8_RKNS_7BWFSpecERKT_' => 1,
                                                   '_ZN2ts6bw_fmt13Format_As_HexERNS_12BufferWriterESt17basic_string_viewIcSt11char_traitsIcEEPKc' => 1,
                                                   '_ZN2ts6bw_fmt14Format_IntegerERNS_12BufferWriterERKNS_7BWFSpecEmb' => 1,
                                                   '_ZN2ts6bw_fmt15Format_FloatingERNS_12BufferWriterERKNS_7BWFSpecEdb' => 1,
                                                   '_ZN2ts6bw_fmt16BWF_GLOBAL_TABLEE' => -48,
                                                   '_ZN2ts6bw_fmt17Err_Bad_Arg_IndexERNS_12BufferWriterEim' => 1,
                                                   '_ZN2ts6bw_fmt17Global_Table_FindESt17basic_string_viewIcSt11char_traitsIcEE' => 1,
                                                   '_ZN2ts6bw_fmt23Get_Arg_Formatter_ArrayIRKSt5tupleIJEEJEEEPPFRNS_12BufferWriterES7_RKNS_7BWFSpecERKT_ESt16integer_sequenceImJXspT0_EEE' => 1,
                                                   '_ZN2ts6bw_fmt23Get_Arg_Formatter_ArrayIRKSt5tupleIJRK14SourceLocationEEJLm0EEEEPPFRNS_12BufferWriterESA_RKNS_7BWFSpecERKT_ESt16integer_sequenceImJXspT0_EEE' => 1,
                                                   '_ZN2ts6bw_fmt23Get_Arg_Formatter_ArrayIRKSt5tupleIJRKiEEJLm0EEEEPPFRNS_12BufferWriterES9_RKNS_7BWFSpecERKT_ESt16integer_sequenceImJXspT0_EEE' => 1,
                                                   '_ZN2ts6bw_fmt23Get_Arg_Formatter_ArrayIRKSt5tupleIJRKtEEJLm0EEEEPPFRNS_12BufferWriterES9_RKNS_7BWFSpecERKT_ESt16integer_sequenceImJXspT0_EEE' => 1,
                                                   '_ZN2ts6bw_fmt23Get_Arg_Formatter_ArrayIRKSt5tupleIJRNS_8TextViewERKiRNS_3bwf13OptionalAffixEEEJLm0ELm1ELm2EEEEPPFRNS_12BufferWriterESE_RKNS_7BWFSpecERKT_ESt16integer_sequenceImJXspT0_EEE' => 1,
                                                   '_ZN2ts6bw_fmt23Get_Arg_Formatter_ArrayIRKSt5tupleIJRPK8sockaddrS6_RKPvEEJLm0ELm1ELm2EEEEPPFRNS_12BufferWriterESE_RKNS_7BWFSpecERKT_ESt16integer_sequenceImJXspT0_EEE' => 1,
                                                   '_ZN2ts6bw_fmt23Get_Arg_Formatter_ArrayIRKSt5tupleIJRPKcEEJLm0EEEEPPFRNS_12BufferWriterESA_RKNS_7BWFSpecERKT_ESt16integer_sequenceImJXspT0_EEE' => 1,
                                                   '_ZN2ts6bw_fmt23Get_Arg_Formatter_ArrayIRKSt5tupleIJRPKcRKPNS_6detail6RBNodeESA_SA_EEJLm0ELm1ELm2ELm3EEEEPPFRNS_12BufferWriterESF_RKNS_7BWFSpecERKT_ESt16integer_sequenceImJXspT0_EEE' => 1,
                                                   '_ZN2ts6bw_fmt23Get_Arg_Formatter_ArrayIRKSt5tupleIJRiRmEEJLm0ELm1EEEEPPFRNS_12BufferWriterES9_RKNS_7BWFSpecERKT_ESt16integer_sequenceImJXspT0_EEE' => 1,
                                                   '_ZN2ts6bw_fmt23Get_Arg_Formatter_ArrayIRKSt5tupleIJRlEEJLm0EEEEPPFRNS_12BufferWriterES8_RKNS_7BWFSpecERKT_ESt16integer_sequenceImJXspT0_EEE' => 1,
                                                   '_ZN2ts6bw_fmt23Get_Arg_Formatter_ArrayIRKSt5tupleIJRmRPvEEJLm0ELm1EEEEPPFRNS_12BufferWriterESA_RKNS_7BWFSpecERKT_ESt16integer_sequenceImJXspT0_EEE' => 1,
                                                   '_ZN2ts6bw_fmt23Get_Arg_Formatter_ArrayIRKSt5tupleIJRtEEJLm0EEEEPPFRNS_12BufferWriterES8_RKNS_7BWFSpecERKT_ESt16integer_sequenceImJXspT0_EEE' => 1,
                                                   '_ZN2ts6bw_fmt8To_RadixILm10EEEmmPcmS2_' => 1,
                                                   '_ZN2ts6bw_fmt8To_RadixILm16EEEmmPcmS2_' => 1,
                                                   '_ZN2ts6bw_fmt8To_RadixILm2EEEmmPcmS2_' => 1,
                                                   '_ZN2ts6bw_fmt8To_RadixILm8EEEmmPcmS2_' => 1,
                                                   '_ZN2ts6detail6RBNode11replaceWithEPS1_' => 1,
                                                   '_ZN2ts6detail6RBNode14structureFixupEv' => 1,
                                                   '_ZN2ts6detail6RBNode17structureValidateEv' => 1,
                                                   '_ZN2ts6detail6RBNode20rebalanceAfterInsertEv' => 1,
                                                   '_ZN2ts6detail6RBNode20rebalanceAfterRemoveENS1_5ColorENS1_9DirectionE' => 1,
                                                   '_ZN2ts6detail6RBNode20rippleStructureFixupEv' => 1,
                                                   '_ZN2ts6detail6RBNode6removeEv' => 1,
                                                   '_ZN2ts6detail6RBNode6rotateENS1_9DirectionE' => 1,
                                                   '_ZN2ts6detail6RBNode8setChildEPS1_NS1_9DirectionE' => 1,
                                                   '_ZN2ts6detail6RBNode8validateEv' => 1,
                                                   '_ZN2ts6detail6RBNodeD0Ev' => 1,
                                                   '_ZN2ts6detail6RBNodeD1Ev' => 1,
                                                   '_ZN2ts6detail6RBNodeD2Ev' => 1,
                                                   '_ZN2ts6detail7Ip4Node7setDataEPv' => 1,
                                                   '_ZN2ts6detail7Ip4NodeD0Ev' => 1,
                                                   '_ZN2ts6detail7Ip4NodeD1Ev' => 1,
                                                   '_ZN2ts6detail7Ip4NodeD2Ev' => 1,
                                                   '_ZN2ts6detail7Ip6Node7setDataEPv' => 1,
                                                   '_ZN2ts6detail7Ip6NodeD0Ev' => 1,
                                                   '_ZN2ts6detail7Ip6NodeD1Ev' => 1,
                                                   '_ZN2ts6detail7Ip6NodeD2Ev' => 1,
                                                   '_ZN2ts6detail9IpMapBaseINS0_7Ip4NodeEE10lowerBoundEj' => 1,
                                                   '_ZN2ts6detail9IpMapBaseINS0_7Ip4NodeEE12insert_afterEPS2_S4_' => 1,
                                                   '_ZN2ts6detail9IpMapBaseINS0_7Ip4NodeEE13insert_beforeEPS2_S4_' => 1,
                                                   '_ZN2ts6detail9IpMapBaseINS0_7Ip4NodeEE4fillEjjPv' => 1,
                                                   '_ZN2ts6detail9IpMapBaseINS0_7Ip4NodeEE4markEjjPv' => 1,
                                                   '_ZN2ts6detail9IpMapBaseINS0_7Ip4NodeEE5clearEv' => 1,
                                                   '_ZN2ts6detail9IpMapBaseINS0_7Ip4NodeEE6appendEPS2_' => 1,
                                                   '_ZN2ts6detail9IpMapBaseINS0_7Ip4NodeEE6removeEPS2_' => 1,
                                                   '_ZN2ts6detail9IpMapBaseINS0_7Ip4NodeEE6unmarkEjj' => 1,
                                                   '_ZN2ts6detail9IpMapBaseINS0_7Ip4NodeEE7prependEPS2_' => 1,
                                                   '_ZN2ts6detail9IpMapBaseINS0_7Ip4NodeEED1Ev' => 1,
                                                   '_ZN2ts6detail9IpMapBaseINS0_7Ip4NodeEED2Ev' => 1,
                                                   '_ZN2ts6detail9IpMapBaseINS0_7Ip6NodeEE10lowerBoundEPK12sockaddr_in6' => 1,
                                                   '_ZN2ts6detail9IpMapBaseINS0_7Ip6NodeEE12insert_afterEPS2_S4_' => 1,
                                                   '_ZN2ts6detail9IpMapBaseINS0_7Ip6NodeEE13insert_beforeEPS2_S4_' => 1,
                                                   '_ZN2ts6detail9IpMapBaseINS0_7Ip6NodeEE4fillEPK12sockaddr_in6S6_Pv' => 1,
                                                   '_ZN2ts6detail9IpMapBaseINS0_7Ip6NodeEE4markEPK12sockaddr_in6S6_Pv' => 1,
                                                   '_ZN2ts6detail9IpMapBaseINS0_7Ip6NodeEE5clearEv' => 1,
                                                   '_ZN2ts6detail9IpMapBaseINS0_7Ip6NodeEE6appendEPS2_' => 1,
                                                   '_ZN2ts6detail9IpMapBaseINS0_7Ip6NodeEE6removeEPS2_' => 1,
                                                   '_ZN2ts6detail9IpMapBaseINS0_7Ip6NodeEE6unmarkEPK12sockaddr_in6S6_' => 1,
                                                   '_ZN2ts6detail9IpMapBaseINS0_7Ip6NodeEE7prependEPS2_' => 1,
                                                   '_ZN2ts6detail9IpMapBaseINS0_7Ip6NodeEED1Ev' => 1,
                                                   '_ZN2ts6detail9IpMapBaseINS0_7Ip6NodeEED2Ev' => 1,
                                                   '_ZN2ts7BWFSpec5_propE' => -256,
                                                   '_ZN2ts7BWFSpec7DEFAULTE' => -56,
                                                   '_ZN2ts7BWFSpec8PropertyC1Ev' => 1,
                                                   '_ZN2ts7BWFSpec8PropertyC2Ev' => 1,
                                                   '_ZN2ts7BWFSpecC1ENS_8TextViewE' => 1,
                                                   '_ZN2ts7BWFSpecC2ENS_8TextViewE' => 1,
                                                   '_ZN2ts8BWFormat14Format_LiteralERNS_12BufferWriterERKNS_7BWFSpecE' => 1,
                                                   '_ZN2ts8BWFormat5parseERNS_8TextViewERSt17basic_string_viewIcSt11char_traitsIcEES7_' => 1,
                                                   '_ZN2ts8BWFormatC1ENS_8TextViewE' => 1,
                                                   '_ZN2ts8BWFormatC2ENS_8TextViewE' => 1,
                                                   '_ZN2ts8BWFormatD1Ev' => 1,
                                                   '_ZN2ts8BWFormatD2Ev' => 1,
                                                   '_ZN2ts8MemArena10make_blockEm' => 1,
                                                   '_ZN2ts8MemArena4thawEv' => 1,
                                                   '_ZN2ts8MemArena5BlockdlEPv' => 1,
                                                   '_ZN2ts8MemArena5allocEm' => 1,
                                                   '_ZN2ts8MemArena5clearEm' => 1,
                                                   '_ZN2ts8MemArena6freezeEm' => 1,
                                                   '_ZN2ts8bwformatERNS_12BufferWriterERKNS_7BWFSpecEPK8sockaddr' => 1,
                                                   '_ZN2ts8bwformatERNS_12BufferWriterERKNS_7BWFSpecERK6IpAddr' => 1,
                                                   '_ZN2ts8bwformatERNS_12BufferWriterERKNS_7BWFSpecERK8in6_addr' => 1,
                                                   '_ZN2ts8bwformatERNS_12BufferWriterERKNS_7BWFSpecERKNS_3bwf13OptionalAffixE' => 1,
                                                   '_ZN2ts8bwformatERNS_12BufferWriterERKNS_7BWFSpecERKNS_3bwf4DateE' => 1,
                                                   '_ZN2ts8bwformatERNS_12BufferWriterERKNS_7BWFSpecERKNS_3bwf5ErrnoE' => 1,
                                                   '_ZN2ts8bwformatERNS_12BufferWriterERKNS_7BWFSpecERKNS_3bwf6detail7MemDumpE' => 1,
                                                   '_ZN2ts8bwformatERNS_12BufferWriterERKNS_7BWFSpecERKNS_7MemSpanIvEE' => 1,
                                                   '_ZN2ts8bwformatERNS_12BufferWriterERKNS_7BWFSpecESt17basic_string_viewIcSt11char_traitsIcEE' => 1,
                                                   '_ZN2ts8bwformatERNS_12BufferWriterERKNS_7BWFSpecEj' => 1,
                                                   '_ZN2ts8bwformatIRKiEENSt9enable_ifIXaasrSt9is_signedINSt16remove_referenceIT_E4typeEE5valuesrSt11is_integralIS8_E5valueERNS_12BufferWriterEE4typeESD_RKNS_7BWFSpecEOS6_' => 1,
                                                   '_ZN2ts8bwformatIRKlEENSt9enable_ifIXaasrSt9is_signedINSt16remove_referenceIT_E4typeEE5valuesrSt11is_integralIS8_E5valueERNS_12BufferWriterEE4typeESD_RKNS_7BWFSpecEOS6_' => 1,
                                                   '_ZN2ts8bwformatIRKtEENSt9enable_ifIXaasrSt11is_unsignedINSt16remove_referenceIT_E4typeEE5valuesrSt11is_integralIS8_E5valueERNS_12BufferWriterEE4typeESD_RKNS_7BWFSpecEOS6_' => 1,
                                                   '_ZN2ts8bwformatIRhEENSt9enable_ifIXaasrSt11is_unsignedINSt16remove_referenceIT_E4typeEE5valuesrSt11is_integralIS7_E5valueERNS_12BufferWriterEE4typeESC_RKNS_7BWFSpecEOS5_' => 1,
                                                   '_ZN2ts8bwformatIRiEENSt9enable_ifIXaasrSt9is_signedINSt16remove_referenceIT_E4typeEE5valuesrSt11is_integralIS7_E5valueERNS_12BufferWriterEE4typeESC_RKNS_7BWFSpecEOS5_' => 1,
                                                   '_ZN2ts8bwformatIRlEENSt9enable_ifIXaasrSt9is_signedINSt16remove_referenceIT_E4typeEE5valuesrSt11is_integralIS7_E5valueERNS_12BufferWriterEE4typeESC_RKNS_7BWFSpecEOS5_' => 1,
                                                   '_ZN2ts8bwformatIRmEENSt9enable_ifIXaasrSt11is_unsignedINSt16remove_referenceIT_E4typeEE5valuesrSt11is_integralIS7_E5valueERNS_12BufferWriterEE4typeESC_RKNS_7BWFSpecEOS5_' => 1,
                                                   '_ZN2ts8bwformatIRtEENSt9enable_ifIXaasrSt11is_unsignedINSt16remove_referenceIT_E4typeEE5valuesrSt11is_integralIS7_E5valueERNS_12BufferWriterEE4typeESC_RKNS_7BWFSpecEOS5_' => 1,
                                                   '_ZN2ts8bwformatIlEENSt9enable_ifIXaasrSt9is_signedINSt16remove_referenceIT_E4typeEE5valuesrSt11is_integralIS6_E5valueERNS_12BufferWriterEE4typeESB_RKNS_7BWFSpecEOS4_' => 1,
                                                   '_ZN2ts8bwformatImEENSt9enable_ifIXaasrSt11is_unsignedINSt16remove_referenceIT_E4typeEE5valuesrSt11is_integralIS6_E5valueERNS_12BufferWriterEE4typeESB_RKNS_7BWFSpecEOS4_' => 1,
                                                   '_ZN2ts9ArgParser10add_optionERKNSt7__cxx1112basic_stringIcSt11char_traitsIcESaIcEEES8_S8_S8_jS8_S8_' => 1,
                                                   '_ZN2ts9ArgParser11add_commandERKNSt7__cxx1112basic_stringIcSt11char_traitsIcESaIcEEES8_RKSt8functionIFvvEES8_' => 1,
                                                   '_ZN2ts9ArgParser11add_commandERKNSt7__cxx1112basic_stringIcSt11char_traitsIcESaIcEEES8_S8_jRKSt8functionIFvvEES8_' => 1,
                                                   '_ZN2ts9ArgParser16add_global_usageERKNSt7__cxx1112basic_stringIcSt11char_traitsIcESaIcEEE' => 1,
                                                   '_ZN2ts9ArgParser16require_commandsEv' => 1,
                                                   '_ZN2ts9ArgParser19set_default_commandERKNSt7__cxx1112basic_stringIcSt11char_traitsIcESaIcEEE' => 1,
                                                   '_ZN2ts9ArgParser5parseEPPKc' => 1,
                                                   '_ZN2ts9ArgParser6OptionC1ERKS1_' => 1,
                                                   '_ZN2ts9ArgParser6OptionC2ERKS1_' => 1,
                                                   '_ZN2ts9ArgParser6OptionD1Ev' => 1,
                                                   '_ZN2ts9ArgParser6OptionD2Ev' => 1,
                                                   '_ZN2ts9ArgParser7Command10add_optionERKNSt7__cxx1112basic_stringIcSt11char_traitsIcESaIcEEES9_S9_S9_jS9_S9_' => 1,
                                                   '_ZN2ts9ArgParser7Command11add_commandERKNSt7__cxx1112basic_stringIcSt11char_traitsIcESaIcEEES9_RKSt8functionIFvvEES9_' => 1,
                                                   '_ZN2ts9ArgParser7Command11add_commandERKNSt7__cxx1112basic_stringIcSt11char_traitsIcESaIcEEES9_S9_jRKSt8functionIFvvEES9_' => 1,
                                                   '_ZN2ts9ArgParser7Command11set_defaultEv' => 1,
                                                   '_ZN2ts9ArgParser7Command16require_commandsEv' => 1,
                                                   '_ZN2ts9ArgParser7Command17add_example_usageERKNSt7__cxx1112basic_stringIcSt11char_traitsIcESaIcEEE' => 1,
                                                   '_ZN2ts9ArgParser7Command18append_option_dataERNS_9ArgumentsERSt6vectorINSt7__cxx1112basic_stringIcSt11char_traitsIcESaIcEEESaISA_EEi' => 1,
                                                   '_ZN2ts9ArgParser7Command5parseERNS_9ArgumentsERSt6vectorINSt7__cxx1112basic_stringIcSt11char_traitsIcESaIcEEESaISA_EE' => 1,
                                                   '_ZN2ts9ArgParser7CommandC1ERKNSt7__cxx1112basic_stringIcSt11char_traitsIcESaIcEEES9_S9_jRKSt8functionIFvvEES9_' => 1,
                                                   '_ZN2ts9ArgParser7CommandC1ERKS1_' => 1,
                                                   '_ZN2ts9ArgParser7CommandC1Ev' => 1,
                                                   '_ZN2ts9ArgParser7CommandC2ERKNSt7__cxx1112basic_stringIcSt11char_traitsIcESaIcEEES9_S9_jRKSt8functionIFvvEES9_' => 1,
                                                   '_ZN2ts9ArgParser7CommandC2ERKS1_' => 1,
                                                   '_ZN2ts9ArgParser7CommandC2Ev' => 1,
                                                   '_ZN2ts9ArgParser7CommandD1Ev' => 1,
                                                   '_ZN2ts9ArgParser7CommandD2Ev' => 1,
                                                   '_ZN2ts9ArgParser9set_errorENSt7__cxx1112basic_stringIcSt11char_traitsIcESaIcEEE' => 1,
                                                   '_ZN2ts9ArgParserC1ERKNSt7__cxx1112basic_stringIcSt11char_traitsIcESaIcEEES8_S8_jRKSt8functionIFvvEE' => 1,
                                                   '_ZN2ts9ArgParserC1Ev' => 1,
                                                   '_ZN2ts9ArgParserC2ERKNSt7__cxx1112basic_stringIcSt11char_traitsIcESaIcEEES8_S8_jRKSt8functionIFvvEE' => 1,
                                                   '_ZN2ts9ArgParserC2Ev' => 1,
                                                   '_ZN2ts9ArgParserD1Ev' => 1,
                                                   '_ZN2ts9ArgParserD2Ev' => 1,
                                                   '_ZN2ts9Arguments10append_argERKNSt7__cxx1112basic_stringIcSt11char_traitsIcESaIcEEES8_' => 1,
                                                   '_ZN2ts9Arguments3getERKNSt7__cxx1112basic_stringIcSt11char_traitsIcESaIcEEE' => 1,
                                                   '_ZN2ts9Arguments6appendERKNSt7__cxx1112basic_stringIcSt11char_traitsIcESaIcEEERKNS_12ArgumentDataE' => 1,
                                                   '_ZN2ts9Arguments6invokeEv' => 1,
                                                   '_ZN2ts9Arguments7set_envERKNSt7__cxx1112basic_stringIcSt11char_traitsIcESaIcEEES8_' => 1,
                                                   '_ZN2ts9ArgumentsC1Ev' => 1,
                                                   '_ZN2ts9ArgumentsC2Ev' => 1,
                                                   '_ZN2ts9ArgumentsD1Ev' => 1,
                                                   '_ZN2ts9ArgumentsD2Ev' => 1,
                                                   '_ZN2tslsERSoRKNS_6ErrataE' => 1,
                                                   '_ZN3DFA5buildERKSt17basic_string_viewIcSt11char_traitsIcEEj' => 1,
                                                   '_ZN3DFA7compileEPPKcij' => 1,
                                                   '_ZN3DFA7compileEPSt17basic_string_viewIcSt11char_traitsIcEEij' => 1,
                                                   '_ZN3DFA7compileERKSt17basic_string_viewIcSt11char_traitsIcEEj' => 1,
                                                   '_ZN3DFAD1Ev' => 1,
                                                   '_ZN3DFAD2Ev' => 1,
                                                   '_ZN3ats13CryptoContext6updateEPKvi' => 1,
                                                   '_ZN3ats13CryptoContext7SettingE' => -4,
                                                   '_ZN3ats13CryptoContext8finalizeERNS_10CryptoHashE' => 1,
                                                   '_ZN3ats13CryptoContextC1Ev' => 1,
                                                   '_ZN3ats13CryptoContextC2Ev' => 1,
                                                   '_ZN3ats13CryptoContextD0Ev' => 1,
                                                   '_ZN3ats13CryptoContextD1Ev' => 1,
                                                   '_ZN3ats13CryptoContextD2Ev' => 1,
                                                   '_ZN3ats16CRYPTO_HASH_ZEROE' => -16,
                                                   '_ZN3ats8bwformatERN2ts12BufferWriterERKNS0_7BWFSpecERKNS_10CryptoHashE' => 1,
                                                   '_ZN3ext7details18areFieldsFinalizedEv' => 1,
                                                   '_ZN3ext7details5ltrimERKNSt7__cxx1112basic_stringIcSt11char_traitsIcESaIcEEES8_' => 1,
                                                   '_ZN3ext7details6Schema14callDestructorEm' => 1,
                                                   '_ZN3ext7details6Schema15callConstructorEm' => 1,
                                                   '_ZN3ext7details6Schema16updateMemOffsetsEv' => 1,
                                                   '_ZN3ext7details6Schema5resetEv' => 1,
                                                   '_ZN3ext7details6SchemaD1Ev' => 1,
                                                   '_ZN3ext7details6SchemaD2Ev' => 1,
                                                   '_ZN4YAML10DirectivesC1Ev' => 1,
                                                   '_ZN4YAML10DirectivesC2Ev' => 1,
                                                   '_ZN4YAML10NodeEvents12AliasManager17RegisterReferenceERKNS_6detail4nodeE' => 1,
                                                   '_ZN4YAML10NodeEvents4EmitERNS_12EventHandlerE' => 1,
                                                   '_ZN4YAML10NodeEvents5SetupERKNS_6detail4nodeE' => 1,
                                                   '_ZN4YAML10NodeEventsC1ERKNS_4NodeE' => 1,
                                                   '_ZN4YAML10NodeEventsC2ERKNS_4NodeE' => 1,
                                                   '_ZN4YAML10NodeEventsD1Ev' => 1,
                                                   '_ZN4YAML10NodeEventsD2Ev' => 1,
                                                   '_ZN4YAML10ScanScalarB5cxx11ERNS_6StreamERNS_16ScanScalarParamsE' => 1,
                                                   '_ZN4YAML11BadPushbackC1Ev' => 1,
                                                   '_ZN4YAML11BadPushbackC2Ev' => 1,
                                                   '_ZN4YAML11BadPushbackD0Ev' => 1,
                                                   '_ZN4YAML11BadPushbackD1Ev' => 1,
                                                   '_ZN4YAML11BadPushbackD2Ev' => 1,
                                                   '_ZN4YAML11InvalidNodeC1ENSt7__cxx1112basic_stringIcSt11char_traitsIcESaIcEEE' => 1,
                                                   '_ZN4YAML11InvalidNodeC2ENSt7__cxx1112basic_stringIcSt11char_traitsIcESaIcEEE' => 1,
                                                   '_ZN4YAML11InvalidNodeD0Ev' => 1,
                                                   '_ZN4YAML11InvalidNodeD1Ev' => 1,
                                                   '_ZN4YAML11InvalidNodeD2Ev' => 1,
                                                   '_ZN4YAML11KeyNotFoundD0Ev' => 1,
                                                   '_ZN4YAML11KeyNotFoundD1Ev' => 1,
                                                   '_ZN4YAML11KeyNotFoundD2Ev' => 1,
                                                   '_ZN4YAML11NodeBuilder10OnMapStartERKNS_4MarkERKNSt7__cxx1112basic_stringIcSt11char_traitsIcESaIcEEEmNS_12EmitterStyle5valueE' => 1,
                                                   '_ZN4YAML11NodeBuilder13OnDocumentEndEv' => 1,
                                                   '_ZN4YAML11NodeBuilder13OnSequenceEndEv' => 1,
                                                   '_ZN4YAML11NodeBuilder14RegisterAnchorEmRNS_6detail4nodeE' => 1,
                                                   '_ZN4YAML11NodeBuilder15OnDocumentStartERKNS_4MarkE' => 1,
                                                   '_ZN4YAML11NodeBuilder15OnSequenceStartERKNS_4MarkERKNSt7__cxx1112basic_stringIcSt11char_traitsIcESaIcEEEmNS_12EmitterStyle5valueE' => 1,
                                                   '_ZN4YAML11NodeBuilder3PopEv' => 1,
                                                   '_ZN4YAML11NodeBuilder4PushERKNS_4MarkEm' => 1,
                                                   '_ZN4YAML11NodeBuilder4PushERNS_6detail4nodeE' => 1,
                                                   '_ZN4YAML11NodeBuilder4RootEv' => 1,
                                                   '_ZN4YAML11NodeBuilder6OnNullERKNS_4MarkEm' => 1,
                                                   '_ZN4YAML11NodeBuilder7OnAliasERKNS_4MarkEm' => 1,
                                                   '_ZN4YAML11NodeBuilder8OnMapEndEv' => 1,
                                                   '_ZN4YAML11NodeBuilder8OnScalarERKNS_4MarkERKNSt7__cxx1112basic_stringIcSt11char_traitsIcESaIcEEEmSB_' => 1,
                                                   '_ZN4YAML11NodeBuilderC1Ev' => 1,
                                                   '_ZN4YAML11NodeBuilderC2Ev' => 1,
                                                   '_ZN4YAML11NodeBuilderD0Ev' => 1,
                                                   '_ZN4YAML11NodeBuilderD1Ev' => 1,
                                                   '_ZN4YAML11NodeBuilderD2Ev' => 1,
                                                   '_ZN4YAML12BadSubscriptC1INS_6detail4nodeEEERKT_' => 1,
                                                   '_ZN4YAML12BadSubscriptC2INS_6detail4nodeEEERKT_' => 1,
                                                   '_ZN4YAML12BadSubscriptD0Ev' => 1,
                                                   '_ZN4YAML12BadSubscriptD1Ev' => 1,
                                                   '_ZN4YAML12BadSubscriptD2Ev' => 1,
                                                   '_ZN4YAML12DecodeBase64ERKNSt7__cxx1112basic_stringIcSt11char_traitsIcESaIcEEE' => 1,
                                                   '_ZN4YAML12EmitterState10EndedGroupENS_9GroupType5valueE' => 1,
                                                   '_ZN4YAML12EmitterState10SetLongKeyEv' => 1,
                                                   '_ZN4YAML12EmitterState10StartedDocEv' => 1,
                                                   '_ZN4YAML12EmitterState11SetFlowTypeENS_9GroupType5valueENS_13EMITTER_MANIPENS_8FmtScope5valueE' => 1,
                                                   '_ZN4YAML12EmitterState11StartedNodeEv' => 1,
                                                   '_ZN4YAML12EmitterState12SetIntFormatENS_13EMITTER_MANIPENS_8FmtScope5valueE' => 1,
                                                   '_ZN4YAML12EmitterState12StartedGroupENS_9GroupType5valueE' => 1,
                                                   '_ZN4YAML12EmitterState13SetBoolFormatENS_13EMITTER_MANIPENS_8FmtScope5valueE' => 1,
                                                   '_ZN4YAML12EmitterState13SetLocalValueENS_13EMITTER_MANIPE' => 1,
                                                   '_ZN4YAML12EmitterState13SetNonContentEv' => 1,
                                                   '_ZN4YAML12EmitterState13StartedScalarEv' => 1,
                                                   '_ZN4YAML12EmitterState15SetMapKeyFormatENS_13EMITTER_MANIPENS_8FmtScope5valueE' => 1,
                                                   '_ZN4YAML12EmitterState15SetStringFormatENS_13EMITTER_MANIPENS_8FmtScope5valueE' => 1,
                                                   '_ZN4YAML12EmitterState16SetOutputCharsetENS_13EMITTER_MANIPENS_8FmtScope5valueE' => 1,
                                                   '_ZN4YAML12EmitterState17SetBoolCaseFormatENS_13EMITTER_MANIPENS_8FmtScope5valueE' => 1,
                                                   '_ZN4YAML12EmitterState17SetFloatPrecisionEmNS_8FmtScope5valueE' => 1,
                                                   '_ZN4YAML12EmitterState18SetDoublePrecisionEmNS_8FmtScope5valueE' => 1,
                                                   '_ZN4YAML12EmitterState19SetBoolLengthFormatENS_13EMITTER_MANIPENS_8FmtScope5valueE' => 1,
                                                   '_ZN4YAML12EmitterState19SetPreCommentIndentEmNS_8FmtScope5valueE' => 1,
                                                   '_ZN4YAML12EmitterState20SetPostCommentIndentEmNS_8FmtScope5valueE' => 1,
                                                   '_ZN4YAML12EmitterState21ClearModifiedSettingsEv' => 1,
                                                   '_ZN4YAML12EmitterState4_SetINS_13EMITTER_MANIPEEEvRNS_7SettingIT_EES4_NS_8FmtScope5valueE' => 1,
                                                   '_ZN4YAML12EmitterState4_SetImEEvRNS_7SettingIT_EES3_NS_8FmtScope5valueE' => 1,
                                                   '_ZN4YAML12EmitterState6SetTagEv' => 1,
                                                   '_ZN4YAML12EmitterState8EndedDocEv' => 1,
                                                   '_ZN4YAML12EmitterState9ForceFlowEv' => 1,
                                                   '_ZN4YAML12EmitterState9SetAnchorEv' => 1,
                                                   '_ZN4YAML12EmitterState9SetIndentEmNS_8FmtScope5valueE' => 1,
                                                   '_ZN4YAML12EmitterStateC1Ev' => 1,
                                                   '_ZN4YAML12EmitterStateC2Ev' => 1,
                                                   '_ZN4YAML12EmitterStateD1Ev' => 1,
                                                   '_ZN4YAML12EmitterStateD2Ev' => 1,
                                                   '_ZN4YAML12EncodeBase64B5cxx11EPKhm' => 1,
                                                   '_ZN4YAML12EventHandler8OnAnchorERKNS_4MarkERKNSt7__cxx1112basic_stringIcSt11char_traitsIcESaIcEEE' => 1,
                                                   '_ZN4YAML12IsNullStringERKNSt7__cxx1112basic_stringIcSt11char_traitsIcESaIcEEE' => 1,
                                                   '_ZN4YAML13BadConversionC1ERKNS_4MarkE' => 1,
                                                   '_ZN4YAML13BadConversionC2ERKNS_4MarkE' => 1,
                                                   '_ZN4YAML13BadConversionD0Ev' => 1,
                                                   '_ZN4YAML13BadConversionD1Ev' => 1,
                                                   '_ZN4YAML13BadConversionD2Ev' => 1,
                                                   '_ZN4YAML13InvalidScalarD0Ev' => 1,
                                                   '_ZN4YAML13InvalidScalarD1Ev' => 1,
                                                   '_ZN4YAML13InvalidScalarD2Ev' => 1,
                                                   '_ZN4YAML13ScanTagHandleB5cxx11ERNS_6StreamERb' => 1,
                                                   '_ZN4YAML13ScanTagSuffixB5cxx11ERNS_6StreamE' => 1,
                                                   '_ZN4YAML13SettingChangeINS_13EMITTER_MANIPEE3popEv' => 1,
                                                   '_ZN4YAML13SettingChangeINS_13EMITTER_MANIPEED0Ev' => 1,
                                                   '_ZN4YAML13SettingChangeINS_13EMITTER_MANIPEED1Ev' => 1,
                                                   '_ZN4YAML13SettingChangeINS_13EMITTER_MANIPEED2Ev' => 1,
                                                   '_ZN4YAML13SettingChangeImE3popEv' => 1,
                                                   '_ZN4YAML13SettingChangeImED0Ev' => 1,
                                                   '_ZN4YAML13SettingChangeImED1Ev' => 1,
                                                   '_ZN4YAML13SettingChangeImED2Ev' => 1,
                                                   '_ZN4YAML14BadDereferenceD0Ev' => 1,
                                                   '_ZN4YAML14BadDereferenceD1Ev' => 1,
                                                   '_ZN4YAML14BadDereferenceD2Ev' => 1,
                                                   '_ZN4YAML14EmitFromEvents10OnMapStartERKNS_4MarkERKNSt7__cxx1112basic_stringIcSt11char_traitsIcESaIcEEEmNS_12EmitterStyle5valueE' => 1,
                                                   '_ZN4YAML14EmitFromEvents13OnDocumentEndEv' => 1,
                                                   '_ZN4YAML14EmitFromEvents13OnSequenceEndEv' => 1,
                                                   '_ZN4YAML14EmitFromEvents15OnDocumentStartERKNS_4MarkE' => 1,
                                                   '_ZN4YAML14EmitFromEvents15OnSequenceStartERKNS_4MarkERKNSt7__cxx1112basic_stringIcSt11char_traitsIcESaIcEEEmNS_12EmitterStyle5valueE' => 1,
                                                   '_ZN4YAML14EmitFromEvents6OnNullERKNS_4MarkEm' => 1,
                                                   '_ZN4YAML14EmitFromEvents7OnAliasERKNS_4MarkEm' => 1,
                                                   '_ZN4YAML14EmitFromEvents8OnMapEndEv' => 1,
                                                   '_ZN4YAML14EmitFromEvents8OnScalarERKNS_4MarkERKNSt7__cxx1112basic_stringIcSt11char_traitsIcESaIcEEEmSB_' => 1,
                                                   '_ZN4YAML14EmitFromEvents9BeginNodeEv' => 1,
                                                   '_ZN4YAML14EmitFromEvents9EmitPropsERKNSt7__cxx1112basic_stringIcSt11char_traitsIcESaIcEEEm' => 1,
                                                   '_ZN4YAML14EmitFromEventsC1ERNS_7EmitterE' => 1,
                                                   '_ZN4YAML14EmitFromEventsC2ERNS_7EmitterE' => 1,
                                                   '_ZN4YAML14EmitFromEventsD0Ev' => 1,
                                                   '_ZN4YAML14EmitFromEventsD1Ev' => 1,
                                                   '_ZN4YAML14EmitFromEventsD2Ev' => 1,
                                                   '_ZN4YAML15LoadAllFromFileERKNSt7__cxx1112basic_stringIcSt11char_traitsIcESaIcEEE' => 1,
                                                   '_ZN4YAML15ParserExceptionD0Ev' => 1,
                                                   '_ZN4YAML15ParserExceptionD1Ev' => 1,
                                                   '_ZN4YAML15ParserExceptionD2Ev' => 1,
                                                   '_ZN4YAML15ScanVerbatimTagB5cxx11ERNS_6StreamE' => 1,
                                                   '_ZN4YAML15SingleDocParser10HandleNodeERNS_12EventHandlerE' => 1,
                                                   '_ZN4YAML15SingleDocParser11ParseAnchorERmRNSt7__cxx1112basic_stringIcSt11char_traitsIcESaIcEEE' => 1,
                                                   '_ZN4YAML15SingleDocParser13HandleFlowMapERNS_12EventHandlerE' => 1,
                                                   '_ZN4YAML15SingleDocParser14HandleBlockMapERNS_12EventHandlerE' => 1,
                                                   '_ZN4YAML15SingleDocParser14HandleDocumentERNS_12EventHandlerE' => 1,
                                                   '_ZN4YAML15SingleDocParser14HandleSequenceERNS_12EventHandlerE' => 1,
                                                   '_ZN4YAML15SingleDocParser14RegisterAnchorERKNSt7__cxx1112basic_stringIcSt11char_traitsIcESaIcEEE' => 1,
                                                   '_ZN4YAML15SingleDocParser15ParsePropertiesERNSt7__cxx1112basic_stringIcSt11char_traitsIcESaIcEEERmS7_' => 1,
                                                   '_ZN4YAML15SingleDocParser16HandleCompactMapERNS_12EventHandlerE' => 1,
                                                   '_ZN4YAML15SingleDocParser18HandleFlowSequenceERNS_12EventHandlerE' => 1,
                                                   '_ZN4YAML15SingleDocParser19HandleBlockSequenceERNS_12EventHandlerE' => 1,
                                                   '_ZN4YAML15SingleDocParser25HandleCompactMapWithNoKeyERNS_12EventHandlerE' => 1,
                                                   '_ZN4YAML15SingleDocParser8ParseTagERNSt7__cxx1112basic_stringIcSt11char_traitsIcESaIcEEE' => 1,
                                                   '_ZN4YAML15SingleDocParser9HandleMapERNS_12EventHandlerE' => 1,
                                                   '_ZN4YAML15SingleDocParserC1ERNS_7ScannerERKNS_10DirectivesE' => 1,
                                                   '_ZN4YAML15SingleDocParserC2ERNS_7ScannerERKNS_10DirectivesE' => 1,
                                                   '_ZN4YAML15SingleDocParserD1Ev' => 1,
                                                   '_ZN4YAML15SingleDocParserD2Ev' => 1,
                                                   '_ZN4YAML15ostream_wrapper10update_posEc' => 1,
                                                   '_ZN4YAML15ostream_wrapper5writeEPKcm' => 1,
                                                   '_ZN4YAML15ostream_wrapper5writeERKNSt7__cxx1112basic_stringIcSt11char_traitsIcESaIcEEE' => 1,
                                                   '_ZN4YAML15ostream_wrapperC1ERSo' => 1,
                                                   '_ZN4YAML15ostream_wrapperC1Ev' => 1,
                                                   '_ZN4YAML15ostream_wrapperC2ERSo' => 1,
                                                   '_ZN4YAML15ostream_wrapperC2Ev' => 1,
                                                   '_ZN4YAML15ostream_wrapperD1Ev' => 1,
                                                   '_ZN4YAML15ostream_wrapperD2Ev' => 1,
                                                   '_ZN4YAML16EmitterExceptionD0Ev' => 1,
                                                   '_ZN4YAML16EmitterExceptionD1Ev' => 1,
                                                   '_ZN4YAML16EmitterExceptionD2Ev' => 1,
                                                   '_ZN4YAML18TypedBadConversionINSt7__cxx1112basic_stringIcSt11char_traitsIcESaIcEEEED0Ev' => 1,
                                                   '_ZN4YAML18TypedBadConversionINSt7__cxx1112basic_stringIcSt11char_traitsIcESaIcEEEED1Ev' => 1,
                                                   '_ZN4YAML18TypedBadConversionINSt7__cxx1112basic_stringIcSt11char_traitsIcESaIcEEEED2Ev' => 1,
                                                   '_ZN4YAML21QueueUnicodeCodepointERSt5dequeIcSaIcEEm' => 1,
                                                   '_ZN4YAML23RepresentationExceptionD0Ev' => 1,
                                                   '_ZN4YAML23RepresentationExceptionD1Ev' => 1,
                                                   '_ZN4YAML23RepresentationExceptionD2Ev' => 1,
                                                   '_ZN4YAML3Exp10BlockEntryEv' => 1,
                                                   '_ZN4YAML3Exp11PlainScalarEv' => 1,
                                                   '_ZN4YAML3Exp12BlankOrBreakEv' => 1,
                                                   '_ZN4YAML3Exp12NotPrintableEv' => 1,
                                                   '_ZN4YAML3Exp15EndScalarInFlowEv' => 1,
                                                   '_ZN4YAML3Exp17PlainScalarInFlowEv' => 1,
                                                   '_ZN4YAML3Exp3HexEv' => 1,
                                                   '_ZN4YAML3Exp3StrB5cxx11Ej' => 1,
                                                   '_ZN4YAML3Exp3TagEv' => 1,
                                                   '_ZN4YAML3Exp3URIEv' => 1,
                                                   '_ZN4YAML3Exp4WordEv' => 1,
                                                   '_ZN4YAML3Exp5BlankEv' => 1,
                                                   '_ZN4YAML3Exp5BreakEv' => 1,
                                                   '_ZN4YAML3Exp5ChompEv' => 1,
                                                   '_ZN4YAML3Exp6DocEndEv' => 1,
                                                   '_ZN4YAML3Exp6EscapeB5cxx11ERNS_6StreamE' => 1,
                                                   '_ZN4YAML3Exp6EscapeB5cxx11ERNS_6StreamEi' => 1,
                                                   '_ZN4YAML3Exp8DocStartEv' => 1,
                                                   '_ZN4YAML3Exp8ParseHexERKNSt7__cxx1112basic_stringIcSt11char_traitsIcESaIcEEERKNS_4MarkE' => 1,
                                                   '_ZN4YAML3Tag9TranslateB5cxx11ERKNS_10DirectivesE' => 1,
                                                   '_ZN4YAML3TagC1ERKNS_5TokenE' => 1,
                                                   '_ZN4YAML3TagC2ERKNS_5TokenE' => 1,
                                                   '_ZN4YAML4DumpB5cxx11ERKNS_4NodeE' => 1,
                                                   '_ZN4YAML4LoadEPKc' => 1,
                                                   '_ZN4YAML4LoadERKNSt7__cxx1112basic_stringIcSt11char_traitsIcESaIcEEE' => 1,
                                                   '_ZN4YAML4LoadERSi' => 1,
                                                   '_ZN4YAML4NodeD1Ev' => 1,
                                                   '_ZN4YAML4NodeD2Ev' => 1,
                                                   '_ZN4YAML4NullE' => -1,
                                                   '_ZN4YAML5CloneERKNS_4NodeE' => 1,
                                                   '_ZN4YAML5RegExC1ENS_8REGEX_OPE' => 1,
                                                   '_ZN4YAML5RegExC1ERKNSt7__cxx1112basic_stringIcSt11char_traitsIcESaIcEEENS_8REGEX_OPE' => 1,
                                                   '_ZN4YAML5RegExC1Ec' => 1,
                                                   '_ZN4YAML5RegExC1Ecc' => 1,
                                                   '_ZN4YAML5RegExC1Ev' => 1,
                                                   '_ZN4YAML5RegExC2ENS_8REGEX_OPE' => 1,
                                                   '_ZN4YAML5RegExC2ERKNSt7__cxx1112basic_stringIcSt11char_traitsIcESaIcEEENS_8REGEX_OPE' => 1,
                                                   '_ZN4YAML5RegExC2Ec' => 1,
                                                   '_ZN4YAML5RegExC2Ecc' => 1,
                                                   '_ZN4YAML5RegExC2Ev' => 1,
                                                   '_ZN4YAML5RegExD1Ev' => 1,
                                                   '_ZN4YAML5RegExD2Ev' => 1,
                                                   '_ZN4YAML5Utils10WriteAliasERNS_15ostream_wrapperERKNSt7__cxx1112basic_stringIcSt11char_traitsIcESaIcEEE' => 1,
                                                   '_ZN4YAML5Utils11WriteAnchorERNS_15ostream_wrapperERKNSt7__cxx1112basic_stringIcSt11char_traitsIcESaIcEEE' => 1,
                                                   '_ZN4YAML5Utils11WriteBinaryERNS_15ostream_wrapperERKNS_6BinaryE' => 1,
                                                   '_ZN4YAML5Utils12WriteCommentERNS_15ostream_wrapperERKNSt7__cxx1112basic_stringIcSt11char_traitsIcESaIcEEEm' => 1,
                                                   '_ZN4YAML5Utils18WriteLiteralStringERNS_15ostream_wrapperERKNSt7__cxx1112basic_stringIcSt11char_traitsIcESaIcEEEm' => 1,
                                                   '_ZN4YAML5Utils18WriteTagWithPrefixERNS_15ostream_wrapperERKNSt7__cxx1112basic_stringIcSt11char_traitsIcESaIcEEESA_' => 1,
                                                   '_ZN4YAML5Utils19ComputeStringFormatERKNSt7__cxx1112basic_stringIcSt11char_traitsIcESaIcEEENS_13EMITTER_MANIPENS_8FlowType5valueEb' => 1,
                                                   '_ZN4YAML5Utils23WriteDoubleQuotedStringERNS_15ostream_wrapperERKNSt7__cxx1112basic_stringIcSt11char_traitsIcESaIcEEEb' => 1,
                                                   '_ZN4YAML5Utils23WriteSingleQuotedStringERNS_15ostream_wrapperERKNSt7__cxx1112basic_stringIcSt11char_traitsIcESaIcEEE' => 1,
                                                   '_ZN4YAML5Utils8WriteTagERNS_15ostream_wrapperERKNSt7__cxx1112basic_stringIcSt11char_traitsIcESaIcEEEb' => 1,
                                                   '_ZN4YAML5Utils9WriteCharERNS_15ostream_wrapperEc' => 1,
                                                   '_ZN4YAML6Parser11PrintTokensERSo' => 1,
                                                   '_ZN4YAML6Parser15HandleDirectiveERKNS_5TokenE' => 1,
                                                   '_ZN4YAML6Parser15ParseDirectivesEv' => 1,
                                                   '_ZN4YAML6Parser18HandleNextDocumentERNS_12EventHandlerE' => 1,
                                                   '_ZN4YAML6Parser18HandleTagDirectiveERKNS_5TokenE' => 1,
                                                   '_ZN4YAML6Parser19HandleYamlDirectiveERKNS_5TokenE' => 1,
                                                   '_ZN4YAML6Parser4LoadERSi' => 1,
                                                   '_ZN4YAML6ParserC1ERSi' => 1,
                                                   '_ZN4YAML6ParserC1Ev' => 1,
                                                   '_ZN4YAML6ParserC2ERSi' => 1,
                                                   '_ZN4YAML6ParserC2Ev' => 1,
                                                   '_ZN4YAML6ParserD1Ev' => 1,
                                                   '_ZN4YAML6ParserD2Ev' => 1,
                                                   '_ZN4YAML6Stream14AdvanceCurrentEv' => 1,
                                                   '_ZN4YAML6Stream3eatEi' => 1,
                                                   '_ZN4YAML6Stream3getB5cxx11Ei' => 1,
                                                   '_ZN4YAML6Stream3getEv' => 1,
                                                   '_ZN4YAML6StreamC1ERSi' => 1,
                                                   '_ZN4YAML6StreamC2ERSi' => 1,
                                                   '_ZN4YAML6StreamD1Ev' => 1,
                                                   '_ZN4YAML6StreamD2Ev' => 1,
                                                   '_ZN4YAML6detail13memory_holder5mergeERS1_' => 1,
                                                   '_ZN4YAML6detail14iterator_valueD1Ev' => 1,
                                                   '_ZN4YAML6detail14iterator_valueD2Ev' => 1,
                                                   '_ZN4YAML6detail4node12mark_definedEv' => 1,
                                                   '_ZN4YAML6detail4nodeD1Ev' => 1,
                                                   '_ZN4YAML6detail4nodeD2Ev' => 1,
                                                   '_ZN4YAML6detail6memory11create_nodeEv' => 1,
                                                   '_ZN4YAML6detail6memory5mergeERKS1_' => 1,
                                                   '_ZN4YAML6detail9node_data10set_scalarERKNSt7__cxx1112basic_stringIcSt11char_traitsIcESaIcEEE' => 1,
                                                   '_ZN4YAML6detail9node_data12empty_scalarB5cxx11Ev' => 1,
                                                   '_ZN4YAML6detail9node_data12mark_definedEv' => 1,
                                                   '_ZN4YAML6detail9node_data14convert_to_mapESt10shared_ptrINS0_13memory_holderEE' => 1,
                                                   '_ZN4YAML6detail9node_data14reset_sequenceEv' => 1,
                                                   '_ZN4YAML6detail9node_data15insert_map_pairERNS0_4nodeES3_' => 1,
                                                   '_ZN4YAML6detail9node_data23convert_sequence_to_mapESt10shared_ptrINS0_13memory_holderEE' => 1,
                                                   '_ZN4YAML6detail9node_data3endEv' => 1,
                                                   '_ZN4YAML6detail9node_data3getERNS0_4nodeESt10shared_ptrINS0_13memory_holderEE' => 1,
                                                   '_ZN4YAML6detail9node_data5beginEv' => 1,
                                                   '_ZN4YAML6detail9node_data6insertERNS0_4nodeES3_St10shared_ptrINS0_13memory_holderEE' => 1,
                                                   '_ZN4YAML6detail9node_data6removeERNS0_4nodeESt10shared_ptrINS0_13memory_holderEE' => 1,
                                                   '_ZN4YAML6detail9node_data7set_tagERKNSt7__cxx1112basic_stringIcSt11char_traitsIcESaIcEEE' => 1,
                                                   '_ZN4YAML6detail9node_data8set_markERKNS_4MarkE' => 1,
                                                   '_ZN4YAML6detail9node_data8set_nullEv' => 1,
                                                   '_ZN4YAML6detail9node_data8set_typeENS_8NodeType5valueE' => 1,
                                                   '_ZN4YAML6detail9node_data9push_backERNS0_4nodeESt10shared_ptrINS0_13memory_holderEE' => 1,
                                                   '_ZN4YAML6detail9node_data9reset_mapEv' => 1,
                                                   '_ZN4YAML6detail9node_data9set_styleENS_12EmitterStyle5valueE' => 1,
                                                   '_ZN4YAML6detail9node_dataC1Ev' => 1,
                                                   '_ZN4YAML6detail9node_dataC2Ev' => 1,
                                                   '_ZN4YAML6detail9node_dataD1Ev' => 1,
                                                   '_ZN4YAML6detail9node_dataD2Ev' => 1,
                                                   '_ZN4YAML7BadFileC1Ev' => 1,
                                                   '_ZN4YAML7BadFileC2Ev' => 1,
                                                   '_ZN4YAML7BadFileD0Ev' => 1,
                                                   '_ZN4YAML7BadFileD1Ev' => 1,
                                                   '_ZN4YAML7BadFileD2Ev' => 1,
                                                   '_ZN4YAML7Emitter10EmitEndDocEv' => 1,
                                                   '_ZN4YAML7Emitter10EmitEndMapEv' => 1,
                                                   '_ZN4YAML7Emitter10EmitEndSeqEv' => 1,
                                                   '_ZN4YAML7Emitter10SetIntBaseENS_13EMITTER_MANIPE' => 1,
                                                   '_ZN4YAML7Emitter11EmitKindTagEv' => 1,
                                                   '_ZN4YAML7Emitter11EmitNewlineEv' => 1,
                                                   '_ZN4YAML7Emitter11PrepareNodeENS_15EmitterNodeType5valueE' => 1,
                                                   '_ZN4YAML7Emitter12EmitBeginDocEv' => 1,
                                                   '_ZN4YAML7Emitter12EmitBeginMapEv' => 1,
                                                   '_ZN4YAML7Emitter12EmitBeginSeqEv' => 1,
                                                   '_ZN4YAML7Emitter12SetMapFormatENS_13EMITTER_MANIPE' => 1,
                                                   '_ZN4YAML7Emitter12SetSeqFormatENS_13EMITTER_MANIPE' => 1,
                                                   '_ZN4YAML7Emitter13SetBoolFormatENS_13EMITTER_MANIPE' => 1,
                                                   '_ZN4YAML7Emitter13SetLocalValueENS_13EMITTER_MANIPE' => 1,
                                                   '_ZN4YAML7Emitter13StartedScalarEv' => 1,
                                                   '_ZN4YAML7Emitter14PrepareTopNodeENS_15EmitterNodeType5valueE' => 1,
                                                   '_ZN4YAML7Emitter14SetLocalIndentERKNS_7_IndentE' => 1,
                                                   '_ZN4YAML7Emitter15SetStringFormatENS_13EMITTER_MANIPE' => 1,
                                                   '_ZN4YAML7Emitter15SpaceOrIndentToEbm' => 1,
                                                   '_ZN4YAML7Emitter16SetOutputCharsetENS_13EMITTER_MANIPE' => 1,
                                                   '_ZN4YAML7Emitter17SetFloatPrecisionEm' => 1,
                                                   '_ZN4YAML7Emitter17SetLocalPrecisionERKNS_10_PrecisionE' => 1,
                                                   '_ZN4YAML7Emitter18FlowMapPrepareNodeENS_15EmitterNodeType5valueE' => 1,
                                                   '_ZN4YAML7Emitter18FlowSeqPrepareNodeENS_15EmitterNodeType5valueE' => 1,
                                                   '_ZN4YAML7Emitter18SetDoublePrecisionEm' => 1,
                                                   '_ZN4YAML7Emitter19BlockMapPrepareNodeENS_15EmitterNodeType5valueE' => 1,
                                                   '_ZN4YAML7Emitter19BlockSeqPrepareNodeENS_15EmitterNodeType5valueE' => 1,
                                                   '_ZN4YAML7Emitter19SetPreCommentIndentEm' => 1,
                                                   '_ZN4YAML7Emitter20SetPostCommentIndentEm' => 1,
                                                   '_ZN4YAML7Emitter21FlowMapPrepareLongKeyENS_15EmitterNodeType5valueE' => 1,
                                                   '_ZN4YAML7Emitter22BlockMapPrepareLongKeyENS_15EmitterNodeType5valueE' => 1,
                                                   '_ZN4YAML7Emitter23FlowMapPrepareSimpleKeyENS_15EmitterNodeType5valueE' => 1,
                                                   '_ZN4YAML7Emitter24BlockMapPrepareSimpleKeyENS_15EmitterNodeType5valueE' => 1,
                                                   '_ZN4YAML7Emitter26FlowMapPrepareLongKeyValueENS_15EmitterNodeType5valueE' => 1,
                                                   '_ZN4YAML7Emitter27BlockMapPrepareLongKeyValueENS_15EmitterNodeType5valueE' => 1,
                                                   '_ZN4YAML7Emitter28FlowMapPrepareSimpleKeyValueENS_15EmitterNodeType5valueE' => 1,
                                                   '_ZN4YAML7Emitter29BlockMapPrepareSimpleKeyValueENS_15EmitterNodeType5valueE' => 1,
                                                   '_ZN4YAML7Emitter5WriteERKNS_4_TagE' => 1,
                                                   '_ZN4YAML7Emitter5WriteERKNS_5_NullE' => 1,
                                                   '_ZN4YAML7Emitter5WriteERKNS_6BinaryE' => 1,
                                                   '_ZN4YAML7Emitter5WriteERKNS_6_AliasE' => 1,
                                                   '_ZN4YAML7Emitter5WriteERKNS_7_AnchorE' => 1,
                                                   '_ZN4YAML7Emitter5WriteERKNS_8_CommentE' => 1,
                                                   '_ZN4YAML7Emitter5WriteERKNSt7__cxx1112basic_stringIcSt11char_traitsIcESaIcEEE' => 1,
                                                   '_ZN4YAML7Emitter5WriteEb' => 1,
                                                   '_ZN4YAML7Emitter5WriteEc' => 1,
                                                   '_ZN4YAML7Emitter9SetIndentEm' => 1,
                                                   '_ZN4YAML7EmitterC1ERSo' => 1,
                                                   '_ZN4YAML7EmitterC1Ev' => 1,
                                                   '_ZN4YAML7EmitterC2ERSo' => 1,
                                                   '_ZN4YAML7EmitterC2Ev' => 1,
                                                   '_ZN4YAML7EmitterD1Ev' => 1,
                                                   '_ZN4YAML7EmitterD2Ev' => 1,
                                                   '_ZN4YAML7LoadAllEPKc' => 1,
                                                   '_ZN4YAML7LoadAllERKNSt7__cxx1112basic_stringIcSt11char_traitsIcESaIcEEE' => 1,
                                                   '_ZN4YAML7LoadAllERSi' => 1,
                                                   '_ZN4YAML7Scanner10ScanDocEndEv' => 1,
                                                   '_ZN4YAML7Scanner11ScanFlowEndEv' => 1,
                                                   '_ZN4YAML7Scanner11StartStreamEv' => 1,
                                                   '_ZN4YAML7Scanner12PushIndentToEiNS0_12IndentMarker11INDENT_TYPEE' => 1,
                                                   '_ZN4YAML7Scanner12ScanDocStartEv' => 1,
                                                   '_ZN4YAML7Scanner13PopAllIndentsEv' => 1,
                                                   '_ZN4YAML7Scanner13ScanDirectiveEv' => 1,
                                                   '_ZN4YAML7Scanner13ScanFlowEntryEv' => 1,
                                                   '_ZN4YAML7Scanner13ScanFlowStartEv' => 1,
                                                   '_ZN4YAML7Scanner13ScanNextTokenEv' => 1,
                                                   '_ZN4YAML7Scanner14ScanBlockEntryEv' => 1,
                                                   '_ZN4YAML7Scanner15PopIndentToHereEv' => 1,
                                                   '_ZN4YAML7Scanner15ScanBlockScalarEv' => 1,
                                                   '_ZN4YAML7Scanner15ScanPlainScalarEv' => 1,
                                                   '_ZN4YAML7Scanner15ScanToNextTokenEv' => 1,
                                                   '_ZN4YAML7Scanner15VerifySimpleKeyEv' => 1,
                                                   '_ZN4YAML7Scanner16PopAllSimpleKeysEv' => 1,
                                                   '_ZN4YAML7Scanner16ScanQuotedScalarEv' => 1,
                                                   '_ZN4YAML7Scanner17ScanAnchorOrAliasEv' => 1,
                                                   '_ZN4YAML7Scanner19EnsureTokensInQueueEv' => 1,
                                                   '_ZN4YAML7Scanner19InvalidateSimpleKeyEv' => 1,
                                                   '_ZN4YAML7Scanner21IsWhitespaceToBeEatenEc' => 1,
                                                   '_ZN4YAML7Scanner24InsertPotentialSimpleKeyEv' => 1,
                                                   '_ZN4YAML7Scanner3popEv' => 1,
                                                   '_ZN4YAML7Scanner4peekEv' => 1,
                                                   '_ZN4YAML7Scanner5emptyEv' => 1,
                                                   '_ZN4YAML7Scanner7ScanKeyEv' => 1,
                                                   '_ZN4YAML7Scanner7ScanTagEv' => 1,
                                                   '_ZN4YAML7Scanner9EndStreamEv' => 1,
                                                   '_ZN4YAML7Scanner9PopIndentEv' => 1,
                                                   '_ZN4YAML7Scanner9PushTokenENS_5Token4TYPEE' => 1,
                                                   '_ZN4YAML7Scanner9ScanValueEv' => 1,
                                                   '_ZN4YAML7Scanner9SimpleKey10InvalidateEv' => 1,
                                                   '_ZN4YAML7Scanner9SimpleKey8ValidateEv' => 1,
                                                   '_ZN4YAML7Scanner9SimpleKeyC1ERKNS_4MarkEm' => 1,
                                                   '_ZN4YAML7Scanner9SimpleKeyC2ERKNS_4MarkEm' => 1,
                                                   '_ZN4YAML7ScannerC1ERSi' => 1,
                                                   '_ZN4YAML7ScannerC2ERSi' => 1,
                                                   '_ZN4YAML7ScannerD1Ev' => 1,
                                                   '_ZN4YAML7ScannerD2Ev' => 1,
                                                   '_ZN4YAML7convertIbE6decodeERKNS_4NodeERb' => 1,
                                                   '_ZN4YAML8LoadFileERKNSt7__cxx1112basic_stringIcSt11char_traitsIcESaIcEEE' => 1,
                                                   '_ZN4YAML9BadInsertD0Ev' => 1,
                                                   '_ZN4YAML9BadInsertD1Ev' => 1,
                                                   '_ZN4YAML9BadInsertD2Ev' => 1,
                                                   '_ZN4YAML9Exception10build_whatERKNS_4MarkERKNSt7__cxx1112basic_stringIcSt11char_traitsIcESaIcEEE' => 1,
                                                   '_ZN4YAML9ExceptionC1ERKNS_4MarkERKNSt7__cxx1112basic_stringIcSt11char_traitsIcESaIcEEE' => 1,
                                                   '_ZN4YAML9ExceptionC2ERKNS_4MarkERKNSt7__cxx1112basic_stringIcSt11char_traitsIcESaIcEEE' => 1,
                                                   '_ZN4YAML9ExceptionD0Ev' => 1,
                                                   '_ZN4YAML9ExceptionD1Ev' => 1,
                                                   '_ZN4YAML9ExceptionD2Ev' => 1,
                                                   '_ZN4YAMLanERKNS_5RegExES2_' => 1,
                                                   '_ZN4YAMLlsERNS_7EmitterERKNS_4NodeE' => 1,
                                                   '_ZN4YAMLlsERSoRKNS_4NodeE' => 1,
                                                   '_ZN4YAMLntERKNS_5RegExE' => 1,
                                                   '_ZN4YAMLorERKNS_5RegExES2_' => 1,
                                                   '_ZN4YAMLplERKNS_5RegExES2_' => 1,
                                                   '_ZN5Arena4freeEPvm' => 1,
                                                   '_ZN5Arena5allocEmm' => 1,
                                                   '_ZN5Arena5resetEv' => 1,
                                                   '_ZN5Diags14deactivate_allE12DiagsTagType' => 1,
                                                   '_ZN5Diags14set_std_outputE9StdStreamPKc' => 1,
                                                   '_ZN5Diags14setup_diagslogEP11BaseLogFile' => 1,
                                                   '_ZN5Diags16activate_taglistEPKc12DiagsTagType' => 1,
                                                   '_ZN5Diags17rebind_std_streamE9StdStreami' => 1,
                                                   '_ZN5Diags20config_roll_diagslogE20RollingEnabledValuesii' => 1,
                                                   '_ZN5Diags20should_roll_diagslogEv' => 1,
                                                   '_ZN5Diags21config_roll_outputlogE20RollingEnabledValuesii' => 1,
                                                   '_ZN5Diags21should_roll_outputlogEv' => 1,
                                                   '_ZN5DiagsC1ESt17basic_string_viewIcSt11char_traitsIcEEPKcS5_P11BaseLogFileii' => 1,
                                                   '_ZN5DiagsC2ESt17basic_string_viewIcSt11char_traitsIcEEPKcS5_P11BaseLogFileii' => 1,
                                                   '_ZN5DiagsD0Ev' => 1,
                                                   '_ZN5DiagsD1Ev' => 1,
                                                   '_ZN5DiagsD2Ev' => 1,
                                                   '_ZN5IpMap4Node4dataEv' => 1,
                                                   '_ZN5IpMap4Node7setDataEPv' => 1,
                                                   '_ZN5IpMap4fillEPK8sockaddrS2_Pv' => 1,
                                                   '_ZN5IpMap4fillEjjPv' => 1,
                                                   '_ZN5IpMap4markEPK8sockaddrS2_Pv' => 1,
                                                   '_ZN5IpMap4markEjjPv' => 1,
                                                   '_ZN5IpMap5clearEv' => 1,
                                                   '_ZN5IpMap6unmarkEPK8sockaddrS2_' => 1,
                                                   '_ZN5IpMap6unmarkEjj' => 1,
                                                   '_ZN5IpMap8iteratorppEv' => 1,
                                                   '_ZN5IpMapC1EOS_' => 1,
                                                   '_ZN5IpMapC2EOS_' => 1,
                                                   '_ZN5IpMapD1Ev' => 1,
                                                   '_ZN5IpMapD2Ev' => 1,
                                                   '_ZN5IpMapaSEOS_' => 1,
                                                   '_ZN5Regex17get_capture_countEv' => 1,
                                                   '_ZN5Regex4execERKSt17basic_string_viewIcSt11char_traitsIcEE' => 1,
                                                   '_ZN5Regex4execERKSt17basic_string_viewIcSt11char_traitsIcEEPii' => 1,
                                                   '_ZN5Regex7compileEPKcj' => 1,
                                                   '_ZN5RegexC1EOS_' => 1,
                                                   '_ZN5RegexC2EOS_' => 1,
                                                   '_ZN5RegexD1Ev' => 1,
                                                   '_ZN5RegexD2Ev' => 1,
                                                   '_ZN6IpAddr4loadEPKc' => 1,
                                                   '_ZN6IpAddr4loadERKSt17basic_string_viewIcSt11char_traitsIcEE' => 1,
                                                   '_ZN6IpAddr7INVALIDE' => -24,
                                                   '_ZN6Layout11relative_toB5cxx11ESt17basic_string_viewIcSt11char_traitsIcEES3_' => 1,
                                                   '_ZN6Layout11relative_toEPcmSt17basic_string_viewIcSt11char_traitsIcEES4_' => 1,
                                                   '_ZN6Layout13runroot_setupEv' => 1,
                                                   '_ZN6Layout17update_sysconfdirESt17basic_string_viewIcSt11char_traitsIcEE' => 1,
                                                   '_ZN6Layout3getEv' => 1,
                                                   '_ZN6Layout6createESt17basic_string_viewIcSt11char_traitsIcEE' => 1,
                                                   '_ZN6Layout8relativeB5cxx11ESt17basic_string_viewIcSt11char_traitsIcEE' => 1,
                                                   '_ZN6LayoutC1ESt17basic_string_viewIcSt11char_traitsIcEE' => 1,
                                                   '_ZN6LayoutC2ESt17basic_string_viewIcSt11char_traitsIcEE' => 1,
                                                   '_ZN6LayoutD1Ev' => 1,
                                                   '_ZN6LayoutD2Ev' => 1,
                                                   '_ZN7ATSUuid10initializeE13TSUuidVersion' => 1,
                                                   '_ZN7ATSUuid11parseStringEPKc' => 1,
                                                   '_ZN7ATSUuidaSERKS_' => 1,
                                                   '_ZN7InkRand4seedEm' => 1,
                                                   '_ZN7InkRand6randomEv' => 1,
                                                   '_ZN7InkRand7drandomEv' => 1,
                                                   '_ZN7InkRandC1Em' => 1,
                                                   '_ZN7InkRandC2Em' => 1,
                                                   '_ZN7StrList19overflow_heap_allocEi' => 1,
                                                   '_ZN7StrList19overflow_heap_cleanEv' => 1,
                                                   '_ZN7StrList4dumpEP8_IO_FILE' => 1,
                                                   '_ZN7StrList9_new_cellEPKci' => 1,
                                                   '_ZN7jearena23JemallocNodumpAllocator10deallocateEP12_InkFreeListPv' => 1,
                                                   '_ZN7jearena23JemallocNodumpAllocator22extend_and_setup_arenaEv' => 1,
                                                   '_ZN7jearena23JemallocNodumpAllocator8allocateEP12_InkFreeList' => 1,
                                                   '_ZN7jearena23JemallocNodumpAllocatorC1Ev' => 1,
                                                   '_ZN7jearena23JemallocNodumpAllocatorC2Ev' => 1,
                                                   '_ZN7jearena29globalJemallocNodumpAllocatorEv' => 1,
                                                   '_ZN8LockPoolISt5mutexED1Ev' => 1,
                                                   '_ZN8LockPoolISt5mutexED2Ev' => 1,
                                                   '_ZN8Lockfile3GetEPi' => 1,
                                                   '_ZN8Lockfile4KillEiiPKc' => 1,
                                                   '_ZN8Lockfile4OpenEPi' => 1,
                                                   '_ZN8Lockfile5CloseEv' => 1,
                                                   '_ZN8Lockfile9KillGroupEiiPKc' => 1,
                                                   '_ZN8Resource9incrementEl' => 1,
                                                   '_ZN9CharIndex3endEv' => 1,
                                                   '_ZN9CharIndex5beginEv' => 1,
                                                   '_ZN9CharIndex6InsertESt17basic_string_viewIcSt11char_traitsIcEEP10HostBranch' => 1,
                                                   '_ZN9CharIndex6LookupESt17basic_string_viewIcSt11char_traitsIcEE' => 1,
                                                   '_ZN9CharIndex8iterator7advanceEv' => 1,
                                                   '_ZN9CharIndex8iteratordeEv' => 1,
                                                   '_ZN9CharIndex8iteratorppEv' => 1,
                                                   '_ZN9CharIndex8iteratorptEv' => 1,
                                                   '_ZN9CharIndexD1Ev' => 1,
                                                   '_ZN9CharIndexD2Ev' => 1,
                                                   '_ZN9HostArray6InsertESt17basic_string_viewIcSt11char_traitsIcEEP10HostBranch' => 1,
                                                   '_ZN9HostArray6LookupESt17basic_string_viewIcSt11char_traitsIcEEb' => 1,
                                                   '_ZN9Tokenizer10InitializeEPKc' => 1,
                                                   '_ZN9Tokenizer10InitializeEPcj' => 1,
                                                   '_ZN9Tokenizer5PrintEv' => 1,
                                                   '_ZN9Tokenizer5ReUseEv' => 1,
                                                   '_ZN9Tokenizer8addTokenEPci' => 1,
                                                   '_ZN9Tokenizer8iterNextEP14tok_iter_state' => 1,
                                                   '_ZN9Tokenizer9iterFirstEP14tok_iter_state' => 1,
                                                   '_ZN9TokenizerC1EPKc' => 1,
                                                   '_ZN9TokenizerC2EPKc' => 1,
                                                   '_ZN9TokenizerD1Ev' => 1,
                                                   '_ZN9TokenizerD2Ev' => 1,
                                                   '_ZNK10ATSHashMD53getEv' => 1,
                                                   '_ZNK10ATSHashMD54sizeEv' => 1,
                                                   '_ZNK14ATSHash32FNV1a3getEv' => 1,
                                                   '_ZNK14ATSHash64FNV1a3getEv' => 1,
                                                   '_ZNK14ATSHash64Sip243getEv' => 1,
                                                   '_ZNK14SourceLocation3strEPci' => 1,
                                                   '_ZNK14SourceLocation5printERN2ts12BufferWriterERKNS0_7BWFSpecE' => 1,
                                                   '_ZNK2ts12ArgumentData2atB5cxx11Ej' => 1,
                                                   '_ZNK2ts12ArgumentData3endB5cxx11Ev' => 1,
                                                   '_ZNK2ts12ArgumentData3envB5cxx11Ev' => 1,
                                                   '_ZNK2ts12ArgumentData4sizeEv' => 1,
                                                   '_ZNK2ts12ArgumentData5beginB5cxx11Ev' => 1,
                                                   '_ZNK2ts12ArgumentData5emptyEv' => 1,
                                                   '_ZNK2ts12ArgumentData5valueB5cxx11Ev' => 1,
                                                   '_ZNK2ts12IntrusivePtrINS_6Errata4DataEE3getEv' => 1,
                                                   '_ZNK2ts12IntrusivePtrINS_6Errata4DataEE9use_countEv' => 1,
                                                   '_ZNK2ts12IntrusivePtrINS_6Errata4DataEEcvbEv' => 1,
                                                   '_ZNK2ts12IntrusivePtrINS_6Errata4DataEEdeEv' => 1,
                                                   '_ZNK2ts12IntrusivePtrINS_6Errata4DataEEptEv' => 1,
                                                   '_ZNK2ts12IntrusivePtrINS_6Errata4SinkEEdeEv' => 1,
                                                   '_ZNK2ts12IntrusivePtrINS_8MemArena5BlockEE3getEv' => 1,
                                                   '_ZNK2ts12IntrusivePtrINS_8MemArena5BlockEEcvbEv' => 1,
                                                   '_ZNK2ts12IntrusivePtrINS_8MemArena5BlockEEptEv' => 1,
                                                   '_ZNK2ts14IntrusiveDListINS_6detail9IpMapBaseINS1_7Ip4NodeEE11NodeLinkageEE14const_iteratordeEv' => 1,
                                                   '_ZNK2ts14IntrusiveDListINS_6detail9IpMapBaseINS1_7Ip4NodeEE11NodeLinkageEE14const_iteratorneERKS7_' => 1,
                                                   '_ZNK2ts14IntrusiveDListINS_6detail9IpMapBaseINS1_7Ip4NodeEE11NodeLinkageEE3endEv' => 1,
                                                   '_ZNK2ts14IntrusiveDListINS_6detail9IpMapBaseINS1_7Ip4NodeEE11NodeLinkageEE5beginEv' => 1,
                                                   '_ZNK2ts14IntrusiveDListINS_6detail9IpMapBaseINS1_7Ip4NodeEE11NodeLinkageEE5countEv' => 1,
                                                   '_ZNK2ts14IntrusiveDListINS_6detail9IpMapBaseINS1_7Ip6NodeEE11NodeLinkageEE14const_iteratordeEv' => 1,
                                                   '_ZNK2ts14IntrusiveDListINS_6detail9IpMapBaseINS1_7Ip6NodeEE11NodeLinkageEE14const_iteratorneERKS7_' => 1,
                                                   '_ZNK2ts14IntrusiveDListINS_6detail9IpMapBaseINS1_7Ip6NodeEE11NodeLinkageEE3endEv' => 1,
                                                   '_ZNK2ts14IntrusiveDListINS_6detail9IpMapBaseINS1_7Ip6NodeEE11NodeLinkageEE5beginEv' => 1,
                                                   '_ZNK2ts14IntrusiveDListINS_6detail9IpMapBaseINS1_7Ip6NodeEE11NodeLinkageEE5countEv' => 1,
                                                   '_ZNK2ts17FixedBufferWriter4dataEv' => 1,
                                                   '_ZNK2ts17FixedBufferWriter5errorEv' => 1,
                                                   '_ZNK2ts17FixedBufferWriter6extentEv' => 1,
                                                   '_ZNK2ts17FixedBufferWriter8capacityEv' => 1,
                                                   '_ZNK2ts17FixedBufferWriterrsERSo' => 1,
                                                   '_ZNK2ts17FixedBufferWriterrsEi' => 1,
                                                   '_ZNK2ts6Errata3endEv' => 1,
                                                   '_ZNK2ts6Errata4Data3topEv' => 1,
                                                   '_ZNK2ts6Errata5beginEv' => 1,
                                                   '_ZNK2ts6Errata5writeEPcmiiiPKc' => 1,
                                                   '_ZNK2ts6Errata5writeERSoiiiPKc' => 1,
                                                   '_ZNK2ts6detail6RBNode8getChildENS1_9DirectionE' => 1,
                                                   '_ZNK2ts6detail7Ip4Node3maxEv' => 1,
                                                   '_ZNK2ts6detail7Ip4Node3minEv' => 1,
                                                   '_ZNK2ts6detail7Ip6Node3maxEv' => 1,
                                                   '_ZNK2ts6detail7Ip6Node3minEv' => 1,
                                                   '_ZNK2ts6detail9IpMapBaseINS0_7Ip4NodeEE5countEv' => 1,
                                                   '_ZNK2ts6detail9IpMapBaseINS0_7Ip4NodeEE8containsEjPPv' => 1,
                                                   '_ZNK2ts6detail9IpMapBaseINS0_7Ip4NodeEE8describeERNS_12BufferWriterERKNS_7BWFSpecE' => 1,
                                                   '_ZNK2ts6detail9IpMapBaseINS0_7Ip6NodeEE5countEv' => 1,
                                                   '_ZNK2ts6detail9IpMapBaseINS0_7Ip6NodeEE8containsEPK12sockaddr_in6PPv' => 1,
                                                   '_ZNK2ts6detail9IpMapBaseINS0_7Ip6NodeEE8describeERNS_12BufferWriterERKNS_7BWFSpecE' => 1,
                                                   '_ZNK2ts8MemArena8containsEPKv' => 1,
                                                   '_ZNK2ts9ArgParser12help_messageESt17basic_string_viewIcSt11char_traitsIcEE' => 1,
                                                   '_ZNK2ts9ArgParser7Command12check_optionERKNSt7__cxx1112basic_stringIcSt11char_traitsIcESaIcEEES9_S9_' => 1,
                                                   '_ZNK2ts9ArgParser7Command12help_messageESt17basic_string_viewIcSt11char_traitsIcEE' => 1,
                                                   '_ZNK2ts9ArgParser7Command13check_commandERKNSt7__cxx1112basic_stringIcSt11char_traitsIcESaIcEEES9_' => 1,
                                                   '_ZNK2ts9ArgParser7Command13output_optionEv' => 1,
                                                   '_ZNK2ts9ArgParser7Command14output_commandERSoRKNSt7__cxx1112basic_stringIcSt11char_traitsIcESaIcEEE' => 1,
                                                   '_ZNK2ts9ArgParser7Command15version_messageEv' => 1,
                                                   '_ZNK2ts9ArgParser9get_errorB5cxx11Ev' => 1,
                                                   '_ZNK2ts9Arguments10has_actionEv' => 1,
                                                   '_ZNK2ts9Arguments22show_all_configurationEv' => 1,
                                                   '_ZNK3DFA5matchERKSt17basic_string_viewIcSt11char_traitsIcEE' => 1,
                                                   '_ZNK3ats10CryptoHash8toHexStrEPc' => 1,
                                                   '_ZNK3ext7details6Schema12no_instancesEv' => 1,
                                                   '_ZNK3ext7details6Schema8fullSizeEm' => 1,
                                                   '_ZNK4YAML10Directives18TranslateTagHandleERKNSt7__cxx1112basic_stringIcSt11char_traitsIcESaIcEEE' => 1,
                                                   '_ZNK4YAML10NodeEvents12AliasManager12LookupAnchorERKNS_6detail4nodeE' => 1,
                                                   '_ZNK4YAML10NodeEvents4EmitERKNS_6detail4nodeERNS_12EventHandlerERNS0_12AliasManagerE' => 1,
                                                   '_ZNK4YAML10NodeEvents9IsAliasedERKNS_6detail4nodeE' => 1,
                                                   '_ZNK4YAML12EmitterState10LastIndentEv' => 1,
                                                   '_ZNK4YAML12EmitterState11GetFlowTypeENS_9GroupType5valueE' => 1,
                                                   '_ZNK4YAML12EmitterState12CurGroupTypeEv' => 1,
                                                   '_ZNK4YAML12EmitterState13NextGroupTypeENS_9GroupType5valueE' => 1,
                                                   '_ZNK4YAML12EmitterState14CurGroupIndentEv' => 1,
                                                   '_ZNK4YAML12EmitterState15CurGroupLongKeyEv' => 1,
                                                   '_ZNK4YAML12EmitterState16CurGroupFlowTypeEv' => 1,
                                                   '_ZNK4YAML12EmitterState16CurGroupNodeTypeEv' => 1,
                                                   '_ZNK4YAML12EmitterState18CurGroupChildCountEv' => 1,
                                                   '_ZNK4YAML15SingleDocParser12LookupAnchorERKNS_4MarkERKNSt7__cxx1112basic_stringIcSt11char_traitsIcESaIcEEE' => 1,
                                                   '_ZNK4YAML4Node2asINSt7__cxx1112basic_stringIcSt11char_traitsIcESaIcEEEEET_v' => 1,
                                                   '_ZNK4YAML4Node4MarkEv' => 1,
                                                   '_ZNK4YAML5RegEx14MatchUncheckedINS_16StreamCharSourceEEEiRKT_' => 1,
                                                   '_ZNK4YAML5RegEx14MatchUncheckedINS_16StringCharSourceEEEiRKT_' => 1,
                                                   '_ZNK4YAML6ParsercvbEv' => 1,
                                                   '_ZNK4YAML6Stream11GetNextByteEv' => 1,
                                                   '_ZNK4YAML6Stream12StreamInUtf8Ev' => 1,
                                                   '_ZNK4YAML6Stream12_ReadAheadToEm' => 1,
                                                   '_ZNK4YAML6Stream13StreamInUtf16Ev' => 1,
                                                   '_ZNK4YAML6Stream13StreamInUtf32Ev' => 1,
                                                   '_ZNK4YAML6Stream4peekEv' => 1,
                                                   '_ZNK4YAML6StreamcvbEv' => 1,
                                                   '_ZNK4YAML6detail13iterator_baseINS0_14iterator_valueEEdeEv' => 1,
                                                   '_ZNK4YAML6detail9node_data16compute_map_sizeEv' => 1,
                                                   '_ZNK4YAML6detail9node_data16compute_seq_sizeEv' => 1,
                                                   '_ZNK4YAML6detail9node_data3endEv' => 1,
                                                   '_ZNK4YAML6detail9node_data3getERNS0_4nodeESt10shared_ptrINS0_13memory_holderEE' => 1,
                                                   '_ZNK4YAML6detail9node_data4sizeEv' => 1,
                                                   '_ZNK4YAML6detail9node_data5beginEv' => 1,
                                                   '_ZNK4YAML7Emitter12GetLastErrorB5cxx11Ev' => 1,
                                                   '_ZNK4YAML7Emitter14CanEmitNewlineEv' => 1,
                                                   '_ZNK4YAML7Emitter17GetFloatPrecisionEv' => 1,
                                                   '_ZNK4YAML7Emitter18GetDoublePrecisionEv' => 1,
                                                   '_ZNK4YAML7Emitter19ComputeFullBoolNameEb' => 1,
                                                   '_ZNK4YAML7Emitter21PrepareIntegralStreamERNSt7__cxx1118basic_stringstreamIcSt11char_traitsIcESaIcEEE' => 1,
                                                   '_ZNK4YAML7Emitter4goodEv' => 1,
                                                   '_ZNK4YAML7Emitter4sizeEv' => 1,
                                                   '_ZNK4YAML7Emitter5c_strEv' => 1,
                                                   '_ZNK4YAML7Scanner12GetTopIndentEv' => 1,
                                                   '_ZNK4YAML7Scanner13GetValueRegexEv' => 1,
                                                   '_ZNK4YAML7Scanner16GetStartTokenForENS0_12IndentMarker11INDENT_TYPEE' => 1,
                                                   '_ZNK4YAML7Scanner20ThrowParserExceptionERKNSt7__cxx1112basic_stringIcSt11char_traitsIcESaIcEEE' => 1,
                                                   '_ZNK4YAML7Scanner21ExistsActiveSimpleKeyEv' => 1,
                                                   '_ZNK4YAML7Scanner27CanInsertPotentialSimpleKeyEv' => 1,
                                                   '_ZNK4YAML7Scanner4markEv' => 1,
                                                   '_ZNK5Diags10level_nameE10DiagsLevel' => 1,
                                                   '_ZNK5Diags13tag_activatedEPKc12DiagsTagType' => 1,
                                                   '_ZNK5Diags2onE12DiagsTagType' => 1,
                                                   '_ZNK5Diags3logEPKc10DiagsLevelPK14SourceLocationS1_z' => 1,
                                                   '_ZNK5Diags4dumpEP8_IO_FILE' => 1,
                                                   '_ZNK5Diags5errorE10DiagsLevelPK14SourceLocationPKcz' => 1,
                                                   '_ZNK5Diags8error_vaE10DiagsLevelPK14SourceLocationPKcP13__va_list_tag' => 1,
                                                   '_ZNK5Diags8print_vaEPKc10DiagsLevelPK14SourceLocationS1_P13__va_list_tag' => 1,
                                                   '_ZNK5IpMap5beginEv' => 1,
                                                   '_ZNK5IpMap5countEv' => 1,
                                                   '_ZNK5IpMap8containsEPK8sockaddrPPv' => 1,
                                                   '_ZNK5IpMap8containsEjPPv' => 1,
                                                   '_ZNK5IpMap8describeERN2ts12BufferWriterERKNS0_7BWFSpecE' => 1,
                                                   '_ZNK6IpAddr11isMulticastEv' => 1,
                                                   '_ZNK6IpAddr3cmpERKS_' => 1,
                                                   '_ZNK6IpAddr8toStringEPcm' => 1,
                                                   '_ZNK7ATSHasheqERKS_' => 1,
                                                   '_ZNK9ATSHash32eqERKS_' => 1,
                                                   '_ZNK9ATSHash64eqERKS_' => 1,
                                                   '_ZNK9CharIndex8iteratoreqERKS0_' => 1,
                                                   '_ZNK9CharIndex8iteratorneERKS0_' => 1,
                                                   '_ZNK9Tokenizer5countEv' => 1,
                                                   '_ZNK9TokenizerixEj' => 1,
                                                   '_ZNKSt10_HashtableINSt7__cxx1112basic_stringIcSt11char_traitsIcESaIcEEESt4pairIKS5_S5_ESaIS8_ENSt8__detail10_Select1stESt8equal_toIS5_ESt4hashIS5_ENSA_18_Mod_range_hashingENSA_20_Default_ranged_hashENSA_20_Prime_rehash_policyENSA_17_Hashtable_traitsILb1ELb0ELb1EEEE19_M_find_before_nodeEmRS7_m' => 1,
                                                   '_ZNKSt10_HashtableISt17basic_string_viewIcSt11char_traitsIcEESt4pairIKS3_P10HostBranchESaIS8_ENSt8__detail10_Select1stESt8equal_toIS3_ESt4hashIS3_ENSA_18_Mod_range_hashingENSA_20_Default_ranged_hashENSA_20_Prime_rehash_policyENSA_17_Hashtable_traitsILb1ELb0ELb1EEEE19_M_find_before_nodeEmRS5_m' => 1,
                                                   '_ZNKSt8_Rb_treeINSt7__cxx1112basic_stringIcSt11char_traitsIcESaIcEEESt4pairIKS5_N2ts9ArgParser6OptionEESt10_Select1stISB_ESt4lessIS5_ESaISB_EE14_M_lower_boundEPKSt13_Rb_tree_nodeISB_EPKSt18_Rb_tree_node_baseRS7_' => 1,
                                                   '_ZNKSt8_Rb_treeINSt7__cxx1112basic_stringIcSt11char_traitsIcESaIcEEESt4pairIKS5_N2ts9ArgParser6OptionEESt10_Select1stISB_ESt4lessIS5_ESaISB_EE4findERS7_' => 1,
                                                   '_ZNKSt8_Rb_treeINSt7__cxx1112basic_stringIcSt11char_traitsIcESaIcEEESt4pairIKS5_N2ts9ArgParser7CommandEESt10_Select1stISB_ESt4lessIS5_ESaISB_EE14_M_lower_boundEPKSt13_Rb_tree_nodeISB_EPKSt18_Rb_tree_node_baseRS7_' => 1,
                                                   '_ZNKSt8_Rb_treeINSt7__cxx1112basic_stringIcSt11char_traitsIcESaIcEEESt4pairIKS5_N2ts9ArgParser7CommandEESt10_Select1stISB_ESt4lessIS5_ESaISB_EE4findERS7_' => 1,
                                                   '_ZNKSt8_Rb_treeINSt7__cxx1112basic_stringIcSt11char_traitsIcESaIcEEESt4pairIKS5_S5_ESt10_Select1stIS8_ESt4lessIS5_ESaIS8_EE14_M_lower_boundEPKSt13_Rb_tree_nodeIS8_EPKSt18_Rb_tree_node_baseRS7_' => 1,
                                                   '_ZNKSt8_Rb_treeINSt7__cxx1112basic_stringIcSt11char_traitsIcESaIcEEESt4pairIKS5_S5_ESt10_Select1stIS8_ESt4lessIS5_ESaIS8_EE4findERS7_' => 1,
                                                   '_ZNKSt8_Rb_treeINSt7__cxx1112basic_stringIcSt11char_traitsIcESaIcEEESt4pairIKS5_mESt10_Select1stIS8_ESt4lessIS5_ESaIS8_EE14_M_lower_boundEPKSt13_Rb_tree_nodeIS8_EPKSt18_Rb_tree_node_baseRS7_' => 1,
                                                   '_ZNKSt8_Rb_treeINSt7__cxx1112basic_stringIcSt11char_traitsIcESaIcEEESt4pairIKS5_mESt10_Select1stIS8_ESt4lessIS5_ESaIS8_EE4findERS7_' => 1,
                                                   '_ZNKSt8_Rb_treeIPKN4YAML6detail8node_refESt4pairIKS4_iESt10_Select1stIS7_ESt4lessIS4_ESaIS7_EE14_M_lower_boundEPKSt13_Rb_tree_nodeIS7_EPKSt18_Rb_tree_node_baseRS6_' => 1,
                                                   '_ZNKSt8_Rb_treeIPKN4YAML6detail8node_refESt4pairIKS4_iESt10_Select1stIS7_ESt4lessIS4_ESaIS7_EE4findERS6_' => 1,
                                                   '_ZNKSt8_Rb_treeIPKN4YAML6detail8node_refESt4pairIKS4_mESt10_Select1stIS7_ESt4lessIS4_ESaIS7_EE14_M_lower_boundEPKSt13_Rb_tree_nodeIS7_EPKSt18_Rb_tree_node_baseRS6_' => 1,
                                                   '_ZNKSt8_Rb_treeIPKN4YAML6detail8node_refESt4pairIKS4_mESt10_Select1stIS7_ESt4lessIS4_ESaIS7_EE4findERS6_' => 1,
                                                   '_ZNSt10_HashtableINSt7__cxx1112basic_stringIcSt11char_traitsIcESaIcEEESt4pairIKS5_N3ext7details9FieldDescEESaISB_ENSt8__detail10_Select1stESt8equal_toIS5_ESt4hashIS5_ENSD_18_Mod_range_hashingENSD_20_Default_ranged_hashENSD_20_Prime_rehash_policyENSD_17_Hashtable_traitsILb1ELb0ELb1EEEE5clearEv' => 1,
                                                   '_ZNSt10_HashtableINSt7__cxx1112basic_stringIcSt11char_traitsIcESaIcEEESt4pairIKS5_N3ext7details9FieldDescEESaISB_ENSt8__detail10_Select1stESt8equal_toIS5_ESt4hashIS5_ENSD_18_Mod_range_hashingENSD_20_Default_ranged_hashENSD_20_Prime_rehash_policyENSD_17_Hashtable_traitsILb1ELb0ELb1EEEED1Ev' => 1,
                                                   '_ZNSt10_HashtableINSt7__cxx1112basic_stringIcSt11char_traitsIcESaIcEEESt4pairIKS5_N3ext7details9FieldDescEESaISB_ENSt8__detail10_Select1stESt8equal_toIS5_ESt4hashIS5_ENSD_18_Mod_range_hashingENSD_20_Default_ranged_hashENSD_20_Prime_rehash_policyENSD_17_Hashtable_traitsILb1ELb0ELb1EEEED2Ev' => 1,
                                                   '_ZNSt10_HashtableINSt7__cxx1112basic_stringIcSt11char_traitsIcESaIcEEESt4pairIKS5_S5_ESaIS8_ENSt8__detail10_Select1stESt8equal_toIS5_ESt4hashIS5_ENSA_18_Mod_range_hashingENSA_20_Default_ranged_hashENSA_20_Prime_rehash_policyENSA_17_Hashtable_traitsILb1ELb0ELb1EEEE12_Scoped_nodeD1Ev' => 1,
                                                   '_ZNSt10_HashtableINSt7__cxx1112basic_stringIcSt11char_traitsIcESaIcEEESt4pairIKS5_S5_ESaIS8_ENSt8__detail10_Select1stESt8equal_toIS5_ESt4hashIS5_ENSA_18_Mod_range_hashingENSA_20_Default_ranged_hashENSA_20_Prime_rehash_policyENSA_17_Hashtable_traitsILb1ELb0ELb1EEEE12_Scoped_nodeD2Ev' => 1,
                                                   '_ZNSt10_HashtableINSt7__cxx1112basic_stringIcSt11char_traitsIcESaIcEEESt4pairIKS5_S5_ESaIS8_ENSt8__detail10_Select1stESt8equal_toIS5_ESt4hashIS5_ENSA_18_Mod_range_hashingENSA_20_Default_ranged_hashENSA_20_Prime_rehash_policyENSA_17_Hashtable_traitsILb1ELb0ELb1EEEE13_M_rehash_auxEmSt17integral_constantIbLb1EE' => 1,
                                                   '_ZNSt10_HashtableINSt7__cxx1112basic_stringIcSt11char_traitsIcESaIcEEESt4pairIKS5_S5_ESaIS8_ENSt8__detail10_Select1stESt8equal_toIS5_ESt4hashIS5_ENSA_18_Mod_range_hashingENSA_20_Default_ranged_hashENSA_20_Prime_rehash_policyENSA_17_Hashtable_traitsILb1ELb0ELb1EEEE21_M_insert_unique_nodeEmmPNSA_10_Hash_nodeIS8_Lb1EEEm' => 1,
                                                   '_ZNSt10_HashtableINSt7__cxx1112basic_stringIcSt11char_traitsIcESaIcEEESt4pairIKS5_S5_ESaIS8_ENSt8__detail10_Select1stESt8equal_toIS5_ESt4hashIS5_ENSA_18_Mod_range_hashingENSA_20_Default_ranged_hashENSA_20_Prime_rehash_policyENSA_17_Hashtable_traitsILb1ELb0ELb1EEEE22_M_insert_bucket_beginEmPNSA_10_Hash_nodeIS8_Lb1EEE' => 1,
                                                   '_ZNSt10_HashtableINSt7__cxx1112basic_stringIcSt11char_traitsIcESaIcEEESt4pairIKS5_S5_ESaIS8_ENSt8__detail10_Select1stESt8equal_toIS5_ESt4hashIS5_ENSA_18_Mod_range_hashingENSA_20_Default_ranged_hashENSA_20_Prime_rehash_policyENSA_17_Hashtable_traitsILb1ELb0ELb1EEEE5clearEv' => 1,
                                                   '_ZNSt10_HashtableINSt7__cxx1112basic_stringIcSt11char_traitsIcESaIcEEESt4pairIKS5_S5_ESaIS8_ENSt8__detail10_Select1stESt8equal_toIS5_ESt4hashIS5_ENSA_18_Mod_range_hashingENSA_20_Default_ranged_hashENSA_20_Prime_rehash_policyENSA_17_Hashtable_traitsILb1ELb0ELb1EEEE8_M_resetEv' => 1,
                                                   '_ZNSt10_HashtableINSt7__cxx1112basic_stringIcSt11char_traitsIcESaIcEEESt4pairIKS5_S5_ESaIS8_ENSt8__detail10_Select1stESt8equal_toIS5_ESt4hashIS5_ENSA_18_Mod_range_hashingENSA_20_Default_ranged_hashENSA_20_Prime_rehash_policyENSA_17_Hashtable_traitsILb1ELb0ELb1EEEE9_M_rehashEmRKm' => 1,
                                                   '_ZNSt10_HashtableINSt7__cxx1112basic_stringIcSt11char_traitsIcESaIcEEESt4pairIKS5_S5_ESaIS8_ENSt8__detail10_Select1stESt8equal_toIS5_ESt4hashIS5_ENSA_18_Mod_range_hashingENSA_20_Default_ranged_hashENSA_20_Prime_rehash_policyENSA_17_Hashtable_traitsILb1ELb0ELb1EEEEC1EOSL_OSaINSA_10_Hash_nodeIS8_Lb1EEEESt17integral_constantIbLb1EE' => 1,
                                                   '_ZNSt10_HashtableINSt7__cxx1112basic_stringIcSt11char_traitsIcESaIcEEESt4pairIKS5_S5_ESaIS8_ENSt8__detail10_Select1stESt8equal_toIS5_ESt4hashIS5_ENSA_18_Mod_range_hashingENSA_20_Default_ranged_hashENSA_20_Prime_rehash_policyENSA_17_Hashtable_traitsILb1ELb0ELb1EEEEC2EOSL_OSaINSA_10_Hash_nodeIS8_Lb1EEEESt17integral_constantIbLb1EE' => 1,
                                                   '_ZNSt10_HashtableINSt7__cxx1112basic_stringIcSt11char_traitsIcESaIcEEESt4pairIKS5_S5_ESaIS8_ENSt8__detail10_Select1stESt8equal_toIS5_ESt4hashIS5_ENSA_18_Mod_range_hashingENSA_20_Default_ranged_hashENSA_20_Prime_rehash_policyENSA_17_Hashtable_traitsILb1ELb0ELb1EEEED1Ev' => 1,
                                                   '_ZNSt10_HashtableINSt7__cxx1112basic_stringIcSt11char_traitsIcESaIcEEESt4pairIKS5_S5_ESaIS8_ENSt8__detail10_Select1stESt8equal_toIS5_ESt4hashIS5_ENSA_18_Mod_range_hashingENSA_20_Default_ranged_hashENSA_20_Prime_rehash_policyENSA_17_Hashtable_traitsILb1ELb0ELb1EEEED2Ev' => 1,
                                                   '_ZNSt10_HashtableISt17basic_string_viewIcSt11char_traitsIcEESt4pairIKS3_P10HostBranchESaIS8_ENSt8__detail10_Select1stESt8equal_toIS3_ESt4hashIS3_ENSA_18_Mod_range_hashingENSA_20_Default_ranged_hashENSA_20_Prime_rehash_policyENSA_17_Hashtable_traitsILb1ELb0ELb1EEEE10_M_emplaceIJRNSt7__cxx1112basic_stringIcS2_SaIcEEERS7_EEES4_INSA_14_Node_iteratorIS8_Lb0ELb1EEEbESt17integral_constantIbLb1EEDpOT_' => 1,
                                                   '_ZNSt10_HashtableISt17basic_string_viewIcSt11char_traitsIcEESt4pairIKS3_P10HostBranchESaIS8_ENSt8__detail10_Select1stESt8equal_toIS3_ESt4hashIS3_ENSA_18_Mod_range_hashingENSA_20_Default_ranged_hashENSA_20_Prime_rehash_policyENSA_17_Hashtable_traitsILb1ELb0ELb1EEEE13_M_rehash_auxEmSt17integral_constantIbLb1EE' => 1,
                                                   '_ZNSt10_HashtableISt17basic_string_viewIcSt11char_traitsIcEESt4pairIKS3_P10HostBranchESaIS8_ENSt8__detail10_Select1stESt8equal_toIS3_ESt4hashIS3_ENSA_18_Mod_range_hashingENSA_20_Default_ranged_hashENSA_20_Prime_rehash_policyENSA_17_Hashtable_traitsILb1ELb0ELb1EEEE21_M_insert_unique_nodeEmmPNSA_10_Hash_nodeIS8_Lb1EEEm' => 1,
                                                   '_ZNSt10_HashtableISt17basic_string_viewIcSt11char_traitsIcEESt4pairIKS3_P10HostBranchESaIS8_ENSt8__detail10_Select1stESt8equal_toIS3_ESt4hashIS3_ENSA_18_Mod_range_hashingENSA_20_Default_ranged_hashENSA_20_Prime_rehash_policyENSA_17_Hashtable_traitsILb1ELb0ELb1EEEE22_M_insert_bucket_beginEmPNSA_10_Hash_nodeIS8_Lb1EEE' => 1,
                                                   '_ZNSt10_HashtableISt17basic_string_viewIcSt11char_traitsIcEESt4pairIKS3_P10HostBranchESaIS8_ENSt8__detail10_Select1stESt8equal_toIS3_ESt4hashIS3_ENSA_18_Mod_range_hashingENSA_20_Default_ranged_hashENSA_20_Prime_rehash_policyENSA_17_Hashtable_traitsILb1ELb0ELb1EEEE4findERS5_' => 1,
                                                   '_ZNSt10_HashtableISt17basic_string_viewIcSt11char_traitsIcEESt4pairIKS3_P10HostBranchESaIS8_ENSt8__detail10_Select1stESt8equal_toIS3_ESt4hashIS3_ENSA_18_Mod_range_hashingENSA_20_Default_ranged_hashENSA_20_Prime_rehash_policyENSA_17_Hashtable_traitsILb1ELb0ELb1EEEE5clearEv' => 1,
                                                   '_ZNSt10_HashtableISt17basic_string_viewIcSt11char_traitsIcEESt4pairIKS3_P10HostBranchESaIS8_ENSt8__detail10_Select1stESt8equal_toIS3_ESt4hashIS3_ENSA_18_Mod_range_hashingENSA_20_Default_ranged_hashENSA_20_Prime_rehash_policyENSA_17_Hashtable_traitsILb1ELb0ELb1EEEE9_M_rehashEmRKm' => 1,
                                                   '_ZNSt10_HashtableISt17basic_string_viewIcSt11char_traitsIcEESt4pairIKS3_P10HostBranchESaIS8_ENSt8__detail10_Select1stESt8equal_toIS3_ESt4hashIS3_ENSA_18_Mod_range_hashingENSA_20_Default_ranged_hashENSA_20_Prime_rehash_policyENSA_17_Hashtable_traitsILb1ELb0ELb1EEEED1Ev' => 1,
                                                   '_ZNSt10_HashtableISt17basic_string_viewIcSt11char_traitsIcEESt4pairIKS3_P10HostBranchESaIS8_ENSt8__detail10_Select1stESt8equal_toIS3_ESt4hashIS3_ENSA_18_Mod_range_hashingENSA_20_Default_ranged_hashENSA_20_Prime_rehash_policyENSA_17_Hashtable_traitsILb1ELb0ELb1EEEED2Ev' => 1,
                                                   '_ZNSt10unique_ptrIN4YAML12EmitterState5GroupESt14default_deleteIS2_EED1Ev' => 1,
                                                   '_ZNSt10unique_ptrIN4YAML12EmitterState5GroupESt14default_deleteIS2_EED2Ev' => 1,
                                                   '_ZNSt10unique_ptrIN4YAML12EmitterStateESt14default_deleteIS1_EED1Ev' => 1,
                                                   '_ZNSt10unique_ptrIN4YAML12EmitterStateESt14default_deleteIS1_EED2Ev' => 1,
                                                   '_ZNSt10unique_ptrIN4YAML17SettingChangeBaseESt14default_deleteIS1_EED1Ev' => 1,
                                                   '_ZNSt10unique_ptrIN4YAML17SettingChangeBaseESt14default_deleteIS1_EED2Ev' => 1,
                                                   '_ZNSt10unique_ptrIN4YAML7Scanner12IndentMarkerESt14default_deleteIS2_EED1Ev' => 1,
                                                   '_ZNSt10unique_ptrIN4YAML7Scanner12IndentMarkerESt14default_deleteIS2_EED2Ev' => 1,
                                                   '_ZNSt11_Deque_baseIN2ts12IntrusivePtrINS0_6Errata4SinkEEESaIS4_EE15_M_create_nodesEPPS4_S8_' => 1,
                                                   '_ZNSt11_Deque_baseIN2ts12IntrusivePtrINS0_6Errata4SinkEEESaIS4_EE16_M_destroy_nodesEPPS4_S8_' => 1,
                                                   '_ZNSt11_Deque_baseIN2ts12IntrusivePtrINS0_6Errata4SinkEEESaIS4_EE17_M_initialize_mapEm' => 1,
                                                   '_ZNSt11_Deque_baseIN2ts12IntrusivePtrINS0_6Errata4SinkEEESaIS4_EED1Ev' => 1,
                                                   '_ZNSt11_Deque_baseIN2ts12IntrusivePtrINS0_6Errata4SinkEEESaIS4_EED2Ev' => 1,
                                                   '_ZNSt11_Deque_baseIN2ts6Errata7MessageESaIS2_EE15_M_create_nodesEPPS2_S6_' => 1,
                                                   '_ZNSt11_Deque_baseIN2ts6Errata7MessageESaIS2_EE16_M_destroy_nodesEPPS2_S6_' => 1,
                                                   '_ZNSt11_Deque_baseIN2ts6Errata7MessageESaIS2_EE17_M_initialize_mapEm' => 1,
                                                   '_ZNSt11_Deque_baseIN2ts6Errata7MessageESaIS2_EEC1Ev' => 1,
                                                   '_ZNSt11_Deque_baseIN2ts6Errata7MessageESaIS2_EEC2Ev' => 1,
                                                   '_ZNSt11_Deque_baseIN2ts6Errata7MessageESaIS2_EED1Ev' => 1,
                                                   '_ZNSt11_Deque_baseIN2ts6Errata7MessageESaIS2_EED2Ev' => 1,
                                                   '_ZNSt11_Deque_baseIN4YAML14CollectionType5valueESaIS2_EE15_M_create_nodesEPPS2_S6_' => 1,
                                                   '_ZNSt11_Deque_baseIN4YAML14CollectionType5valueESaIS2_EE16_M_destroy_nodesEPPS2_S6_' => 1,
                                                   '_ZNSt11_Deque_baseIN4YAML14CollectionType5valueESaIS2_EE17_M_initialize_mapEm' => 1,
                                                   '_ZNSt11_Deque_baseIN4YAML14CollectionType5valueESaIS2_EED1Ev' => 1,
                                                   '_ZNSt11_Deque_baseIN4YAML14CollectionType5valueESaIS2_EED2Ev' => 1,
                                                   '_ZNSt11_Deque_baseIN4YAML14EmitFromEvents5State5valueESaIS3_EE15_M_create_nodesEPPS3_S7_' => 1,
                                                   '_ZNSt11_Deque_baseIN4YAML14EmitFromEvents5State5valueESaIS3_EE16_M_destroy_nodesEPPS3_S7_' => 1,
                                                   '_ZNSt11_Deque_baseIN4YAML14EmitFromEvents5State5valueESaIS3_EE17_M_initialize_mapEm' => 1,
                                                   '_ZNSt11_Deque_baseIN4YAML14EmitFromEvents5State5valueESaIS3_EED1Ev' => 1,
                                                   '_ZNSt11_Deque_baseIN4YAML14EmitFromEvents5State5valueESaIS3_EED2Ev' => 1,
                                                   '_ZNSt11_Deque_baseIN4YAML5TokenESaIS1_EE15_M_create_nodesEPPS1_S5_' => 1,
                                                   '_ZNSt11_Deque_baseIN4YAML5TokenESaIS1_EE16_M_destroy_nodesEPPS1_S5_' => 1,
                                                   '_ZNSt11_Deque_baseIN4YAML5TokenESaIS1_EE17_M_initialize_mapEm' => 1,
                                                   '_ZNSt11_Deque_baseIN4YAML5TokenESaIS1_EED1Ev' => 1,
                                                   '_ZNSt11_Deque_baseIN4YAML5TokenESaIS1_EED2Ev' => 1,
                                                   '_ZNSt11_Deque_baseIN4YAML7Scanner11FLOW_MARKERESaIS2_EE15_M_create_nodesEPPS2_S6_' => 1,
                                                   '_ZNSt11_Deque_baseIN4YAML7Scanner11FLOW_MARKERESaIS2_EE16_M_destroy_nodesEPPS2_S6_' => 1,
                                                   '_ZNSt11_Deque_baseIN4YAML7Scanner11FLOW_MARKERESaIS2_EE17_M_initialize_mapEm' => 1,
                                                   '_ZNSt11_Deque_baseIN4YAML7Scanner11FLOW_MARKERESaIS2_EED1Ev' => 1,
                                                   '_ZNSt11_Deque_baseIN4YAML7Scanner11FLOW_MARKERESaIS2_EED2Ev' => 1,
                                                   '_ZNSt11_Deque_baseIN4YAML7Scanner9SimpleKeyESaIS2_EE15_M_create_nodesEPPS2_S6_' => 1,
                                                   '_ZNSt11_Deque_baseIN4YAML7Scanner9SimpleKeyESaIS2_EE16_M_destroy_nodesEPPS2_S6_' => 1,
                                                   '_ZNSt11_Deque_baseIN4YAML7Scanner9SimpleKeyESaIS2_EE17_M_initialize_mapEm' => 1,
                                                   '_ZNSt11_Deque_baseIN4YAML7Scanner9SimpleKeyESaIS2_EED1Ev' => 1,
                                                   '_ZNSt11_Deque_baseIN4YAML7Scanner9SimpleKeyESaIS2_EED2Ev' => 1,
                                                   '_ZNSt11_Deque_baseIPN4YAML7Scanner12IndentMarkerESaIS3_EE15_M_create_nodesEPPS3_S7_' => 1,
                                                   '_ZNSt11_Deque_baseIPN4YAML7Scanner12IndentMarkerESaIS3_EE16_M_destroy_nodesEPPS3_S7_' => 1,
                                                   '_ZNSt11_Deque_baseIPN4YAML7Scanner12IndentMarkerESaIS3_EE17_M_initialize_mapEm' => 1,
                                                   '_ZNSt11_Deque_baseIPN4YAML7Scanner12IndentMarkerESaIS3_EED1Ev' => 1,
                                                   '_ZNSt11_Deque_baseIPN4YAML7Scanner12IndentMarkerESaIS3_EED2Ev' => 1,
                                                   '_ZNSt11_Deque_baseIcSaIcEE15_M_create_nodesEPPcS3_' => 1,
                                                   '_ZNSt11_Deque_baseIcSaIcEE16_M_destroy_nodesEPPcS3_' => 1,
                                                   '_ZNSt11_Deque_baseIcSaIcEE17_M_initialize_mapEm' => 1,
                                                   '_ZNSt11_Deque_baseIcSaIcEED1Ev' => 1,
                                                   '_ZNSt11_Deque_baseIcSaIcEED2Ev' => 1,
                                                   '_ZNSt12_Vector_baseIN2ts8BWFormat4ItemESaIS2_EED1Ev' => 1,
                                                   '_ZNSt12_Vector_baseIN2ts8BWFormat4ItemESaIS2_EED2Ev' => 1,
                                                   '_ZNSt12_Vector_baseIN4YAML5RegExESaIS1_EED1Ev' => 1,
                                                   '_ZNSt12_Vector_baseIN4YAML5RegExESaIS1_EED2Ev' => 1,
                                                   '_ZNSt12_Vector_baseIN9CharIndex8iterator5StateESaIS2_EED1Ev' => 1,
                                                   '_ZNSt12_Vector_baseIN9CharIndex8iterator5StateESaIS2_EED2Ev' => 1,
                                                   '_ZNSt12_Vector_baseINSt7__cxx1112basic_stringIcSt11char_traitsIcESaIcEEESaIS5_EED1Ev' => 1,
                                                   '_ZNSt12_Vector_baseINSt7__cxx1112basic_stringIcSt11char_traitsIcESaIcEEESaIS5_EED2Ev' => 1,
                                                   '_ZNSt12_Vector_baseIPN4YAML6detail4nodeESaIS3_EED1Ev' => 1,
                                                   '_ZNSt12_Vector_baseIPN4YAML6detail4nodeESaIS3_EED2Ev' => 1,
                                                   '_ZNSt12_Vector_baseISt4pairIPN4YAML6detail4nodeEbESaIS5_EED1Ev' => 1,
                                                   '_ZNSt12_Vector_baseISt4pairIPN4YAML6detail4nodeEbESaIS5_EED2Ev' => 1,
                                                   '_ZNSt12_Vector_baseIhSaIhEED1Ev' => 1,
                                                   '_ZNSt12_Vector_baseIhSaIhEED2Ev' => 1,
                                                   '_ZNSt14_Function_baseD1Ev' => 1,
                                                   '_ZNSt14_Function_baseD2Ev' => 1,
                                                   '_ZNSt15_Sp_counted_ptrIPN4YAML6detail13memory_holderELN9__gnu_cxx12_Lock_policyE2EE10_M_destroyEv' => 1,
                                                   '_ZNSt15_Sp_counted_ptrIPN4YAML6detail13memory_holderELN9__gnu_cxx12_Lock_policyE2EE10_M_disposeEv' => 1,
                                                   '_ZNSt15_Sp_counted_ptrIPN4YAML6detail13memory_holderELN9__gnu_cxx12_Lock_policyE2EE14_M_get_deleterERKSt9type_info' => 1,
                                                   '_ZNSt15_Sp_counted_ptrIPN4YAML6detail13memory_holderELN9__gnu_cxx12_Lock_policyE2EED0Ev' => 1,
                                                   '_ZNSt15_Sp_counted_ptrIPN4YAML6detail13memory_holderELN9__gnu_cxx12_Lock_policyE2EED1Ev' => 1,
                                                   '_ZNSt15_Sp_counted_ptrIPN4YAML6detail13memory_holderELN9__gnu_cxx12_Lock_policyE2EED2Ev' => 1,
                                                   '_ZNSt15_Sp_counted_ptrIPN4YAML6detail4nodeELN9__gnu_cxx12_Lock_policyE2EE10_M_destroyEv' => 1,
                                                   '_ZNSt15_Sp_counted_ptrIPN4YAML6detail4nodeELN9__gnu_cxx12_Lock_policyE2EE10_M_disposeEv' => 1,
                                                   '_ZNSt15_Sp_counted_ptrIPN4YAML6detail4nodeELN9__gnu_cxx12_Lock_policyE2EE14_M_get_deleterERKSt9type_info' => 1,
                                                   '_ZNSt15_Sp_counted_ptrIPN4YAML6detail4nodeELN9__gnu_cxx12_Lock_policyE2EED0Ev' => 1,
                                                   '_ZNSt15_Sp_counted_ptrIPN4YAML6detail4nodeELN9__gnu_cxx12_Lock_policyE2EED1Ev' => 1,
                                                   '_ZNSt15_Sp_counted_ptrIPN4YAML6detail4nodeELN9__gnu_cxx12_Lock_policyE2EED2Ev' => 1,
                                                   '_ZNSt15_Sp_counted_ptrIPN4YAML6detail6memoryELN9__gnu_cxx12_Lock_policyE2EE10_M_destroyEv' => 1,
                                                   '_ZNSt15_Sp_counted_ptrIPN4YAML6detail6memoryELN9__gnu_cxx12_Lock_policyE2EE10_M_disposeEv' => 1,
                                                   '_ZNSt15_Sp_counted_ptrIPN4YAML6detail6memoryELN9__gnu_cxx12_Lock_policyE2EE14_M_get_deleterERKSt9type_info' => 1,
                                                   '_ZNSt15_Sp_counted_ptrIPN4YAML6detail6memoryELN9__gnu_cxx12_Lock_policyE2EED0Ev' => 1,
                                                   '_ZNSt15_Sp_counted_ptrIPN4YAML6detail6memoryELN9__gnu_cxx12_Lock_policyE2EED1Ev' => 1,
                                                   '_ZNSt15_Sp_counted_ptrIPN4YAML6detail6memoryELN9__gnu_cxx12_Lock_policyE2EED2Ev' => 1,
                                                   '_ZNSt15_Sp_counted_ptrIPN4YAML6detail8node_refELN9__gnu_cxx12_Lock_policyE2EE10_M_destroyEv' => 1,
                                                   '_ZNSt15_Sp_counted_ptrIPN4YAML6detail8node_refELN9__gnu_cxx12_Lock_policyE2EE10_M_disposeEv' => 1,
                                                   '_ZNSt15_Sp_counted_ptrIPN4YAML6detail8node_refELN9__gnu_cxx12_Lock_policyE2EE14_M_get_deleterERKSt9type_info' => 1,
                                                   '_ZNSt15_Sp_counted_ptrIPN4YAML6detail8node_refELN9__gnu_cxx12_Lock_policyE2EED0Ev' => 1,
                                                   '_ZNSt15_Sp_counted_ptrIPN4YAML6detail8node_refELN9__gnu_cxx12_Lock_policyE2EED1Ev' => 1,
                                                   '_ZNSt15_Sp_counted_ptrIPN4YAML6detail8node_refELN9__gnu_cxx12_Lock_policyE2EED2Ev' => 1,
                                                   '_ZNSt15_Sp_counted_ptrIPN4YAML6detail9node_dataELN9__gnu_cxx12_Lock_policyE2EE10_M_destroyEv' => 1,
                                                   '_ZNSt15_Sp_counted_ptrIPN4YAML6detail9node_dataELN9__gnu_cxx12_Lock_policyE2EE10_M_disposeEv' => 1,
                                                   '_ZNSt15_Sp_counted_ptrIPN4YAML6detail9node_dataELN9__gnu_cxx12_Lock_policyE2EE14_M_get_deleterERKSt9type_info' => 1,
                                                   '_ZNSt15_Sp_counted_ptrIPN4YAML6detail9node_dataELN9__gnu_cxx12_Lock_policyE2EED0Ev' => 1,
                                                   '_ZNSt15_Sp_counted_ptrIPN4YAML6detail9node_dataELN9__gnu_cxx12_Lock_policyE2EED1Ev' => 1,
                                                   '_ZNSt15_Sp_counted_ptrIPN4YAML6detail9node_dataELN9__gnu_cxx12_Lock_policyE2EED2Ev' => 1,
                                                   '_ZNSt16_Sp_counted_baseILN9__gnu_cxx12_Lock_policyE2EE10_M_destroyEv' => 1,
                                                   '_ZNSt16_Sp_counted_baseILN9__gnu_cxx12_Lock_policyE2EE10_M_releaseEv' => 1,
                                                   '_ZNSt3mapIPKcP8ResourceSt4lessIS1_ESaISt4pairIKS1_S3_EEED1Ev' => 1,
                                                   '_ZNSt3mapIPKcP8ResourceSt4lessIS1_ESaISt4pairIKS1_S3_EEED2Ev' => 1,
                                                   '_ZNSt3mapISt17basic_string_viewIcSt11char_traitsIcEEPFvRN2ts12BufferWriterERKNS4_7BWFSpecEESt4lessIS3_ESaISt4pairIKS3_SB_EEED1Ev' => 1,
                                                   '_ZNSt3mapISt17basic_string_viewIcSt11char_traitsIcEEPFvRN2ts12BufferWriterERKNS4_7BWFSpecEESt4lessIS3_ESaISt4pairIKS3_SB_EEED2Ev' => 1,
                                                   '_ZNSt5arrayIN14CharIndexBlock4ItemELm38EED1Ev' => 1,
                                                   '_ZNSt5arrayIN14CharIndexBlock4ItemELm38EED2Ev' => 1,
                                                   '_ZNSt5dequeIN2ts12IntrusivePtrINS0_6Errata4SinkEEESaIS4_EE16_M_push_back_auxIJRKS4_EEEvDpOT_' => 1,
                                                   '_ZNSt5dequeIN2ts12IntrusivePtrINS0_6Errata4SinkEEESaIS4_EE17_M_reallocate_mapEmb' => 1,
                                                   '_ZNSt5dequeIN2ts12IntrusivePtrINS0_6Errata4SinkEEESaIS4_EE19_M_destroy_data_auxESt15_Deque_iteratorIS4_RS4_PS4_ESA_' => 1,
                                                   '_ZNSt5dequeIN2ts12IntrusivePtrINS0_6Errata4SinkEEESaIS4_EED1Ev' => 1,
                                                   '_ZNSt5dequeIN2ts12IntrusivePtrINS0_6Errata4SinkEEESaIS4_EED2Ev' => 1,
                                                   '_ZNSt5dequeIN2ts6Errata7MessageESaIS2_EE12emplace_backIJS2_EEERS2_DpOT_' => 1,
                                                   '_ZNSt5dequeIN2ts6Errata7MessageESaIS2_EE13_M_insert_auxISt15_Deque_iteratorIS2_RS2_PS2_EEEvS9_T_SA_m' => 1,
                                                   '_ZNSt5dequeIN2ts6Errata7MessageESaIS2_EE16_M_pop_front_auxEv' => 1,
                                                   '_ZNSt5dequeIN2ts6Errata7MessageESaIS2_EE16_M_push_back_auxIJRKS2_EEEvDpOT_' => 1,
                                                   '_ZNSt5dequeIN2ts6Errata7MessageESaIS2_EE16_M_push_back_auxIJS2_EEEvDpOT_' => 1,
                                                   '_ZNSt5dequeIN2ts6Errata7MessageESaIS2_EE17_M_reallocate_mapEmb' => 1,
                                                   '_ZNSt5dequeIN2ts6Errata7MessageESaIS2_EE19_M_destroy_data_auxESt15_Deque_iteratorIS2_RS2_PS2_ES8_' => 1,
                                                   '_ZNSt5dequeIN2ts6Errata7MessageESaIS2_EE19_M_range_insert_auxISt15_Deque_iteratorIS2_RS2_PS2_EEEvS9_T_SA_St20forward_iterator_tag' => 1,
                                                   '_ZNSt5dequeIN2ts6Errata7MessageESaIS2_EE23_M_new_elements_at_backEm' => 1,
                                                   '_ZNSt5dequeIN2ts6Errata7MessageESaIS2_EE24_M_new_elements_at_frontEm' => 1,
                                                   '_ZNSt5dequeIN2ts6Errata7MessageESaIS2_EEC1ERKS4_' => 1,
                                                   '_ZNSt5dequeIN2ts6Errata7MessageESaIS2_EEC2ERKS4_' => 1,
                                                   '_ZNSt5dequeIN2ts6Errata7MessageESaIS2_EED1Ev' => 1,
                                                   '_ZNSt5dequeIN2ts6Errata7MessageESaIS2_EED2Ev' => 1,
                                                   '_ZNSt5dequeIN4YAML14CollectionType5valueESaIS2_EE15_M_pop_back_auxEv' => 1,
                                                   '_ZNSt5dequeIN4YAML14CollectionType5valueESaIS2_EE16_M_push_back_auxIJRKS2_EEEvDpOT_' => 1,
                                                   '_ZNSt5dequeIN4YAML14CollectionType5valueESaIS2_EE17_M_reallocate_mapEmb' => 1,
                                                   '_ZNSt5dequeIN4YAML14EmitFromEvents5State5valueESaIS3_EE12emplace_backIJS3_EEERS3_DpOT_' => 1,
                                                   '_ZNSt5dequeIN4YAML14EmitFromEvents5State5valueESaIS3_EE15_M_pop_back_auxEv' => 1,
                                                   '_ZNSt5dequeIN4YAML14EmitFromEvents5State5valueESaIS3_EE16_M_push_back_auxIJS3_EEEvDpOT_' => 1,
                                                   '_ZNSt5dequeIN4YAML14EmitFromEvents5State5valueESaIS3_EE17_M_reallocate_mapEmb' => 1,
                                                   '_ZNSt5dequeIN4YAML14EmitFromEvents5State5valueESaIS3_EED1Ev' => 1,
                                                   '_ZNSt5dequeIN4YAML14EmitFromEvents5State5valueESaIS3_EED2Ev' => 1,
                                                   '_ZNSt5dequeIN4YAML5TokenESaIS1_EE12emplace_backIJS1_EEERS1_DpOT_' => 1,
                                                   '_ZNSt5dequeIN4YAML5TokenESaIS1_EE16_M_pop_front_auxEv' => 1,
                                                   '_ZNSt5dequeIN4YAML5TokenESaIS1_EE16_M_push_back_auxIJRKS1_EEEvDpOT_' => 1,
                                                   '_ZNSt5dequeIN4YAML5TokenESaIS1_EE16_M_push_back_auxIJS1_EEEvDpOT_' => 1,
                                                   '_ZNSt5dequeIN4YAML5TokenESaIS1_EE17_M_reallocate_mapEmb' => 1,
                                                   '_ZNSt5dequeIN4YAML5TokenESaIS1_EE19_M_destroy_data_auxESt15_Deque_iteratorIS1_RS1_PS1_ES7_' => 1,
                                                   '_ZNSt5dequeIN4YAML5TokenESaIS1_EED1Ev' => 1,
                                                   '_ZNSt5dequeIN4YAML5TokenESaIS1_EED2Ev' => 1,
                                                   '_ZNSt5dequeIN4YAML7Scanner11FLOW_MARKERESaIS2_EE15_M_pop_back_auxEv' => 1,
                                                   '_ZNSt5dequeIN4YAML7Scanner11FLOW_MARKERESaIS2_EE16_M_push_back_auxIJRKS2_EEEvDpOT_' => 1,
                                                   '_ZNSt5dequeIN4YAML7Scanner11FLOW_MARKERESaIS2_EE17_M_reallocate_mapEmb' => 1,
                                                   '_ZNSt5dequeIN4YAML7Scanner9SimpleKeyESaIS2_EE15_M_pop_back_auxEv' => 1,
                                                   '_ZNSt5dequeIN4YAML7Scanner9SimpleKeyESaIS2_EE16_M_push_back_auxIJRKS2_EEEvDpOT_' => 1,
                                                   '_ZNSt5dequeIN4YAML7Scanner9SimpleKeyESaIS2_EE17_M_reallocate_mapEmb' => 1,
                                                   '_ZNSt5dequeIN4YAML7Scanner9SimpleKeyESaIS2_EED1Ev' => 1,
                                                   '_ZNSt5dequeIN4YAML7Scanner9SimpleKeyESaIS2_EED2Ev' => 1,
                                                   '_ZNSt5dequeIPN4YAML7Scanner12IndentMarkerESaIS3_EE12emplace_backIJS3_EEERS3_DpOT_' => 1,
                                                   '_ZNSt5dequeIPN4YAML7Scanner12IndentMarkerESaIS3_EE15_M_pop_back_auxEv' => 1,
                                                   '_ZNSt5dequeIPN4YAML7Scanner12IndentMarkerESaIS3_EE16_M_push_back_auxIJS3_EEEvDpOT_' => 1,
                                                   '_ZNSt5dequeIPN4YAML7Scanner12IndentMarkerESaIS3_EE17_M_reallocate_mapEmb' => 1,
                                                   '_ZNSt5dequeIPN4YAML7Scanner12IndentMarkerESaIS3_EED1Ev' => 1,
                                                   '_ZNSt5dequeIPN4YAML7Scanner12IndentMarkerESaIS3_EED2Ev' => 1,
                                                   '_ZNSt5dequeIcSaIcEE12emplace_backIJcEEERcDpOT_' => 1,
                                                   '_ZNSt5dequeIcSaIcEE16_M_pop_front_auxEv' => 1,
                                                   '_ZNSt5dequeIcSaIcEE16_M_push_back_auxIJcEEEvDpOT_' => 1,
                                                   '_ZNSt5dequeIcSaIcEE17_M_reallocate_mapEmb' => 1,
                                                   '_ZNSt5dequeIcSaIcEED1Ev' => 1,
                                                   '_ZNSt5dequeIcSaIcEED2Ev' => 1,
                                                   '_ZNSt6vectorI8HostLeafSaIS0_EE12emplace_backIJRSt17basic_string_viewIcSt11char_traitsIcEERPvEEERS0_DpOT_' => 1,
                                                   '_ZNSt6vectorI8HostLeafSaIS0_EE17_M_realloc_insertIJRSt17basic_string_viewIcSt11char_traitsIcEERPvEEEvN9__gnu_cxx17__normal_iteratorIPS0_S2_EEDpOT_' => 1,
                                                   '_ZNSt6vectorI8HostLeafSaIS0_EE7reserveEm' => 1,
                                                   '_ZNSt6vectorIN2ts8BWFormat4ItemESaIS2_EE12emplace_backIJRNS0_7BWFSpecEPFvRNS0_12BufferWriterERKS6_EEEERS2_DpOT_' => 1,
                                                   '_ZNSt6vectorIN2ts8BWFormat4ItemESaIS2_EE12emplace_backIJRNS0_7BWFSpecERPFvRNS0_12BufferWriterERKS6_EEEERS2_DpOT_' => 1,
                                                   '_ZNSt6vectorIN2ts8BWFormat4ItemESaIS2_EE17_M_realloc_insertIJRNS0_7BWFSpecEPFvRNS0_12BufferWriterERKS6_EEEEvN9__gnu_cxx17__normal_iteratorIPS2_S4_EEDpOT_' => 1,
                                                   '_ZNSt6vectorIN2ts8BWFormat4ItemESaIS2_EE17_M_realloc_insertIJRNS0_7BWFSpecERPFvRNS0_12BufferWriterERKS6_EEEEvN9__gnu_cxx17__normal_iteratorIPS2_S4_EEDpOT_' => 1,
                                                   '_ZNSt6vectorIN3DFA7PatternESaIS1_EE12emplace_backIJ5RegexNSt7__cxx1112basic_stringIcSt11char_traitsIcESaIcEEEEEERS1_DpOT_' => 1,
                                                   '_ZNSt6vectorIN3DFA7PatternESaIS1_EE17_M_realloc_insertIJ5RegexNSt7__cxx1112basic_stringIcSt11char_traitsIcESaIcEEEEEEvN9__gnu_cxx17__normal_iteratorIPS1_S3_EEDpOT_' => 1,
                                                   '_ZNSt6vectorIN3DFA7PatternESaIS1_EE7reserveEm' => 1,
                                                   '_ZNSt6vectorIN4YAML4NodeESaIS1_EE12emplace_backIJS1_EEERS1_DpOT_' => 1,
                                                   '_ZNSt6vectorIN4YAML4NodeESaIS1_EE17_M_realloc_insertIJS1_EEEvN9__gnu_cxx17__normal_iteratorIPS1_S3_EEDpOT_' => 1,
                                                   '_ZNSt6vectorIN4YAML4NodeESaIS1_EED1Ev' => 1,
                                                   '_ZNSt6vectorIN4YAML4NodeESaIS1_EED2Ev' => 1,
                                                   '_ZNSt6vectorIN4YAML5RegExESaIS1_EE17_M_realloc_insertIJRKS1_EEEvN9__gnu_cxx17__normal_iteratorIPS1_S3_EEDpOT_' => 1,
                                                   '_ZNSt6vectorIN4YAML5RegExESaIS1_EEC1ERKS3_' => 1,
                                                   '_ZNSt6vectorIN4YAML5RegExESaIS1_EEC2ERKS3_' => 1,
                                                   '_ZNSt6vectorIN4YAML5RegExESaIS1_EED1Ev' => 1,
                                                   '_ZNSt6vectorIN4YAML5RegExESaIS1_EED2Ev' => 1,
                                                   '_ZNSt6vectorIN9CharIndex8iterator5StateESaIS2_EE17_M_realloc_insertIJRKS2_EEEvN9__gnu_cxx17__normal_iteratorIPS2_S4_EEDpOT_' => 1,
                                                   '_ZNSt6vectorIN9CharIndex8iterator5StateESaIS2_EE7reserveEm' => 1,
                                                   '_ZNSt6vectorINSt7__cxx1112basic_stringIcSt11char_traitsIcESaIcEEESaIS5_EE12emplace_backIJS5_EEERS5_DpOT_' => 1,
                                                   '_ZNSt6vectorINSt7__cxx1112basic_stringIcSt11char_traitsIcESaIcEEESaIS5_EE13_M_insert_auxIS5_EEvN9__gnu_cxx17__normal_iteratorIPS5_S7_EEOT_' => 1,
                                                   '_ZNSt6vectorINSt7__cxx1112basic_stringIcSt11char_traitsIcESaIcEEESaIS5_EE17_M_realloc_insertIJRKS5_EEEvN9__gnu_cxx17__normal_iteratorIPS5_S7_EEDpOT_' => 1,
                                                   '_ZNSt6vectorINSt7__cxx1112basic_stringIcSt11char_traitsIcESaIcEEESaIS5_EE17_M_realloc_insertIJS5_EEEvN9__gnu_cxx17__normal_iteratorIPS5_S7_EEDpOT_' => 1,
                                                   '_ZNSt6vectorINSt7__cxx1112basic_stringIcSt11char_traitsIcESaIcEEESaIS5_EE6insertEN9__gnu_cxx17__normal_iteratorIPKS5_S7_EERSA_' => 1,
                                                   '_ZNSt6vectorINSt7__cxx1112basic_stringIcSt11char_traitsIcESaIcEEESaIS5_EE8_M_eraseEN9__gnu_cxx17__normal_iteratorIPS5_S7_EE' => 1,
                                                   '_ZNSt6vectorINSt7__cxx1112basic_stringIcSt11char_traitsIcESaIcEEESaIS5_EE8_M_eraseEN9__gnu_cxx17__normal_iteratorIPS5_S7_EESB_' => 1,
                                                   '_ZNSt6vectorINSt7__cxx1112basic_stringIcSt11char_traitsIcESaIcEEESaIS5_EEC1ERKS7_' => 1,
                                                   '_ZNSt6vectorINSt7__cxx1112basic_stringIcSt11char_traitsIcESaIcEEESaIS5_EEC2ERKS7_' => 1,
                                                   '_ZNSt6vectorINSt7__cxx1112basic_stringIcSt11char_traitsIcESaIcEEESaIS5_EED1Ev' => 1,
                                                   '_ZNSt6vectorINSt7__cxx1112basic_stringIcSt11char_traitsIcESaIcEEESaIS5_EED2Ev' => 1,
                                                   '_ZNSt6vectorINSt7__cxx1112basic_stringIcSt11char_traitsIcESaIcEEESaIS5_EEaSERKS7_' => 1,
                                                   '_ZNSt6vectorIPN4YAML6detail4nodeESaIS3_EE12emplace_backIJS3_EEERS3_DpOT_' => 1,
                                                   '_ZNSt6vectorIPN4YAML6detail4nodeESaIS3_EE17_M_realloc_insertIJS3_EEEvN9__gnu_cxx17__normal_iteratorIPS3_S5_EEDpOT_' => 1,
                                                   '_ZNSt6vectorISt10unique_ptrIN4YAML12EmitterState5GroupESt14default_deleteIS3_EESaIS6_EE12emplace_backIJS6_EEERS6_DpOT_' => 1,
                                                   '_ZNSt6vectorISt10unique_ptrIN4YAML12EmitterState5GroupESt14default_deleteIS3_EESaIS6_EE17_M_realloc_insertIJS6_EEEvN9__gnu_cxx17__normal_iteratorIPS6_S8_EEDpOT_' => 1,
                                                   '_ZNSt6vectorISt10unique_ptrIN4YAML17SettingChangeBaseESt14default_deleteIS2_EESaIS5_EE12emplace_backIJS5_EEERS5_DpOT_' => 1,
                                                   '_ZNSt6vectorISt10unique_ptrIN4YAML17SettingChangeBaseESt14default_deleteIS2_EESaIS5_EE17_M_realloc_insertIJS5_EEEvN9__gnu_cxx17__normal_iteratorIPS5_S7_EEDpOT_' => 1,
                                                   '_ZNSt6vectorISt10unique_ptrIN4YAML7Scanner12IndentMarkerESt14default_deleteIS3_EESaIS6_EE12emplace_backIJS6_EEERS6_DpOT_' => 1,
                                                   '_ZNSt6vectorISt10unique_ptrIN4YAML7Scanner12IndentMarkerESt14default_deleteIS3_EESaIS6_EE17_M_realloc_insertIJS6_EEEvN9__gnu_cxx17__normal_iteratorIPS6_S8_EEDpOT_' => 1,
                                                   '_ZNSt6vectorISt4pairIPN4YAML6detail4nodeES4_ESaIS5_EE12emplace_backIJS4_S4_EEERS5_DpOT_' => 1,
                                                   '_ZNSt6vectorISt4pairIPN4YAML6detail4nodeES4_ESaIS5_EE17_M_realloc_insertIJS4_S4_EEEvN9__gnu_cxx17__normal_iteratorIPS5_S7_EEDpOT_' => 1,
                                                   '_ZNSt6vectorISt4pairIPN4YAML6detail4nodeES4_ESaIS5_EE8_M_eraseEN9__gnu_cxx17__normal_iteratorIPS5_S7_EE' => 1,
                                                   '_ZNSt6vectorISt4pairIPN4YAML6detail4nodeEbESaIS5_EE12emplace_backIJS5_EEERS5_DpOT_' => 1,
                                                   '_ZNSt6vectorISt4pairIPN4YAML6detail4nodeEbESaIS5_EE17_M_realloc_insertIJS5_EEEvN9__gnu_cxx17__normal_iteratorIPS5_S7_EEDpOT_' => 1,
                                                   '_ZNSt6vectorIcSaIcEE17_M_default_appendEm' => 1,
                                                   '_ZNSt6vectorIhSaIhEE17_M_default_appendEm' => 1,
                                                   '_ZNSt6vectorIiSaIiEE17_M_realloc_insertIJRKiEEEvN9__gnu_cxx17__normal_iteratorIPiS1_EEDpOT_' => 1,
                                                   '_ZNSt7__cxx1110_List_baseISt4pairIPN4YAML6detail4nodeES5_ESaIS6_EE8_M_clearEv' => 1,
                                                   '_ZNSt7__cxx1112basic_stringIcSt11char_traitsIcESaIcEE12_M_constructIPKcEEvT_S8_St20forward_iterator_tag' => 1,
                                                   '_ZNSt7__cxx1112basic_stringIcSt11char_traitsIcESaIcEE12_M_constructIPcEEvT_S7_St20forward_iterator_tag' => 1,
                                                   '_ZNSt7__cxx1112basic_stringIcSt11char_traitsIcESaIcEEC1IS3_EEPKcRKS3_' => 1,
                                                   '_ZNSt7__cxx1112basic_stringIcSt11char_traitsIcESaIcEEC2IS3_EEPKcRKS3_' => 1,
                                                   '_ZNSt7__cxx1115basic_stringbufIcSt11char_traitsIcESaIcEED0Ev' => 1,
                                                   '_ZNSt7__cxx1115basic_stringbufIcSt11char_traitsIcESaIcEED1Ev' => 1,
                                                   '_ZNSt7__cxx1115basic_stringbufIcSt11char_traitsIcESaIcEED2Ev' => 1,
                                                   '_ZNSt7__cxx114listISt4pairIPN4YAML6detail4nodeES5_ESaIS6_EE5eraseESt20_List_const_iteratorIS6_E' => 1,
                                                   '_ZNSt7__cxx119to_stringEj' => 1,
                                                   '_ZNSt8_Rb_treeINSt7__cxx1112basic_stringIcSt11char_traitsIcESaIcEEESt4pairIKS5_N2ts12ArgumentDataEESt10_Select1stISA_ESt4lessIS5_ESaISA_EE14_M_insert_nodeEPSt18_Rb_tree_node_baseSI_PSt13_Rb_tree_nodeISA_E' => 1,
                                                   '_ZNSt8_Rb_treeINSt7__cxx1112basic_stringIcSt11char_traitsIcESaIcEEESt4pairIKS5_N2ts12ArgumentDataEESt10_Select1stISA_ESt4lessIS5_ESaISA_EE14_M_lower_boundEPSt13_Rb_tree_nodeISA_EPSt18_Rb_tree_node_baseRS7_' => 1,
                                                   '_ZNSt8_Rb_treeINSt7__cxx1112basic_stringIcSt11char_traitsIcESaIcEEESt4pairIKS5_N2ts12ArgumentDataEESt10_Select1stISA_ESt4lessIS5_ESaISA_EE22_M_emplace_hint_uniqueIJRKSt21piecewise_construct_tSt5tupleIJRS7_EESL_IJEEEEESt17_Rb_tree_iteratorISA_ESt23_Rb_tree_const_iteratorISA_EDpOT_' => 1,
                                                   '_ZNSt8_Rb_treeINSt7__cxx1112basic_stringIcSt11char_traitsIcESaIcEEESt4pairIKS5_N2ts12ArgumentDataEESt10_Select1stISA_ESt4lessIS5_ESaISA_EE24_M_get_insert_unique_posERS7_' => 1,
                                                   '_ZNSt8_Rb_treeINSt7__cxx1112basic_stringIcSt11char_traitsIcESaIcEEESt4pairIKS5_N2ts12ArgumentDataEESt10_Select1stISA_ESt4lessIS5_ESaISA_EE29_M_get_insert_hint_unique_posESt23_Rb_tree_const_iteratorISA_ERS7_' => 1,
                                                   '_ZNSt8_Rb_treeINSt7__cxx1112basic_stringIcSt11char_traitsIcESaIcEEESt4pairIKS5_N2ts12ArgumentDataEESt10_Select1stISA_ESt4lessIS5_ESaISA_EE4findERS7_' => 1,
                                                   '_ZNSt8_Rb_treeINSt7__cxx1112basic_stringIcSt11char_traitsIcESaIcEEESt4pairIKS5_N2ts12ArgumentDataEESt10_Select1stISA_ESt4lessIS5_ESaISA_EE8_M_eraseEPSt13_Rb_tree_nodeISA_E' => 1,
                                                   '_ZNSt8_Rb_treeINSt7__cxx1112basic_stringIcSt11char_traitsIcESaIcEEESt4pairIKS5_N2ts9ArgParser6OptionEESt10_Select1stISB_ESt4lessIS5_ESaISB_EE14_M_insert_nodeEPSt18_Rb_tree_node_baseSJ_PSt13_Rb_tree_nodeISB_E' => 1,
                                                   '_ZNSt8_Rb_treeINSt7__cxx1112basic_stringIcSt11char_traitsIcESaIcEEESt4pairIKS5_N2ts9ArgParser6OptionEESt10_Select1stISB_ESt4lessIS5_ESaISB_EE14_M_lower_boundEPSt13_Rb_tree_nodeISB_EPSt18_Rb_tree_node_baseRS7_' => 1,
                                                   '_ZNSt8_Rb_treeINSt7__cxx1112basic_stringIcSt11char_traitsIcESaIcEEESt4pairIKS5_N2ts9ArgParser6OptionEESt10_Select1stISB_ESt4lessIS5_ESaISB_EE22_M_emplace_hint_uniqueIJRKSt21piecewise_construct_tSt5tupleIJRS7_EESM_IJEEEEESt17_Rb_tree_iteratorISB_ESt23_Rb_tree_const_iteratorISB_EDpOT_' => 1,
                                                   '_ZNSt8_Rb_treeINSt7__cxx1112basic_stringIcSt11char_traitsIcESaIcEEESt4pairIKS5_N2ts9ArgParser6OptionEESt10_Select1stISB_ESt4lessIS5_ESaISB_EE24_M_get_insert_unique_posERS7_' => 1,
                                                   '_ZNSt8_Rb_treeINSt7__cxx1112basic_stringIcSt11char_traitsIcESaIcEEESt4pairIKS5_N2ts9ArgParser6OptionEESt10_Select1stISB_ESt4lessIS5_ESaISB_EE29_M_get_insert_hint_unique_posESt23_Rb_tree_const_iteratorISB_ERS7_' => 1,
                                                   '_ZNSt8_Rb_treeINSt7__cxx1112basic_stringIcSt11char_traitsIcESaIcEEESt4pairIKS5_N2ts9ArgParser6OptionEESt10_Select1stISB_ESt4lessIS5_ESaISB_EE4findERS7_' => 1,
                                                   '_ZNSt8_Rb_treeINSt7__cxx1112basic_stringIcSt11char_traitsIcESaIcEEESt4pairIKS5_N2ts9ArgParser6OptionEESt10_Select1stISB_ESt4lessIS5_ESaISB_EE7_M_copyILb0ENSH_11_Alloc_nodeEEEPSt13_Rb_tree_nodeISB_ESM_PSt18_Rb_tree_node_baseRT0_' => 1,
                                                   '_ZNSt8_Rb_treeINSt7__cxx1112basic_stringIcSt11char_traitsIcESaIcEEESt4pairIKS5_N2ts9ArgParser6OptionEESt10_Select1stISB_ESt4lessIS5_ESaISB_EE7_M_copyILb0ENSH_20_Reuse_or_alloc_nodeEEEPSt13_Rb_tree_nodeISB_ESM_PSt18_Rb_tree_node_baseRT0_' => 1,
                                                   '_ZNSt8_Rb_treeINSt7__cxx1112basic_stringIcSt11char_traitsIcESaIcEEESt4pairIKS5_N2ts9ArgParser6OptionEESt10_Select1stISB_ESt4lessIS5_ESaISB_EE8_M_eraseEPSt13_Rb_tree_nodeISB_E' => 1,
                                                   '_ZNSt8_Rb_treeINSt7__cxx1112basic_stringIcSt11char_traitsIcESaIcEEESt4pairIKS5_N2ts9ArgParser6OptionEESt10_Select1stISB_ESt4lessIS5_ESaISB_EEaSERKSH_' => 1,
                                                   '_ZNSt8_Rb_treeINSt7__cxx1112basic_stringIcSt11char_traitsIcESaIcEEESt4pairIKS5_N2ts9ArgParser7CommandEESt10_Select1stISB_ESt4lessIS5_ESaISB_EE14_M_insert_nodeEPSt18_Rb_tree_node_baseSJ_PSt13_Rb_tree_nodeISB_E' => 1,
                                                   '_ZNSt8_Rb_treeINSt7__cxx1112basic_stringIcSt11char_traitsIcESaIcEEESt4pairIKS5_N2ts9ArgParser7CommandEESt10_Select1stISB_ESt4lessIS5_ESaISB_EE14_M_lower_boundEPSt13_Rb_tree_nodeISB_EPSt18_Rb_tree_node_baseRS7_' => 1,
                                                   '_ZNSt8_Rb_treeINSt7__cxx1112basic_stringIcSt11char_traitsIcESaIcEEESt4pairIKS5_N2ts9ArgParser7CommandEESt10_Select1stISB_ESt4lessIS5_ESaISB_EE22_M_emplace_hint_uniqueIJRKSt21piecewise_construct_tSt5tupleIJRS7_EESM_IJEEEEESt17_Rb_tree_iteratorISB_ESt23_Rb_tree_const_iteratorISB_EDpOT_' => 1,
                                                   '_ZNSt8_Rb_treeINSt7__cxx1112basic_stringIcSt11char_traitsIcESaIcEEESt4pairIKS5_N2ts9ArgParser7CommandEESt10_Select1stISB_ESt4lessIS5_ESaISB_EE24_M_get_insert_unique_posERS7_' => 1,
                                                   '_ZNSt8_Rb_treeINSt7__cxx1112basic_stringIcSt11char_traitsIcESaIcEEESt4pairIKS5_N2ts9ArgParser7CommandEESt10_Select1stISB_ESt4lessIS5_ESaISB_EE29_M_get_insert_hint_unique_posESt23_Rb_tree_const_iteratorISB_ERS7_' => 1,
                                                   '_ZNSt8_Rb_treeINSt7__cxx1112basic_stringIcSt11char_traitsIcESaIcEEESt4pairIKS5_N2ts9ArgParser7CommandEESt10_Select1stISB_ESt4lessIS5_ESaISB_EE4findERS7_' => 1,
                                                   '_ZNSt8_Rb_treeINSt7__cxx1112basic_stringIcSt11char_traitsIcESaIcEEESt4pairIKS5_N2ts9ArgParser7CommandEESt10_Select1stISB_ESt4lessIS5_ESaISB_EE7_M_copyILb0ENSH_11_Alloc_nodeEEEPSt13_Rb_tree_nodeISB_ESM_PSt18_Rb_tree_node_baseRT0_' => 1,
                                                   '_ZNSt8_Rb_treeINSt7__cxx1112basic_stringIcSt11char_traitsIcESaIcEEESt4pairIKS5_N2ts9ArgParser7CommandEESt10_Select1stISB_ESt4lessIS5_ESaISB_EE7_M_copyILb0ENSH_20_Reuse_or_alloc_nodeEEEPSt13_Rb_tree_nodeISB_ESM_PSt18_Rb_tree_node_baseRT0_' => 1,
                                                   '_ZNSt8_Rb_treeINSt7__cxx1112basic_stringIcSt11char_traitsIcESaIcEEESt4pairIKS5_N2ts9ArgParser7CommandEESt10_Select1stISB_ESt4lessIS5_ESaISB_EE8_M_eraseEPSt13_Rb_tree_nodeISB_E' => 1,
                                                   '_ZNSt8_Rb_treeINSt7__cxx1112basic_stringIcSt11char_traitsIcESaIcEEESt4pairIKS5_N2ts9ArgParser7CommandEESt10_Select1stISB_ESt4lessIS5_ESaISB_EEaSERKSH_' => 1,
                                                   '_ZNSt8_Rb_treeINSt7__cxx1112basic_stringIcSt11char_traitsIcESaIcEEESt4pairIKS5_S5_ESt10_Select1stIS8_ESt4lessIS5_ESaIS8_EE14_M_insert_nodeEPSt18_Rb_tree_node_baseSG_PSt13_Rb_tree_nodeIS8_E' => 1,
                                                   '_ZNSt8_Rb_treeINSt7__cxx1112basic_stringIcSt11char_traitsIcESaIcEEESt4pairIKS5_S5_ESt10_Select1stIS8_ESt4lessIS5_ESaIS8_EE14_M_lower_boundEPSt13_Rb_tree_nodeIS8_EPSt18_Rb_tree_node_baseRS7_' => 1,
                                                   '_ZNSt8_Rb_treeINSt7__cxx1112basic_stringIcSt11char_traitsIcESaIcEEESt4pairIKS5_S5_ESt10_Select1stIS8_ESt4lessIS5_ESaIS8_EE22_M_emplace_hint_uniqueIJRKSt21piecewise_construct_tSt5tupleIJRS7_EESJ_IJEEEEESt17_Rb_tree_iteratorIS8_ESt23_Rb_tree_const_iteratorIS8_EDpOT_' => 1,
                                                   '_ZNSt8_Rb_treeINSt7__cxx1112basic_stringIcSt11char_traitsIcESaIcEEESt4pairIKS5_S5_ESt10_Select1stIS8_ESt4lessIS5_ESaIS8_EE24_M_get_insert_unique_posERS7_' => 1,
                                                   '_ZNSt8_Rb_treeINSt7__cxx1112basic_stringIcSt11char_traitsIcESaIcEEESt4pairIKS5_S5_ESt10_Select1stIS8_ESt4lessIS5_ESaIS8_EE29_M_get_insert_hint_unique_posESt23_Rb_tree_const_iteratorIS8_ERS7_' => 1,
                                                   '_ZNSt8_Rb_treeINSt7__cxx1112basic_stringIcSt11char_traitsIcESaIcEEESt4pairIKS5_S5_ESt10_Select1stIS8_ESt4lessIS5_ESaIS8_EE4findERS7_' => 1,
                                                   '_ZNSt8_Rb_treeINSt7__cxx1112basic_stringIcSt11char_traitsIcESaIcEEESt4pairIKS5_S5_ESt10_Select1stIS8_ESt4lessIS5_ESaIS8_EE7_M_copyILb0ENSE_11_Alloc_nodeEEEPSt13_Rb_tree_nodeIS8_ESJ_PSt18_Rb_tree_node_baseRT0_' => 1,
                                                   '_ZNSt8_Rb_treeINSt7__cxx1112basic_stringIcSt11char_traitsIcESaIcEEESt4pairIKS5_S5_ESt10_Select1stIS8_ESt4lessIS5_ESaIS8_EE7_M_copyILb0ENSE_20_Reuse_or_alloc_nodeEEEPSt13_Rb_tree_nodeIS8_ESJ_PSt18_Rb_tree_node_baseRT0_' => 1,
                                                   '_ZNSt8_Rb_treeINSt7__cxx1112basic_stringIcSt11char_traitsIcESaIcEEESt4pairIKS5_S5_ESt10_Select1stIS8_ESt4lessIS5_ESaIS8_EE8_M_eraseEPSt13_Rb_tree_nodeIS8_E' => 1,
                                                   '_ZNSt8_Rb_treeINSt7__cxx1112basic_stringIcSt11char_traitsIcESaIcEEESt4pairIKS5_S5_ESt10_Select1stIS8_ESt4lessIS5_ESaIS8_EEaSERKSE_' => 1,
                                                   '_ZNSt8_Rb_treeINSt7__cxx1112basic_stringIcSt11char_traitsIcESaIcEEESt4pairIKS5_jESt10_Select1stIS8_ESt4lessIS5_ESaIS8_EE14_M_insert_nodeEPSt18_Rb_tree_node_baseSG_PSt13_Rb_tree_nodeIS8_E' => 1,
                                                   '_ZNSt8_Rb_treeINSt7__cxx1112basic_stringIcSt11char_traitsIcESaIcEEESt4pairIKS5_jESt10_Select1stIS8_ESt4lessIS5_ESaIS8_EE14_M_lower_boundEPSt13_Rb_tree_nodeIS8_EPSt18_Rb_tree_node_baseRS7_' => 1,
                                                   '_ZNSt8_Rb_treeINSt7__cxx1112basic_stringIcSt11char_traitsIcESaIcEEESt4pairIKS5_jESt10_Select1stIS8_ESt4lessIS5_ESaIS8_EE22_M_emplace_hint_uniqueIJRKSt21piecewise_construct_tSt5tupleIJRS7_EESJ_IJEEEEESt17_Rb_tree_iteratorIS8_ESt23_Rb_tree_const_iteratorIS8_EDpOT_' => 1,
                                                   '_ZNSt8_Rb_treeINSt7__cxx1112basic_stringIcSt11char_traitsIcESaIcEEESt4pairIKS5_jESt10_Select1stIS8_ESt4lessIS5_ESaIS8_EE24_M_get_insert_unique_posERS7_' => 1,
                                                   '_ZNSt8_Rb_treeINSt7__cxx1112basic_stringIcSt11char_traitsIcESaIcEEESt4pairIKS5_jESt10_Select1stIS8_ESt4lessIS5_ESaIS8_EE29_M_get_insert_hint_unique_posESt23_Rb_tree_const_iteratorIS8_ERS7_' => 1,
                                                   '_ZNSt8_Rb_treeINSt7__cxx1112basic_stringIcSt11char_traitsIcESaIcEEESt4pairIKS5_jESt10_Select1stIS8_ESt4lessIS5_ESaIS8_EE8_M_eraseEPSt13_Rb_tree_nodeIS8_E' => 1,
                                                   '_ZNSt8_Rb_treeINSt7__cxx1112basic_stringIcSt11char_traitsIcESaIcEEESt4pairIKS5_mESt10_Select1stIS8_ESt4lessIS5_ESaIS8_EE14_M_insert_nodeEPSt18_Rb_tree_node_baseSG_PSt13_Rb_tree_nodeIS8_E' => 1,
                                                   '_ZNSt8_Rb_treeINSt7__cxx1112basic_stringIcSt11char_traitsIcESaIcEEESt4pairIKS5_mESt10_Select1stIS8_ESt4lessIS5_ESaIS8_EE14_M_lower_boundEPSt13_Rb_tree_nodeIS8_EPSt18_Rb_tree_node_baseRS7_' => 1,
                                                   '_ZNSt8_Rb_treeINSt7__cxx1112basic_stringIcSt11char_traitsIcESaIcEEESt4pairIKS5_mESt10_Select1stIS8_ESt4lessIS5_ESaIS8_EE22_M_emplace_hint_uniqueIJRKSt21piecewise_construct_tSt5tupleIJRS7_EESJ_IJEEEEESt17_Rb_tree_iteratorIS8_ESt23_Rb_tree_const_iteratorIS8_EDpOT_' => 1,
                                                   '_ZNSt8_Rb_treeINSt7__cxx1112basic_stringIcSt11char_traitsIcESaIcEEESt4pairIKS5_mESt10_Select1stIS8_ESt4lessIS5_ESaIS8_EE24_M_get_insert_unique_posERS7_' => 1,
                                                   '_ZNSt8_Rb_treeINSt7__cxx1112basic_stringIcSt11char_traitsIcESaIcEEESt4pairIKS5_mESt10_Select1stIS8_ESt4lessIS5_ESaIS8_EE29_M_get_insert_hint_unique_posESt23_Rb_tree_const_iteratorIS8_ERS7_' => 1,
                                                   '_ZNSt8_Rb_treeINSt7__cxx1112basic_stringIcSt11char_traitsIcESaIcEEESt4pairIKS5_mESt10_Select1stIS8_ESt4lessIS5_ESaIS8_EE8_M_eraseEPSt13_Rb_tree_nodeIS8_E' => 1,
                                                   '_ZNSt8_Rb_treeIPKN4YAML6detail8node_refESt4pairIKS4_iESt10_Select1stIS7_ESt4lessIS4_ESaIS7_EE14_M_insert_nodeEPSt18_Rb_tree_node_baseSF_PSt13_Rb_tree_nodeIS7_E' => 1,
                                                   '_ZNSt8_Rb_treeIPKN4YAML6detail8node_refESt4pairIKS4_iESt10_Select1stIS7_ESt4lessIS4_ESaIS7_EE14_M_lower_boundEPSt13_Rb_tree_nodeIS7_EPSt18_Rb_tree_node_baseRS6_' => 1,
                                                   '_ZNSt8_Rb_treeIPKN4YAML6detail8node_refESt4pairIKS4_iESt10_Select1stIS7_ESt4lessIS4_ESaIS7_EE22_M_emplace_hint_uniqueIJRKSt21piecewise_construct_tSt5tupleIJOS4_EESI_IJEEEEESt17_Rb_tree_iteratorIS7_ESt23_Rb_tree_const_iteratorIS7_EDpOT_' => 1,
                                                   '_ZNSt8_Rb_treeIPKN4YAML6detail8node_refESt4pairIKS4_iESt10_Select1stIS7_ESt4lessIS4_ESaIS7_EE24_M_get_insert_unique_posERS6_' => 1,
                                                   '_ZNSt8_Rb_treeIPKN4YAML6detail8node_refESt4pairIKS4_iESt10_Select1stIS7_ESt4lessIS4_ESaIS7_EE29_M_get_insert_hint_unique_posESt23_Rb_tree_const_iteratorIS7_ERS6_' => 1,
                                                   '_ZNSt8_Rb_treeIPKN4YAML6detail8node_refESt4pairIKS4_iESt10_Select1stIS7_ESt4lessIS4_ESaIS7_EE8_M_eraseEPSt13_Rb_tree_nodeIS7_E' => 1,
                                                   '_ZNSt8_Rb_treeIPKN4YAML6detail8node_refESt4pairIKS4_mESt10_Select1stIS7_ESt4lessIS4_ESaIS7_EE14_M_insert_nodeEPSt18_Rb_tree_node_baseSF_PSt13_Rb_tree_nodeIS7_E' => 1,
                                                   '_ZNSt8_Rb_treeIPKN4YAML6detail8node_refESt4pairIKS4_mESt10_Select1stIS7_ESt4lessIS4_ESaIS7_EE17_M_emplace_uniqueIJS5_IS4_mEEEES5_ISt17_Rb_tree_iteratorIS7_EbEDpOT_' => 1,
                                                   '_ZNSt8_Rb_treeIPKN4YAML6detail8node_refESt4pairIKS4_mESt10_Select1stIS7_ESt4lessIS4_ESaIS7_EE24_M_get_insert_unique_posERS6_' => 1,
                                                   '_ZNSt8_Rb_treeIPKN4YAML6detail8node_refESt4pairIKS4_mESt10_Select1stIS7_ESt4lessIS4_ESaIS7_EE8_M_eraseEPSt13_Rb_tree_nodeIS7_E' => 1,
                                                   '_ZNSt8_Rb_treeIPKcSt4pairIKS1_P8ResourceESt10_Select1stIS6_ESt4lessIS1_ESaIS6_EE14_M_insert_nodeEPSt18_Rb_tree_node_baseSE_PSt13_Rb_tree_nodeIS6_E' => 1,
                                                   '_ZNSt8_Rb_treeIPKcSt4pairIKS1_P8ResourceESt10_Select1stIS6_ESt4lessIS1_ESaIS6_EE14_M_lower_boundEPSt13_Rb_tree_nodeIS6_EPSt18_Rb_tree_node_baseRS3_' => 1,
                                                   '_ZNSt8_Rb_treeIPKcSt4pairIKS1_P8ResourceESt10_Select1stIS6_ESt4lessIS1_ESaIS6_EE22_M_emplace_hint_uniqueIJRKSt21piecewise_construct_tSt5tupleIJRS3_EESH_IJEEEEESt17_Rb_tree_iteratorIS6_ESt23_Rb_tree_const_iteratorIS6_EDpOT_' => 1,
                                                   '_ZNSt8_Rb_treeIPKcSt4pairIKS1_P8ResourceESt10_Select1stIS6_ESt4lessIS1_ESaIS6_EE24_M_get_insert_unique_posERS3_' => 1,
                                                   '_ZNSt8_Rb_treeIPKcSt4pairIKS1_P8ResourceESt10_Select1stIS6_ESt4lessIS1_ESaIS6_EE29_M_get_insert_hint_unique_posESt23_Rb_tree_const_iteratorIS6_ERS3_' => 1,
                                                   '_ZNSt8_Rb_treeIPKcSt4pairIKS1_P8ResourceESt10_Select1stIS6_ESt4lessIS1_ESaIS6_EE4findERS3_' => 1,
                                                   '_ZNSt8_Rb_treeIPKcSt4pairIKS1_P8ResourceESt10_Select1stIS6_ESt4lessIS1_ESaIS6_EE8_M_eraseEPSt13_Rb_tree_nodeIS6_E' => 1,
                                                   '_ZNSt8_Rb_treeIPN4YAML6detail4nodeES3_St9_IdentityIS3_ESt4lessIS3_ESaIS3_EE10_M_insert_IS3_NS9_11_Alloc_nodeEEESt17_Rb_tree_iteratorIS3_EPSt18_Rb_tree_node_baseSF_OT_RT0_' => 1,
                                                   '_ZNSt8_Rb_treeIPN4YAML6detail4nodeES3_St9_IdentityIS3_ESt4lessIS3_ESaIS3_EE16_M_insert_uniqueIS3_EESt4pairISt17_Rb_tree_iteratorIS3_EbEOT_' => 1,
                                                   '_ZNSt8_Rb_treeIPN4YAML6detail4nodeES3_St9_IdentityIS3_ESt4lessIS3_ESaIS3_EE24_M_get_insert_unique_posERKS3_' => 1,
                                                   '_ZNSt8_Rb_treeIPN4YAML6detail4nodeES3_St9_IdentityIS3_ESt4lessIS3_ESaIS3_EE8_M_eraseEPSt13_Rb_tree_nodeIS3_E' => 1,
                                                   '_ZNSt8_Rb_treeISt10shared_ptrIN4YAML6detail4nodeEES4_St9_IdentityIS4_ESt4lessIS4_ESaIS4_EE10_M_insert_IRKS4_NSA_11_Alloc_nodeEEESt17_Rb_tree_iteratorIS4_EPSt18_Rb_tree_node_baseSI_OT_RT0_' => 1,
                                                   '_ZNSt8_Rb_treeISt10shared_ptrIN4YAML6detail4nodeEES4_St9_IdentityIS4_ESt4lessIS4_ESaIS4_EE16_M_insert_uniqueIRKS4_EESt4pairISt17_Rb_tree_iteratorIS4_EbEOT_' => 1,
                                                   '_ZNSt8_Rb_treeISt10shared_ptrIN4YAML6detail4nodeEES4_St9_IdentityIS4_ESt4lessIS4_ESaIS4_EE17_M_insert_unique_IRKS4_NSA_11_Alloc_nodeEEESt17_Rb_tree_iteratorIS4_ESt23_Rb_tree_const_iteratorIS4_EOT_RT0_' => 1,
                                                   '_ZNSt8_Rb_treeISt10shared_ptrIN4YAML6detail4nodeEES4_St9_IdentityIS4_ESt4lessIS4_ESaIS4_EE24_M_get_insert_unique_posERKS4_' => 1,
                                                   '_ZNSt8_Rb_treeISt10shared_ptrIN4YAML6detail4nodeEES4_St9_IdentityIS4_ESt4lessIS4_ESaIS4_EE29_M_get_insert_hint_unique_posESt23_Rb_tree_const_iteratorIS4_ERKS4_' => 1,
                                                   '_ZNSt8_Rb_treeISt10shared_ptrIN4YAML6detail4nodeEES4_St9_IdentityIS4_ESt4lessIS4_ESaIS4_EE8_M_eraseEPSt13_Rb_tree_nodeIS4_E' => 1,
                                                   '_ZNSt8_Rb_treeISt17basic_string_viewIcSt11char_traitsIcEESt4pairIKS3_PFvRN2ts12BufferWriterERKNS6_7BWFSpecEEESt10_Select1stISE_ESt4lessIS3_ESaISE_EE14_M_insert_nodeEPSt18_Rb_tree_node_baseSM_PSt13_Rb_tree_nodeISE_E' => 1,
                                                   '_ZNSt8_Rb_treeISt17basic_string_viewIcSt11char_traitsIcEESt4pairIKS3_PFvRN2ts12BufferWriterERKNS6_7BWFSpecEEESt10_Select1stISE_ESt4lessIS3_ESaISE_EE14_M_lower_boundEPSt13_Rb_tree_nodeISE_EPSt18_Rb_tree_node_baseRS5_' => 1,
                                                   '_ZNSt8_Rb_treeISt17basic_string_viewIcSt11char_traitsIcEESt4pairIKS3_PFvRN2ts12BufferWriterERKNS6_7BWFSpecEEESt10_Select1stISE_ESt4lessIS3_ESaISE_EE17_M_emplace_uniqueIJRA10_KcSD_EEES4_ISt17_Rb_tree_iteratorISE_EbEDpOT_' => 1,
                                                   '_ZNSt8_Rb_treeISt17basic_string_viewIcSt11char_traitsIcEESt4pairIKS3_PFvRN2ts12BufferWriterERKNS6_7BWFSpecEEESt10_Select1stISE_ESt4lessIS3_ESaISE_EE17_M_emplace_uniqueIJRA12_KcSD_EEES4_ISt17_Rb_tree_iteratorISE_EbEDpOT_' => 1,
                                                   '_ZNSt8_Rb_treeISt17basic_string_viewIcSt11char_traitsIcEESt4pairIKS3_PFvRN2ts12BufferWriterERKNS6_7BWFSpecEEESt10_Select1stISE_ESt4lessIS3_ESaISE_EE17_M_emplace_uniqueIJRA4_KcSD_EEES4_ISt17_Rb_tree_iteratorISE_EbEDpOT_' => 1,
                                                   '_ZNSt8_Rb_treeISt17basic_string_viewIcSt11char_traitsIcEESt4pairIKS3_PFvRN2ts12BufferWriterERKNS6_7BWFSpecEEESt10_Select1stISE_ESt4lessIS3_ESaISE_EE17_M_emplace_uniqueIJRA5_KcSD_EEES4_ISt17_Rb_tree_iteratorISE_EbEDpOT_' => 1,
                                                   '_ZNSt8_Rb_treeISt17basic_string_viewIcSt11char_traitsIcEESt4pairIKS3_PFvRN2ts12BufferWriterERKNS6_7BWFSpecEEESt10_Select1stISE_ESt4lessIS3_ESaISE_EE17_M_emplace_uniqueIJRS3_RSD_EEES4_ISt17_Rb_tree_iteratorISE_EbEDpOT_' => 1,
                                                   '_ZNSt8_Rb_treeISt17basic_string_viewIcSt11char_traitsIcEESt4pairIKS3_PFvRN2ts12BufferWriterERKNS6_7BWFSpecEEESt10_Select1stISE_ESt4lessIS3_ESaISE_EE24_M_get_insert_unique_posERS5_' => 1,
                                                   '_ZNSt8_Rb_treeISt17basic_string_viewIcSt11char_traitsIcEESt4pairIKS3_PFvRN2ts12BufferWriterERKNS6_7BWFSpecEEESt10_Select1stISE_ESt4lessIS3_ESaISE_EE4findERS5_' => 1,
                                                   '_ZNSt8_Rb_treeISt17basic_string_viewIcSt11char_traitsIcEESt4pairIKS3_PFvRN2ts12BufferWriterERKNS6_7BWFSpecEEESt10_Select1stISE_ESt4lessIS3_ESaISE_EE8_M_eraseEPSt13_Rb_tree_nodeISE_E' => 1,
                                                   '_ZNSt8_Rb_treeImSt4pairIKmP21ATSConsistentHashNodeESt10_Select1stIS4_ESt4lessImESaIS4_EE14_M_insert_nodeEPSt18_Rb_tree_node_baseSC_PSt13_Rb_tree_nodeIS4_E' => 1,
                                                   '_ZNSt8_Rb_treeImSt4pairIKmP21ATSConsistentHashNodeESt10_Select1stIS4_ESt4lessImESaIS4_EE14_M_lower_boundEPSt13_Rb_tree_nodeIS4_EPSt18_Rb_tree_node_baseRS1_' => 1,
                                                   '_ZNSt8_Rb_treeImSt4pairIKmP21ATSConsistentHashNodeESt10_Select1stIS4_ESt4lessImESaIS4_EE17_M_emplace_uniqueIJS0_ImS3_EEEES0_ISt17_Rb_tree_iteratorIS4_EbEDpOT_' => 1,
                                                   '_ZNSt8_Rb_treeImSt4pairIKmP21ATSConsistentHashNodeESt10_Select1stIS4_ESt4lessImESaIS4_EE24_M_get_insert_unique_posERS1_' => 1,
                                                   '_ZNSt8_Rb_treeImSt4pairIKmP21ATSConsistentHashNodeESt10_Select1stIS4_ESt4lessImESaIS4_EE8_M_eraseEPSt13_Rb_tree_nodeIS4_E' => 1,
                                                   '_ZNSt8__detail16_Hashtable_allocISaINS_10_Hash_nodeISt4pairIKNSt7__cxx1112basic_stringIcSt11char_traitsIcESaIcEEEN3ext7details9FieldDescEELb1EEEEE18_M_deallocate_nodeEPSE_' => 1,
                                                   '_ZNSt8__detail16_Hashtable_allocISaINS_10_Hash_nodeISt4pairIKNSt7__cxx1112basic_stringIcSt11char_traitsIcESaIcEEEN3ext7details9FieldDescEELb1EEEEE19_M_deallocate_nodesEPSE_' => 1,
                                                   '_ZNSt8__detail16_Hashtable_allocISaINS_10_Hash_nodeISt4pairIKNSt7__cxx1112basic_stringIcSt11char_traitsIcESaIcEEEN3ext7details9FieldDescEELb1EEEEE21_M_deallocate_bucketsEPPNS_15_Hash_node_baseEm' => 1,
                                                   '_ZNSt8__detail16_Hashtable_allocISaINS_10_Hash_nodeISt4pairIKNSt7__cxx1112basic_stringIcSt11char_traitsIcESaIcEEEN3ext7details9FieldDescEELb1EEEEE22_M_deallocate_node_ptrEPSE_' => 1,
                                                   '_ZNSt8__detail16_Hashtable_allocISaINS_10_Hash_nodeISt4pairIKNSt7__cxx1112basic_stringIcSt11char_traitsIcESaIcEEES8_ELb1EEEEE16_M_allocate_nodeIJRKSt21piecewise_construct_tSt5tupleIJOS8_EESI_IJEEEEEPSB_DpOT_' => 1,
                                                   '_ZNSt8__detail16_Hashtable_allocISaINS_10_Hash_nodeISt4pairIKNSt7__cxx1112basic_stringIcSt11char_traitsIcESaIcEEES8_ELb1EEEEE16_M_allocate_nodeIJRKSt21piecewise_construct_tSt5tupleIJRS9_EESI_IJEEEEEPSB_DpOT_' => 1,
                                                   '_ZNSt8__detail16_Hashtable_allocISaINS_10_Hash_nodeISt4pairIKNSt7__cxx1112basic_stringIcSt11char_traitsIcESaIcEEES8_ELb1EEEEE18_M_deallocate_nodeEPSB_' => 1,
                                                   '_ZNSt8__detail16_Hashtable_allocISaINS_10_Hash_nodeISt4pairIKNSt7__cxx1112basic_stringIcSt11char_traitsIcESaIcEEES8_ELb1EEEEE19_M_allocate_bucketsEm' => 1,
                                                   '_ZNSt8__detail16_Hashtable_allocISaINS_10_Hash_nodeISt4pairIKNSt7__cxx1112basic_stringIcSt11char_traitsIcESaIcEEES8_ELb1EEEEE19_M_deallocate_nodesEPSB_' => 1,
                                                   '_ZNSt8__detail16_Hashtable_allocISaINS_10_Hash_nodeISt4pairIKNSt7__cxx1112basic_stringIcSt11char_traitsIcESaIcEEES8_ELb1EEEEE21_M_deallocate_bucketsEPPNS_15_Hash_node_baseEm' => 1,
                                                   '_ZNSt8__detail16_Hashtable_allocISaINS_10_Hash_nodeISt4pairIKNSt7__cxx1112basic_stringIcSt11char_traitsIcESaIcEEES8_ELb1EEEEE22_M_deallocate_node_ptrEPSB_' => 1,
                                                   '_ZNSt8__detail16_Hashtable_allocISaINS_10_Hash_nodeISt4pairIKSt17basic_string_viewIcSt11char_traitsIcEEP10HostBranchELb1EEEEE16_M_allocate_nodeIJRNSt7__cxx1112basic_stringIcS5_SaIcEEERS9_EEEPSB_DpOT_' => 1,
                                                   '_ZNSt8__detail16_Hashtable_allocISaINS_10_Hash_nodeISt4pairIKSt17basic_string_viewIcSt11char_traitsIcEEP10HostBranchELb1EEEEE18_M_deallocate_nodeEPSB_' => 1,
                                                   '_ZNSt8__detail16_Hashtable_allocISaINS_10_Hash_nodeISt4pairIKSt17basic_string_viewIcSt11char_traitsIcEEP10HostBranchELb1EEEEE19_M_allocate_bucketsEm' => 1,
                                                   '_ZNSt8__detail16_Hashtable_allocISaINS_10_Hash_nodeISt4pairIKSt17basic_string_viewIcSt11char_traitsIcEEP10HostBranchELb1EEEEE19_M_deallocate_nodesEPSB_' => 1,
                                                   '_ZNSt8__detail16_Hashtable_allocISaINS_10_Hash_nodeISt4pairIKSt17basic_string_viewIcSt11char_traitsIcEEP10HostBranchELb1EEEEE21_M_deallocate_bucketsEPPNS_15_Hash_node_baseEm' => 1,
                                                   '_ZNSt8__detail16_Hashtable_allocISaINS_10_Hash_nodeISt4pairIKSt17basic_string_viewIcSt11char_traitsIcEEP10HostBranchELb1EEEEE22_M_deallocate_node_ptrEPSB_' => 1,
                                                   '_ZNSt8__detail18__to_chars_10_implIjEEvPcjT_' => 1,
                                                   '_ZNSt8__detail9_Map_baseINSt7__cxx1112basic_stringIcSt11char_traitsIcESaIcEEESt4pairIKS6_S6_ESaIS9_ENS_10_Select1stESt8equal_toIS6_ESt4hashIS6_ENS_18_Mod_range_hashingENS_20_Default_ranged_hashENS_20_Prime_rehash_policyENS_17_Hashtable_traitsILb1ELb0ELb1EEELb1EEixEOS6_' => 1,
                                                   '_ZNSt8__detail9_Map_baseINSt7__cxx1112basic_stringIcSt11char_traitsIcESaIcEEESt4pairIKS6_S6_ESaIS9_ENS_10_Select1stESt8equal_toIS6_ESt4hashIS6_ENS_18_Mod_range_hashingENS_20_Default_ranged_hashENS_20_Prime_rehash_policyENS_17_Hashtable_traitsILb1ELb0ELb1EEELb1EEixERS8_' => 1,
                                                   '_ZSt12__niter_baseIPKNSt7__cxx1112basic_stringIcSt11char_traitsIcESaIcEEESt6vectorIS5_SaIS5_EEET_N9__gnu_cxx17__normal_iteratorISB_T0_EE' => 1,
                                                   '_ZSt12__niter_baseIPKcNSt7__cxx1112basic_stringIcSt11char_traitsIcESaIcEEEET_N9__gnu_cxx17__normal_iteratorIS8_T0_EE' => 1,
                                                   '_ZSt12__niter_baseIPNSt7__cxx1112basic_stringIcSt11char_traitsIcESaIcEEESt6vectorIS5_SaIS5_EEET_N9__gnu_cxx17__normal_iteratorISA_T0_EE' => 1,
                                                   '_ZSt12__niter_baseIPSt4pairIPN4YAML6detail4nodeES4_ESt6vectorIS5_SaIS5_EEET_N9__gnu_cxx17__normal_iteratorISA_T0_EE' => 1,
                                                   '_ZSt12__niter_baseIPcSt6vectorIcSaIcEEET_N9__gnu_cxx17__normal_iteratorIS4_T0_EE' => 1,
                                                   '_ZSt14__copy_move_a1ILb0EN2ts6Errata7MessageERS2_PS2_S2_ESt15_Deque_iteratorIT3_RS6_PS6_ES5_IT0_T1_T2_ESD_S9_' => 1,
                                                   '_ZSt14__copy_move_a1ILb0EPN2ts6Errata7MessageES2_EN9__gnu_cxx11__enable_ifIXsrSt23__is_random_access_iterIT0_NSt15iterator_traitsIS7_E17iterator_categoryEE7__valueESt15_Deque_iteratorIT1_RSD_PSD_EE6__typeES7_S7_SG_' => 1,
                                                   '_ZSt14__copy_move_a1ILb1EN2ts6Errata7MessageERS2_PS2_S2_ESt15_Deque_iteratorIT3_RS6_PS6_ES5_IT0_T1_T2_ESD_S9_' => 1,
                                                   '_ZSt14__copy_move_a1ILb1EPN2ts6Errata7MessageES2_EN9__gnu_cxx11__enable_ifIXsrSt23__is_random_access_iterIT0_NSt15iterator_traitsIS7_E17iterator_categoryEE7__valueESt15_Deque_iteratorIT1_RSD_PSD_EE6__typeES7_S7_SG_' => 1,
                                                   '_ZSt15__copy_move_ditILb0EN2ts6Errata7MessageERS2_PS2_St15_Deque_iteratorIS2_S3_S4_EET3_S5_IT0_T1_T2_ESB_S7_' => 1,
                                                   '_ZSt15__copy_move_ditILb1EN2ts6Errata7MessageERS2_PS2_St15_Deque_iteratorIS2_S3_S4_EET3_S5_IT0_T1_T2_ESB_S7_' => 1,
                                                   '_ZSt22__uninitialized_copy_aISt15_Deque_iteratorIN2ts6Errata7MessageERS3_PS3_ES6_S3_ET0_T_S8_S7_RSaIT1_E' => 1,
                                                   '_ZSt22__uninitialized_move_aISt15_Deque_iteratorIN2ts6Errata7MessageERS3_PS3_ES6_SaIS3_EET0_T_S9_S8_RT1_' => 1,
                                                   '_ZSt23__copy_move_backward_a1ILb1EN2ts6Errata7MessageERS2_PS2_S2_ESt15_Deque_iteratorIT3_RS6_PS6_ES5_IT0_T1_T2_ESD_S9_' => 1,
                                                   '_ZSt23__copy_move_backward_a1ILb1EPN2ts6Errata7MessageES2_EN9__gnu_cxx11__enable_ifIXsrSt23__is_random_access_iterIT0_NSt15iterator_traitsIS7_E17iterator_categoryEE7__valueESt15_Deque_iteratorIT1_RSD_PSD_EE6__typeES7_S7_SG_' => 1,
                                                   '_ZSt24__copy_move_backward_ditILb1EN2ts6Errata7MessageERS2_PS2_St15_Deque_iteratorIS2_S3_S4_EET3_S5_IT0_T1_T2_ESB_S7_' => 1,
                                                   '_ZSt25__uninitialized_copy_moveISt15_Deque_iteratorIN2ts6Errata7MessageERS3_PS3_ES6_S6_SaIS3_EET1_T_S9_T0_SA_S8_RT2_' => 1,
                                                   '_ZSt25__uninitialized_move_copyISt15_Deque_iteratorIN2ts6Errata7MessageERS3_PS3_ES6_S6_SaIS3_EET1_T_S9_T0_SA_S8_RT2_' => 1,
                                                   '_ZSt8_DestroyISt15_Deque_iteratorIN2ts6Errata7MessageERS3_PS3_EEvT_S7_' => 1,
                                                   '_ZSt8_DestroyISt15_Deque_iteratorIN2ts6Errata7MessageERS3_PS3_ES3_EvT_S7_RSaIT0_E' => 1,
                                                   '_ZSt9transformIN9__gnu_cxx17__normal_iteratorIPcNSt7__cxx1112basic_stringIcSt11char_traitsIcESaIcEEEEES9_PFccEET0_T_SD_SC_T1_' => 1,
                                                   '_ZStlsRSoRN2ts17FixedBufferWriterE' => 1,
                                                   '_ZStplIcSt11char_traitsIcESaIcEENSt7__cxx1112basic_stringIT_T0_T1_EEOS8_PKS5_' => 1,
                                                   '_ZStplIcSt11char_traitsIcESaIcEENSt7__cxx1112basic_stringIT_T0_T1_EEPKS5_RKS8_' => 1,
                                                   '_ZStplIcSt11char_traitsIcESaIcEENSt7__cxx1112basic_stringIT_T0_T1_EERKS8_SA_' => 1,
                                                   '_ZTH11local_flags' => 1,
                                                   '_ZTI10ATSHashMD5' => -24,
                                                   '_ZTI10MD5Context' => -24,
                                                   '_ZTI10MMHContext' => -24,
                                                   '_ZTI11ATSHashBase' => -16,
                                                   '_ZTI14ATSHash32FNV1a' => -24,
                                                   '_ZTI14ATSHash64FNV1a' => -24,
                                                   '_ZTI14ATSHash64Sip24' => -24,
                                                   '_ZTI5Diags' => -16,
                                                   '_ZTI7ATSHash' => -24,
                                                   '_ZTI9ATSHash32' => -24,
                                                   '_ZTI9ATSHash64' => -24,
                                                   '_ZTIN2ts12BufferWriterE' => -16,
                                                   '_ZTIN2ts17FixedBufferWriterE' => -24,
                                                   '_ZTIN2ts17LocalBufferWriterILm1024EEE' => -24,
                                                   '_ZTIN2ts17LocalBufferWriterILm48EEE' => -24,
                                                   '_ZTIN2ts6detail6RBNodeE' => -16,
                                                   '_ZTIN2ts6detail7Ip4NodeE' => -56,
                                                   '_ZTIN2ts6detail7Ip6NodeE' => -56,
                                                   '_ZTIN2ts6detail8IntervalI12sockaddr_in6RKS2_EE' => -16,
                                                   '_ZTIN2ts6detail8IntervalIjjEE' => -16,
                                                   '_ZTIN3ats13CryptoContextE' => -24,
                                                   '_ZTIN3ats17CryptoContextBaseE' => -16,
                                                   '_ZTIN4YAML11BadPushbackE' => -24,
                                                   '_ZTIN4YAML11InvalidNodeE' => -24,
                                                   '_ZTIN4YAML11KeyNotFoundE' => -24,
                                                   '_ZTIN4YAML11NodeBuilderE' => -24,
                                                   '_ZTIN4YAML12BadSubscriptE' => -24,
                                                   '_ZTIN4YAML12EventHandlerE' => -16,
                                                   '_ZTIN4YAML13BadConversionE' => -24,
                                                   '_ZTIN4YAML13InvalidScalarE' => -24,
                                                   '_ZTIN4YAML13SettingChangeINS_13EMITTER_MANIPEEE' => -24,
                                                   '_ZTIN4YAML13SettingChangeImEE' => -24,
                                                   '_ZTIN4YAML14BadDereferenceE' => -24,
                                                   '_ZTIN4YAML14EmitFromEventsE' => -24,
                                                   '_ZTIN4YAML15ParserExceptionE' => -24,
                                                   '_ZTIN4YAML16EmitterExceptionE' => -24,
                                                   '_ZTIN4YAML17SettingChangeBaseE' => -16,
                                                   '_ZTIN4YAML18TypedBadConversionINSt7__cxx1112basic_stringIcSt11char_traitsIcESaIcEEEEE' => -24,
                                                   '_ZTIN4YAML23RepresentationExceptionE' => -24,
                                                   '_ZTIN4YAML7BadFileE' => -24,
                                                   '_ZTIN4YAML9BadInsertE' => -24,
                                                   '_ZTIN4YAML9ExceptionE' => -24,
                                                   '_ZTIN5IpMap4NodeE' => -40,
                                                   '_ZTISt11_Mutex_baseILN9__gnu_cxx12_Lock_policyE2EE' => -16,
                                                   '_ZTISt15_Sp_counted_ptrIPN4YAML6detail13memory_holderELN9__gnu_cxx12_Lock_policyE2EE' => -24,
                                                   '_ZTISt15_Sp_counted_ptrIPN4YAML6detail4nodeELN9__gnu_cxx12_Lock_policyE2EE' => -24,
                                                   '_ZTISt15_Sp_counted_ptrIPN4YAML6detail6memoryELN9__gnu_cxx12_Lock_policyE2EE' => -24,
                                                   '_ZTISt15_Sp_counted_ptrIPN4YAML6detail8node_refELN9__gnu_cxx12_Lock_policyE2EE' => -24,
                                                   '_ZTISt15_Sp_counted_ptrIPN4YAML6detail9node_dataELN9__gnu_cxx12_Lock_policyE2EE' => -24,
                                                   '_ZTISt16_Sp_counted_baseILN9__gnu_cxx12_Lock_policyE2EE' => -24,
                                                   '_ZTS10ATSHashMD5' => -13,
                                                   '_ZTS10MD5Context' => -13,
                                                   '_ZTS10MMHContext' => -13,
                                                   '_ZTS11ATSHashBase' => -14,
                                                   '_ZTS14ATSHash32FNV1a' => -17,
                                                   '_ZTS14ATSHash64FNV1a' => -17,
                                                   '_ZTS14ATSHash64Sip24' => -17,
                                                   '_ZTS5Diags' => -7,
                                                   '_ZTS7ATSHash' => -9,
                                                   '_ZTS9ATSHash32' => -11,
                                                   '_ZTS9ATSHash64' => -11,
                                                   '_ZTSN2ts12BufferWriterE' => -20,
                                                   '_ZTSN2ts17FixedBufferWriterE' => -25,
                                                   '_ZTSN2ts17LocalBufferWriterILm1024EEE' => -34,
                                                   '_ZTSN2ts17LocalBufferWriterILm48EEE' => -32,
                                                   '_ZTSN2ts6detail6RBNodeE' => -20,
                                                   '_ZTSN2ts6detail7Ip4NodeE' => -21,
                                                   '_ZTSN2ts6detail7Ip6NodeE' => -21,
                                                   '_ZTSN2ts6detail8IntervalI12sockaddr_in6RKS2_EE' => -43,
                                                   '_ZTSN2ts6detail8IntervalIjjEE' => -26,
                                                   '_ZTSN3ats13CryptoContextE' => -22,
                                                   '_ZTSN3ats17CryptoContextBaseE' => -26,
                                                   '_ZTSN4YAML11BadPushbackE' => -21,
                                                   '_ZTSN4YAML11InvalidNodeE' => -21,
                                                   '_ZTSN4YAML11KeyNotFoundE' => -21,
                                                   '_ZTSN4YAML11NodeBuilderE' => -21,
                                                   '_ZTSN4YAML12BadSubscriptE' => -22,
                                                   '_ZTSN4YAML12EventHandlerE' => -22,
                                                   '_ZTSN4YAML13BadConversionE' => -23,
                                                   '_ZTSN4YAML13InvalidScalarE' => -23,
                                                   '_ZTSN4YAML13SettingChangeINS_13EMITTER_MANIPEEE' => -44,
                                                   '_ZTSN4YAML13SettingChangeImEE' => -26,
                                                   '_ZTSN4YAML14BadDereferenceE' => -24,
                                                   '_ZTSN4YAML14EmitFromEventsE' => -24,
                                                   '_ZTSN4YAML15ParserExceptionE' => -25,
                                                   '_ZTSN4YAML16EmitterExceptionE' => -26,
                                                   '_ZTSN4YAML17SettingChangeBaseE' => -27,
                                                   '_ZTSN4YAML18TypedBadConversionINSt7__cxx1112basic_stringIcSt11char_traitsIcESaIcEEEEE' => -82,
                                                   '_ZTSN4YAML23RepresentationExceptionE' => -33,
                                                   '_ZTSN4YAML7BadFileE' => -16,
                                                   '_ZTSN4YAML9BadInsertE' => -18,
                                                   '_ZTSN4YAML9ExceptionE' => -18,
                                                   '_ZTSN5IpMap4NodeE' => -14,
                                                   '_ZTSSt11_Mutex_baseILN9__gnu_cxx12_Lock_policyE2EE' => -47,
                                                   '_ZTSSt15_Sp_counted_ptrIPN4YAML6detail13memory_holderELN9__gnu_cxx12_Lock_policyE2EE' => -81,
                                                   '_ZTSSt15_Sp_counted_ptrIPN4YAML6detail4nodeELN9__gnu_cxx12_Lock_policyE2EE' => -71,
                                                   '_ZTSSt15_Sp_counted_ptrIPN4YAML6detail6memoryELN9__gnu_cxx12_Lock_policyE2EE' => -73,
                                                   '_ZTSSt15_Sp_counted_ptrIPN4YAML6detail8node_refELN9__gnu_cxx12_Lock_policyE2EE' => -75,
                                                   '_ZTSSt15_Sp_counted_ptrIPN4YAML6detail9node_dataELN9__gnu_cxx12_Lock_policyE2EE' => -76,
                                                   '_ZTSSt16_Sp_counted_baseILN9__gnu_cxx12_Lock_policyE2EE' => -52,
                                                   '_ZTV10ATSHashMD5' => -80,
                                                   '_ZTV10MD5Context' => -48,
                                                   '_ZTV10MMHContext' => -48,
                                                   '_ZTV11ATSHashBase' => -56,
                                                   '_ZTV14ATSHash32FNV1a' => -72,
                                                   '_ZTV14ATSHash64FNV1a' => -72,
                                                   '_ZTV14ATSHash64Sip24' => -72,
                                                   '_ZTV5Diags' => -40,
                                                   '_ZTV7ATSHash' => -80,
                                                   '_ZTV9ATSHash32' => -72,
                                                   '_ZTV9ATSHash64' => -72,
                                                   '_ZTVN2ts12BufferWriterE' => -128,
                                                   '_ZTVN2ts17FixedBufferWriterE' => -128,
                                                   '_ZTVN2ts17LocalBufferWriterILm1024EEE' => -128,
                                                   '_ZTVN2ts17LocalBufferWriterILm48EEE' => -128,
                                                   '_ZTVN2ts6detail6RBNodeE' => -48,
                                                   '_ZTVN2ts6detail7Ip4NodeE' => -80,
                                                   '_ZTVN2ts6detail7Ip6NodeE' => -80,
                                                   '_ZTVN3ats13CryptoContextE' => -48,
                                                   '_ZTVN3ats17CryptoContextBaseE' => -48,
                                                   '_ZTVN4YAML11BadPushbackE' => -40,
                                                   '_ZTVN4YAML11InvalidNodeE' => -40,
                                                   '_ZTVN4YAML11KeyNotFoundE' => -40,
                                                   '_ZTVN4YAML11NodeBuilderE' => -112,
                                                   '_ZTVN4YAML12BadSubscriptE' => -40,
                                                   '_ZTVN4YAML12EventHandlerE' => -112,
                                                   '_ZTVN4YAML13BadConversionE' => -40,
                                                   '_ZTVN4YAML13InvalidScalarE' => -40,
                                                   '_ZTVN4YAML13SettingChangeINS_13EMITTER_MANIPEEE' => -40,
                                                   '_ZTVN4YAML13SettingChangeImEE' => -40,
                                                   '_ZTVN4YAML14BadDereferenceE' => -40,
                                                   '_ZTVN4YAML14EmitFromEventsE' => -112,
                                                   '_ZTVN4YAML15ParserExceptionE' => -40,
                                                   '_ZTVN4YAML16EmitterExceptionE' => -40,
                                                   '_ZTVN4YAML17SettingChangeBaseE' => -40,
                                                   '_ZTVN4YAML18TypedBadConversionINSt7__cxx1112basic_stringIcSt11char_traitsIcESaIcEEEEE' => -40,
                                                   '_ZTVN4YAML23RepresentationExceptionE' => -40,
                                                   '_ZTVN4YAML7BadFileE' => -40,
                                                   '_ZTVN4YAML9BadInsertE' => -40,
                                                   '_ZTVN4YAML9ExceptionE' => -40,
                                                   '_ZTVN5IpMap4NodeE' => -80,
                                                   '_ZTVSt15_Sp_counted_ptrIPN4YAML6detail13memory_holderELN9__gnu_cxx12_Lock_policyE2EE' => -56,
                                                   '_ZTVSt15_Sp_counted_ptrIPN4YAML6detail4nodeELN9__gnu_cxx12_Lock_policyE2EE' => -56,
                                                   '_ZTVSt15_Sp_counted_ptrIPN4YAML6detail6memoryELN9__gnu_cxx12_Lock_policyE2EE' => -56,
                                                   '_ZTVSt15_Sp_counted_ptrIPN4YAML6detail8node_refELN9__gnu_cxx12_Lock_policyE2EE' => -56,
                                                   '_ZTVSt15_Sp_counted_ptrIPN4YAML6detail9node_dataELN9__gnu_cxx12_Lock_policyE2EE' => -56,
                                                   '_ZTVSt16_Sp_counted_baseILN9__gnu_cxx12_Lock_policyE2EE' => -56,
                                                   '_ZeqRK6IpAddrPK8sockaddr' => 1,
                                                   '_ZlsRSoR21ATSConsistentHashNode' => 1,
                                                   '__global_death' => -40,
                                                   '_ink_assert' => 1,
                                                   '_xstrdup' => 1,
                                                   'ats_calloc' => 1,
                                                   'ats_free' => 1,
                                                   'ats_free_null' => 1,
                                                   'ats_madvise' => 1,
                                                   'ats_malloc' => 1,
                                                   'ats_mallopt' => 1,
                                                   'ats_memalign' => 1,
                                                   'ats_memalign_free' => 1,
                                                   'ats_mlock' => 1,
                                                   'ats_msync' => 1,
                                                   'ats_realloc' => 1,
                                                   'ats_track_free' => 1,
                                                   'ats_track_malloc' => 1,
                                                   'ats_track_realloc' => 1,
                                                   'cmd_disable_pfreelist' => -4,
                                                   'diags' => -8,
                                                   'diags_on_for_plugins' => -4,
                                                   'fastlz_compress' => 1,
                                                   'fastlz_compress_level' => 1,
                                                   'fastlz_decompress' => 1,
                                                   'file_arguments' => -800,
                                                   'host_res_default_preference_order' => -12,
                                                   'http_dest_tags' => -56,
                                                   'ink_atomiclist_init' => 1,
                                                   'ink_atomiclist_pop' => 1,
                                                   'ink_atomiclist_popall' => 1,
                                                   'ink_atomiclist_push' => 1,
                                                   'ink_atomiclist_remove' => 1,
                                                   'ink_freelist_create' => 1,
                                                   'ink_freelist_free' => 1,
                                                   'ink_freelist_free_bulk' => 1,
                                                   'ink_freelist_freelist_ops' => 1,
                                                   'ink_freelist_init' => 1,
                                                   'ink_freelist_init_ops' => 1,
                                                   'ink_freelist_madvise_init' => 1,
                                                   'ink_freelist_malloc_ops' => 1,
                                                   'ink_freelist_new' => 1,
                                                   'ink_freelists_dump' => 1,
                                                   'ink_freelists_dump_baselinerel' => 1,
                                                   'ink_freelists_snap_baseline' => 1,
                                                   'ink_mutex_initializer' => -40,
                                                   'ink_queue_load_64' => 1,
                                                   'ink_stack_trace_dump' => 1,
                                                   'ip_allow_dest_tags' => -56,
                                                   'ip_allow_src_tags' => -56,
                                                   'local_flags' => 1,
                                                   'matcher_type_str' => -56,
                                                   'n_file_arguments' => -4,
                                                   'ns_name_ntop' => 1,
                                                   'off' => -4,
                                                   'on' => -4,
                                                   'parseRulesCType' => -1024,
                                                   'parseRulesCTypeToLower' => -256,
                                                   'parseRulesCTypeToUpper' => -256,
                                                   'program_name' => -8,
                                                   'regressionTest_AppVersionInfo' => -64,
                                                   'regressionTest_Regression' => -64,
                                                   'regressionTest_libts_Tokenizer' => -64,
                                                   'res_track_memory' => -4,
                                                   'socks_server_tags' => -56,
                                                   'ssl_memory_allocated' => -8,
                                                   'ssl_memory_freed' => -8,
                                                   'usage_return_code' => -4
                                                 }
                       },
          'Target' => 'unix',
          'TypeInfo' => {
                          '-1' => {
                                    'Name' => '...',
                                    'Type' => 'Intrinsic'
                                  },
                          '1023504' => {
                                         'BaseType' => '992093',
                                         'Name' => 'struct ATSConsistentHashNode&',
                                         'Size' => '8',
                                         'Type' => 'Ref'
                                       },
                          '1052726' => {
                                         'BaseType' => '9320',
                                         'Name' => 'uint8_t[16]',
                                         'Size' => '16',
                                         'Type' => 'Array'
                                       },
                          '1052742' => {
                                         'BaseType' => '9344',
                                         'Name' => 'uint32_t[4]',
                                         'Size' => '16',
                                         'Type' => 'Array'
                                       },
                          '1061978' => {
                                         'BaseType' => '9356',
                                         'Name' => 'uint64_t[2]',
                                         'Size' => '16',
                                         'Type' => 'Array'
                                       },
                          '1103642' => {
                                         'BaseType' => '7970',
                                         'Name' => 'unsigned char[8]',
                                         'Size' => '8',
                                         'Type' => 'Array'
                                       },
                          '1110891' => {
                                         'BaseType' => '7977',
                                         'Header' => undef,
                                         'Line' => '28',
                                         'Name' => 'sa_family_t',
                                         'PrivateABI' => 1,
                                         'Size' => '2',
                                         'Type' => 'Typedef'
                                       },
                          '1110903' => {
                                         'Header' => undef,
                                         'Line' => '178',
                                         'Memb' => {
                                                     '0' => {
                                                              'name' => 'sa_family',
                                                              'offset' => '0',
                                                              'type' => '1110891'
                                                            },
                                                     '1' => {
                                                              'name' => 'sa_data',
                                                              'offset' => '2',
                                                              'type' => '1110948'
                                                            }
                                                   },
                                         'Name' => 'struct sockaddr',
                                         'PrivateABI' => 1,
                                         'Size' => '16',
                                         'Type' => 'Struct'
                                       },
                          '1110943' => {
                                         'BaseType' => '1110903',
                                         'Name' => 'struct sockaddr const',
                                         'Size' => '16',
                                         'Type' => 'Const'
                                       },
                          '1110948' => {
                                         'BaseType' => '9260',
                                         'Name' => 'char[14]',
                                         'Size' => '14',
                                         'Type' => 'Array'
                                       },
                          '1111212' => {
                                         'BaseType' => '9344',
                                         'Header' => undef,
                                         'Line' => '30',
                                         'Name' => 'in_addr_t',
                                         'PrivateABI' => 1,
                                         'Size' => '4',
                                         'Type' => 'Typedef'
                                       },
                          '1111263' => {
                                         'Header' => undef,
                                         'Line' => '216',
                                         'Memb' => {
                                                     '0' => {
                                                              'name' => '__in6_u',
                                                              'offset' => '0',
                                                              'type' => '1111276'
                                                            }
                                                   },
                                         'Name' => 'struct in6_addr',
                                         'PrivateABI' => 1,
                                         'Size' => '16',
                                         'Type' => 'Struct'
                                       },
                          '1111276' => {
                                         'Header' => undef,
                                         'Line' => '219',
                                         'Memb' => {
                                                     '0' => {
                                                              'name' => '__u6_addr8',
                                                              'offset' => '0',
                                                              'type' => '1052726'
                                                            },
                                                     '1' => {
                                                              'name' => '__u6_addr16',
                                                              'offset' => '0',
                                                              'type' => '1111358'
                                                            },
                                                     '2' => {
                                                              'name' => '__u6_addr32',
                                                              'offset' => '0',
                                                              'type' => '1052742'
                                                            }
                                                   },
                                         'NameSpace' => 'in6_addr',
                                         'PrivateABI' => 1,
                                         'Size' => '16',
                                         'Type' => 'Union'
                                       },
                          '1111358' => {
                                         'BaseType' => '9332',
                                         'Name' => 'uint16_t[8]',
                                         'Size' => '16',
                                         'Type' => 'Array'
                                       },
                          '1114579' => {
                                         'BaseType' => '1110943',
                                         'Name' => 'struct sockaddr const*',
                                         'Size' => '8',
                                         'Type' => 'Pointer'
                                       },
                          '1114584' => {
                                         'BaseType' => '1115746',
                                         'Name' => 'struct IpAddr const&',
                                         'Size' => '8',
                                         'Type' => 'Ref'
                                       },
                          '1114589' => {
                                         'Header' => undef,
                                         'Line' => '1153',
                                         'Memb' => {
                                                     '0' => {
                                                              'name' => '_family',
                                                              'offset' => '0',
                                                              'type' => '9332'
                                                            },
                                                     '1' => {
                                                              'name' => '_addr',
                                                              'offset' => '8',
                                                              'type' => '1114621'
                                                            }
                                                   },
                                         'Name' => 'struct IpAddr',
                                         'PrivateABI' => 1,
                                         'Size' => '24',
                                         'Type' => 'Struct'
                                       },
                          '1114621' => {
                                         'Header' => undef,
                                         'Line' => '1294',
                                         'Memb' => {
                                                     '0' => {
                                                              'name' => '_ip4',
                                                              'offset' => '0',
                                                              'type' => '1111212'
                                                            },
                                                     '1' => {
                                                              'name' => '_ip6',
                                                              'offset' => '0',
                                                              'type' => '1111263'
                                                            },
                                                     '2' => {
                                                              'name' => '_byte',
                                                              'offset' => '0',
                                                              'type' => '1052726'
                                                            },
                                                     '3' => {
                                                              'name' => '_u32',
                                                              'offset' => '0',
                                                              'type' => '1052742'
                                                            },
                                                     '4' => {
                                                              'name' => '_u64',
                                                              'offset' => '0',
                                                              'type' => '1061978'
                                                            }
                                                   },
                                         'Name' => 'union IpAddr::Addr',
                                         'NameSpace' => 'IpAddr',
                                         'PrivateABI' => 1,
                                         'Size' => '16',
                                         'Type' => 'Union'
                                       },
                          '1115746' => {
                                         'BaseType' => '1114589',
                                         'Name' => 'struct IpAddr const',
                                         'Size' => '24',
                                         'Type' => 'Const'
                                       },
                          '1171070' => {
                                         'Base' => {
                                                     '1177090' => {
                                                                    'access' => 'protected',
                                                                    'pos' => '0'
                                                                  }
                                                   },
                                         'Header' => undef,
                                         'Line' => '766',
                                         'Name' => 'std::deque<ts::Errata::Message>',
                                         'NameSpace' => 'std',
                                         'PrivateABI' => 1,
                                         'Size' => '80',
                                         'TParam' => {
                                                       '0' => {
                                                                'key' => '_Tp',
                                                                'type' => '1208337'
                                                              }
                                                     },
                                         'Type' => 'Class'
                                       },
                          '1174742' => {
                                         'Base' => {
                                                     '1197620' => {
                                                                    'pos' => '0'
                                                                  }
                                                   },
                                         'Header' => undef,
                                         'Line' => '124',
                                         'Name' => 'std::allocator<ts::Errata::Message>',
                                         'NameSpace' => 'std',
                                         'PrivateABI' => 1,
                                         'Size' => '1',
                                         'TParam' => {
                                                       '0' => {
                                                                'type' => '1208337'
                                                              }
                                                     },
                                         'Type' => 'Class'
                                       },
                          '1175611' => {
                                         'Header' => undef,
                                         'Line' => '113',
                                         'Memb' => {
                                                     '0' => {
                                                              'name' => '_M_cur',
                                                              'offset' => '0',
                                                              'type' => '1175640'
                                                            },
                                                     '1' => {
                                                              'name' => '_M_first',
                                                              'offset' => '8',
                                                              'type' => '1175640'
                                                            },
                                                     '2' => {
                                                              'name' => '_M_last',
                                                              'offset' => '22',
                                                              'type' => '1175640'
                                                            },
                                                     '3' => {
                                                              'name' => '_M_node',
                                                              'offset' => '36',
                                                              'type' => '1175691'
                                                            }
                                                   },
                                         'Name' => 'struct std::_Deque_iterator<ts::Errata::Message, ts::Errata::Message&, ts::Errata::Message*>',
                                         'NameSpace' => 'std',
                                         'PrivateABI' => 1,
                                         'Size' => '32',
                                         'TParam' => {
                                                       '0' => {
                                                                'key' => '_Tp',
                                                                'type' => '1208337'
                                                              },
                                                       '1' => {
                                                                'key' => '_Ref',
                                                                'type' => '1214378'
                                                              },
                                                       '2' => {
                                                                'key' => '_Ptr',
                                                                'type' => '1214307'
                                                              }
                                                     },
                                         'Type' => 'Struct'
                                       },
                          '1175640' => {
                                         'BaseType' => '979802',
                                         'Header' => undef,
                                         'Line' => '127',
                                         'Name' => 'std::_Deque_iterator<ts::Errata::Message, ts::Errata::Message&, ts::Errata::Message*>::_Elt_pointer',
                                         'NameSpace' => 'std::_Deque_iterator<ts::Errata::Message, ts::Errata::Message&, ts::Errata::Message*>',
                                         'PrivateABI' => 1,
                                         'Size' => '8',
                                         'Type' => 'Typedef'
                                       },
                          '1175691' => {
                                         'BaseType' => '979802',
                                         'Header' => undef,
                                         'Line' => '128',
                                         'Name' => 'std::_Deque_iterator<ts::Errata::Message, ts::Errata::Message&, ts::Errata::Message*>::_Map_pointer',
                                         'NameSpace' => 'std::_Deque_iterator<ts::Errata::Message, ts::Errata::Message&, ts::Errata::Message*>',
                                         'PrivateABI' => 1,
                                         'Size' => '8',
                                         'Type' => 'Typedef'
                                       },
                          '1177090' => {
                                         'Header' => undef,
                                         'Line' => '408',
                                         'Memb' => {
                                                     '0' => {
                                                              'access' => 'protected',
                                                              'name' => '_M_impl',
                                                              'offset' => '0',
                                                              'type' => '1177379'
                                                            }
                                                   },
                                         'Name' => 'std::_Deque_base<ts::Errata::Message, std::allocator<ts::Errata::Message> >',
                                         'NameSpace' => 'std',
                                         'PrivateABI' => 1,
                                         'Size' => '80',
                                         'TParam' => {
                                                       '0' => {
                                                                'key' => '_Tp',
                                                                'type' => '1208337'
                                                              },
                                                       '1' => {
                                                                'key' => '_Alloc',
                                                                'type' => '1174742'
                                                              }
                                                     },
                                         'Type' => 'Class'
                                       },
                          '1177121' => {
                                         'Header' => undef,
                                         'Line' => '487',
                                         'Memb' => {
                                                     '0' => {
                                                              'name' => '_M_map',
                                                              'offset' => '0',
                                                              'type' => '1177351'
                                                            },
                                                     '1' => {
                                                              'name' => '_M_map_size',
                                                              'offset' => '8',
                                                              'type' => '287'
                                                            },
                                                     '2' => {
                                                              'name' => '_M_start',
                                                              'offset' => '22',
                                                              'type' => '1177365'
                                                            },
                                                     '3' => {
                                                              'name' => '_M_finish',
                                                              'offset' => '72',
                                                              'type' => '1177365'
                                                            }
                                                   },
                                         'Name' => 'struct std::_Deque_base<ts::Errata::Message, std::allocator<ts::Errata::Message> >::_Deque_impl_data',
                                         'NameSpace' => 'std::_Deque_base<ts::Errata::Message, std::allocator<ts::Errata::Message> >',
                                         'PrivateABI' => 1,
                                         'Protected' => 1,
                                         'Size' => '80',
                                         'Type' => 'Struct'
                                       },
                          '1177351' => {
                                         'BaseType' => '1175691',
                                         'Header' => undef,
                                         'Line' => '485',
                                         'Name' => 'std::_Deque_base<ts::Errata::Message, std::allocator<ts::Errata::Message> >::_Map_pointer',
                                         'NameSpace' => 'std::_Deque_base<ts::Errata::Message, std::allocator<ts::Errata::Message> >',
                                         'PrivateABI' => 1,
                                         'Protected' => 1,
                                         'Size' => '8',
                                         'Type' => 'Typedef'
                                       },
                          '1177365' => {
                                         'BaseType' => '1175611',
                                         'Header' => undef,
                                         'Line' => '433',
                                         'Name' => 'std::_Deque_base<ts::Errata::Message, std::allocator<ts::Errata::Message> >::iterator',
                                         'NameSpace' => 'std::_Deque_base<ts::Errata::Message, std::allocator<ts::Errata::Message> >',
                                         'PrivateABI' => 1,
                                         'Protected' => 1,
                                         'Size' => '32',
                                         'Type' => 'Typedef'
                                       },
                          '1177379' => {
                                         'Base' => {
                                                     '1174742' => {
                                                                    'pos' => '0'
                                                                  },
                                                     '1177121' => {
                                                                    'pos' => '1'
                                                                  }
                                                   },
                                         'Header' => undef,
                                         'Line' => '520',
                                         'Name' => 'struct std::_Deque_base<ts::Errata::Message, std::allocator<ts::Errata::Message> >::_Deque_impl',
                                         'NameSpace' => 'std::_Deque_base<ts::Errata::Message, std::allocator<ts::Errata::Message> >',
                                         'PrivateABI' => 1,
                                         'Protected' => 1,
                                         'Size' => '80',
                                         'Type' => 'Struct'
                                       },
                          '118974' => {
                                        'BaseType' => '9255',
                                        'Name' => 'char*const',
                                        'Size' => '8',
                                        'Type' => 'Const'
                                      },
                          '1197620' => {
                                         'Header' => undef,
                                         'Line' => '55',
                                         'Name' => '__gnu_cxx::new_allocator<ts::Errata::Message>',
                                         'NameSpace' => '__gnu_cxx',
                                         'PrivateABI' => 1,
                                         'Size' => '1',
                                         'TParam' => {
                                                       '0' => {
                                                                'key' => '_Tp',
                                                                'type' => '1208337'
                                                              }
                                                     },
                                         'Type' => 'Class'
                                       },
                          '1206985' => {
                                         'Header' => undef,
                                         'Line' => '62',
                                         'Memb' => {
                                                     '0' => {
                                                              'access' => 'protected',
                                                              'name' => 'm_intrusive_pointer_reference_count',
                                                              'offset' => '0',
                                                              'type' => '1207153'
                                                            }
                                                   },
                                         'Name' => 'ts::IntrusivePtrCounter',
                                         'NameSpace' => 'ts',
                                         'PrivateABI' => 1,
                                         'Size' => '8',
                                         'Type' => 'Class'
                                       },
                          '1207153' => {
                                         'BaseType' => '8024',
                                         'Header' => undef,
                                         'Line' => '91',
                                         'Name' => 'ts::IntrusivePtrCounter::intrusive_ptr_reference_counter_type',
                                         'NameSpace' => 'ts::IntrusivePtrCounter',
                                         'PrivateABI' => 1,
                                         'Protected' => 1,
                                         'Size' => '8',
                                         'Type' => 'Typedef'
                                       },
                          '1207203' => {
                                         'Header' => undef,
                                         'Line' => '145',
                                         'Memb' => {
                                                     '0' => {
                                                              'access' => 'private',
                                                              'name' => 'm_obj',
                                                              'offset' => '0',
                                                              'type' => '1214035'
                                                            }
                                                   },
                                         'Name' => 'ts::IntrusivePtr<ts::Errata::Data>',
                                         'NameSpace' => 'ts',
                                         'PrivateABI' => 1,
                                         'Size' => '8',
                                         'TParam' => {
                                                       '0' => {
                                                                'key' => 'T',
                                                                'type' => '1207830'
                                                              }
                                                     },
                                         'Type' => 'Class'
                                       },
                          '1207817' => {
                                         'Header' => undef,
                                         'Line' => '82',
                                         'Memb' => {
                                                     '0' => {
                                                              'access' => 'protected',
                                                              'name' => 'm_data',
                                                              'offset' => '0',
                                                              'type' => '1210915'
                                                            }
                                                   },
                                         'Name' => 'ts::Errata',
                                         'NameSpace' => 'ts',
                                         'PrivateABI' => 1,
                                         'Size' => '8',
                                         'Type' => 'Class'
                                       },
                          '1207830' => {
                                         'Base' => {
                                                     '1206985' => {
                                                                    'pos' => '0'
                                                                  }
                                                   },
                                         'Header' => undef,
                                         'Line' => '487',
                                         'Memb' => {
                                                     '0' => {
                                                              'name' => 'm_log_on_delete',
                                                              'offset' => '8',
                                                              'type' => '7936'
                                                            },
                                                     '1' => {
                                                              'name' => 'm_items',
                                                              'offset' => '22',
                                                              'type' => '1211029'
                                                            }
                                                   },
                                         'Name' => 'struct ts::Errata::Data',
                                         'NameSpace' => 'ts::Errata',
                                         'PrivateABI' => 1,
                                         'Protected' => 1,
                                         'Size' => '96',
                                         'Type' => 'Struct'
                                       },
                          '120796' => {
                                        'Header' => undef,
                                        'Line' => '55',
                                        'Name' => '__gnu_cxx::new_allocator<char>',
                                        'NameSpace' => '__gnu_cxx',
                                        'PrivateABI' => 1,
                                        'Size' => '1',
                                        'TParam' => {
                                                      '0' => {
                                                               'key' => '_Tp',
                                                               'type' => '9260'
                                                             }
                                                    },
                                        'Type' => 'Class'
                                      },
                          '1208237' => {
                                         'BaseType' => '1211048',
                                         'Header' => undef,
                                         'Line' => '94',
                                         'Name' => 'ts::Errata::Id',
                                         'NameSpace' => 'ts::Errata',
                                         'PrivateABI' => 1,
                                         'Size' => '4',
                                         'Type' => 'Typedef'
                                       },
                          '1208292' => {
                                         'BaseType' => '1211862',
                                         'Header' => undef,
                                         'Line' => '102',
                                         'Name' => 'ts::Errata::Code',
                                         'NameSpace' => 'ts::Errata',
                                         'PrivateABI' => 1,
                                         'Size' => '4',
                                         'Type' => 'Typedef'
                                       },
                          '1208337' => {
                                         'Header' => undef,
                                         'Line' => '373',
                                         'Memb' => {
                                                     '0' => {
                                                              'name' => 'm_id',
                                                              'offset' => '0',
                                                              'type' => '1208237'
                                                            },
                                                     '1' => {
                                                              'name' => 'm_code',
                                                              'offset' => '4',
                                                              'type' => '1208292'
                                                            },
                                                     '2' => {
                                                              'name' => 'm_text',
                                                              'offset' => '8',
                                                              'type' => '50298'
                                                            },
                                                     '3' => {
                                                              'name' => 'm_errata',
                                                              'offset' => '64',
                                                              'type' => '1207817'
                                                            }
                                                   },
                                         'Name' => 'struct ts::Errata::Message',
                                         'NameSpace' => 'ts::Errata',
                                         'PrivateABI' => 1,
                                         'Size' => '48',
                                         'Type' => 'Struct'
                                       },
                          '1210915' => {
                                         'BaseType' => '1207203',
                                         'Header' => undef,
                                         'Line' => '88',
                                         'Name' => 'ts::Errata::ImpPtr',
                                         'NameSpace' => 'ts::Errata',
                                         'PrivateABI' => 1,
                                         'Protected' => 1,
                                         'Size' => '8',
                                         'Type' => 'Typedef'
                                       },
                          '1211029' => {
                                         'BaseType' => '1171070',
                                         'Header' => undef,
                                         'Line' => '105',
                                         'Name' => 'ts::Errata::Container',
                                         'NameSpace' => 'ts::Errata',
                                         'PrivateABI' => 1,
                                         'Size' => '80',
                                         'Type' => 'Typedef'
                                       },
                          '1211043' => {
                                         'BaseType' => '1207817',
                                         'Name' => 'ts::Errata const',
                                         'Size' => '8',
                                         'Type' => 'Const'
                                       },
                          '1211048' => {
                                         'Base' => {
                                                     '1213290' => {
                                                                    'pos' => '0'
                                                                  }
                                                   },
                                         'Header' => undef,
                                         'Line' => '97',
                                         'Memb' => {
                                                     '0' => {
                                                              'access' => 'private',
                                                              'name' => '_t',
                                                              'offset' => '0',
                                                              'type' => '1211175'
                                                            }
                                                   },
                                         'Name' => 'ts::NumericType<unsigned int, ts::MsgIdTag>',
                                         'NameSpace' => 'ts',
                                         'PrivateABI' => 1,
                                         'Size' => '4',
                                         'TParam' => {
                                                       '0' => {
                                                                'key' => 'T',
                                                                'type' => '7984'
                                                              },
                                                       '1' => {
                                                                'key' => 'X',
                                                                'type' => '1213989'
                                                              }
                                                     },
                                         'Type' => 'Class'
                                       },
                          '1211175' => {
                                         'BaseType' => '7984',
                                         'Header' => undef,
                                         'Line' => '100',
                                         'Name' => 'ts::NumericType<unsigned int, ts::MsgIdTag>::raw_type',
                                         'NameSpace' => 'ts::NumericType<unsigned int, ts::MsgIdTag>',
                                         'PrivateABI' => 1,
                                         'Size' => '4',
                                         'Type' => 'Typedef'
                                       },
                          '1211862' => {
                                         'Base' => {
                                                     '1213539' => {
                                                                    'pos' => '0'
                                                                  }
                                                   },
                                         'Header' => undef,
                                         'Line' => '97',
                                         'Memb' => {
                                                     '0' => {
                                                              'access' => 'private',
                                                              'name' => '_t',
                                                              'offset' => '0',
                                                              'type' => '1211989'
                                                            }
                                                   },
                                         'Name' => 'ts::NumericType<unsigned int, ts::CodeTag>',
                                         'NameSpace' => 'ts',
                                         'PrivateABI' => 1,
                                         'Size' => '4',
                                         'TParam' => {
                                                       '0' => {
                                                                'key' => 'T',
                                                                'type' => '7984'
                                                              },
                                                       '1' => {
                                                                'key' => 'X',
                                                                'type' => '1213994'
                                                              }
                                                     },
                                         'Type' => 'Class'
                                       },
                          '1211989' => {
                                         'BaseType' => '7984',
                                         'Header' => undef,
                                         'Line' => '100',
                                         'Name' => 'ts::NumericType<unsigned int, ts::CodeTag>::raw_type',
                                         'NameSpace' => 'ts::NumericType<unsigned int, ts::CodeTag>',
                                         'PrivateABI' => 1,
                                         'Size' => '4',
                                         'Type' => 'Typedef'
                                       },
                          '121279' => {
                                        'Base' => {
                                                    '41663' => {
                                                                 'pos' => '0'
                                                               }
                                                  },
                                        'Copied' => 1,
                                        'Header' => undef,
                                        'Line' => '48',
                                        'Name' => 'struct __gnu_cxx::__alloc_traits<std::allocator<char> >',
                                        'NameSpace' => '__gnu_cxx',
                                        'PrivateABI' => 1,
                                        'Size' => '1',
                                        'TParam' => {
                                                      '0' => {
                                                               'key' => '_Alloc',
                                                               'type' => '38645'
                                                             }
                                                    },
                                        'Type' => 'Struct'
                                      },
                          '1213290' => {
                                         'Copied' => 1,
                                         'Header' => undef,
                                         'Line' => '70',
                                         'Name' => 'ts::NumericTypeIntOperators<unsigned int, ts::MsgIdTag>',
                                         'NameSpace' => 'ts',
                                         'PrivateABI' => 1,
                                         'Size' => '1',
                                         'TParam' => {
                                                       '0' => {
                                                                'key' => 'T',
                                                                'type' => '7984'
                                                              },
                                                       '1' => {
                                                                'key' => 'X',
                                                                'type' => '1213989'
                                                              }
                                                     },
                                         'Type' => 'Class'
                                       },
                          '1213539' => {
                                         'Copied' => 1,
                                         'Header' => undef,
                                         'Line' => '70',
                                         'Name' => 'ts::NumericTypeIntOperators<unsigned int, ts::CodeTag>',
                                         'NameSpace' => 'ts',
                                         'PrivateABI' => 1,
                                         'Size' => '1',
                                         'TParam' => {
                                                       '0' => {
                                                                'key' => 'T',
                                                                'type' => '7984'
                                                              },
                                                       '1' => {
                                                                'key' => 'X',
                                                                'type' => '1213994'
                                                              }
                                                     },
                                         'Type' => 'Class'
                                       },
                          '1213989' => {
                                         'Name' => 'struct ts::MsgIdTag',
                                         'NameSpace' => 'ts',
                                         'PrivateABI' => 1,
                                         'Type' => 'Struct'
                                       },
                          '1213994' => {
                                         'Name' => 'struct ts::CodeTag',
                                         'NameSpace' => 'ts',
                                         'PrivateABI' => 1,
                                         'Type' => 'Struct'
                                       },
                          '1214035' => {
                                         'BaseType' => '1207830',
                                         'Name' => 'struct ts::Errata::Data*',
                                         'Size' => '8',
                                         'Type' => 'Pointer'
                                       },
                          '1214142' => {
                                         'BaseType' => '1211043',
                                         'Name' => 'ts::Errata const&',
                                         'Size' => '8',
                                         'Type' => 'Ref'
                                       },
                          '1214307' => {
                                         'BaseType' => '1208337',
                                         'Name' => 'struct ts::Errata::Message*',
                                         'Size' => '8',
                                         'Type' => 'Pointer'
                                       },
                          '1214378' => {
                                         'BaseType' => '1208337',
                                         'Name' => 'struct ts::Errata::Message&',
                                         'Size' => '8',
                                         'Type' => 'Ref'
                                       },
                          '121470' => {
                                        'BaseType' => '41677',
                                        'Header' => undef,
                                        'Line' => '57',
                                        'Name' => '__gnu_cxx::__alloc_traits<std::allocator<char> >::pointer',
                                        'NameSpace' => '__gnu_cxx::__alloc_traits<std::allocator<char> >',
                                        'PrivateABI' => 1,
                                        'Size' => '8',
                                        'Type' => 'Typedef'
                                      },
                          '121494' => {
                                        'BaseType' => '41740',
                                        'Header' => undef,
                                        'Line' => '59',
                                        'Name' => '__gnu_cxx::__alloc_traits<std::allocator<char> >::size_type',
                                        'NameSpace' => '__gnu_cxx::__alloc_traits<std::allocator<char> >',
                                        'PrivateABI' => 1,
                                        'Size' => '8',
                                        'Type' => 'Typedef'
                                      },
                          '133958' => {
                                        'BaseType' => '8012',
                                        'Header' => undef,
                                        'Line' => '32',
                                        'Name' => '_Atomic_word',
                                        'PrivateABI' => 1,
                                        'Size' => '4',
                                        'Type' => 'Typedef'
                                      },
                          '135884' => {
                                        'BaseType' => '9260',
                                        'Name' => 'char[16]',
                                        'Size' => '16',
                                        'Type' => 'Array'
                                      },
                          '135971' => {
                                        'BaseType' => '50310',
                                        'Name' => 'std::string const&',
                                        'Size' => '8',
                                        'Type' => 'Ref'
                                      },
                          '136229' => {
                                        'BaseType' => '53548',
                                        'Name' => 'struct std::_Rb_tree_node_base*',
                                        'Size' => '8',
                                        'Type' => 'Pointer'
                                      },
                          '140700' => {
                                        'BaseType' => '53463',
                                        'Name' => 'std::ostream&',
                                        'Size' => '8',
                                        'Type' => 'Ref'
                                      },
                          '2774861' => {
                                         'Header' => undef,
                                         'Line' => '349',
                                         'Memb' => {
                                                     '0' => {
                                                              'access' => 'protected',
                                                              'name' => '_M_impl',
                                                              'offset' => '0',
                                                              'type' => '2774874'
                                                            }
                                                   },
                                         'Name' => 'std::__cxx11::_List_base<std::pair<YAML::detail::node*, YAML::detail::node*>, std::allocator<std::pair<YAML::detail::node*, YAML::detail::node*> > >',
                                         'NameSpace' => 'std::__cxx11',
                                         'PrivateABI' => 1,
                                         'Size' => '24',
                                         'TParam' => {
                                                       '0' => {
                                                                'key' => '_Tp',
                                                                'type' => '2808235'
                                                              },
                                                       '1' => {
                                                                'key' => '_Alloc',
                                                                'type' => '2808571'
                                                              }
                                                     },
                                         'Type' => 'Class'
                                       },
                          '2774874' => {
                                         'Base' => {
                                                     '2814043' => {
                                                                    'pos' => '0'
                                                                  }
                                                   },
                                         'Header' => undef,
                                         'Line' => '374',
                                         'Memb' => {
                                                     '0' => {
                                                              'name' => '_M_node',
                                                              'offset' => '0',
                                                              'type' => '2780266'
                                                            }
                                                   },
                                         'Name' => 'struct std::__cxx11::_List_base<std::pair<YAML::detail::node*, YAML::detail::node*>, std::allocator<std::pair<YAML::detail::node*, YAML::detail::node*> > >::_List_impl',
                                         'NameSpace' => 'std::__cxx11::_List_base<std::pair<YAML::detail::node*, YAML::detail::node*>, std::allocator<std::pair<YAML::detail::node*, YAML::detail::node*> > >',
                                         'PrivateABI' => 1,
                                         'Protected' => 1,
                                         'Size' => '24',
                                         'Type' => 'Struct'
                                       },
                          '2775814' => {
                                         'Base' => {
                                                     '2774861' => {
                                                                    'access' => 'protected',
                                                                    'pos' => '0'
                                                                  }
                                                   },
                                         'Header' => undef,
                                         'Line' => '556',
                                         'Name' => 'std::__cxx11::list<std::pair<YAML::detail::node*, YAML::detail::node*> >',
                                         'NameSpace' => 'std::__cxx11',
                                         'PrivateABI' => 1,
                                         'Size' => '24',
                                         'TParam' => {
                                                       '0' => {
                                                                'key' => '_Tp',
                                                                'type' => '2808235'
                                                              }
                                                     },
                                         'Type' => 'Class'
                                       },
                          '2780079' => {
                                         'Copied' => 1,
                                         'Header' => undef,
                                         'Line' => '80',
                                         'Memb' => {
                                                     '0' => {
                                                              'name' => '_M_next',
                                                              'offset' => '0',
                                                              'type' => '2867208'
                                                            },
                                                     '1' => {
                                                              'name' => '_M_prev',
                                                              'offset' => '8',
                                                              'type' => '2867208'
                                                            }
                                                   },
                                         'Name' => 'struct std::__detail::_List_node_base',
                                         'NameSpace' => 'std::__detail',
                                         'PrivateABI' => 1,
                                         'Size' => '16',
                                         'Type' => 'Struct'
                                       },
                          '2780266' => {
                                         'Base' => {
                                                     '2780079' => {
                                                                    'pos' => '0'
                                                                  }
                                                   },
                                         'Header' => undef,
                                         'Line' => '103',
                                         'Memb' => {
                                                     '0' => {
                                                              'name' => '_M_size',
                                                              'offset' => '22',
                                                              'type' => '287'
                                                            }
                                                   },
                                         'Name' => 'struct std::__detail::_List_node_header',
                                         'NameSpace' => 'std::__detail',
                                         'PrivateABI' => 1,
                                         'Size' => '24',
                                         'Type' => 'Struct'
                                       },
                          '2791058' => {
                                         'Copied' => 1,
                                         'Header' => undef,
                                         'Line' => '103',
                                         'Name' => 'std::_Mutex_base<2>',
                                         'NameSpace' => 'std',
                                         'PrivateABI' => 1,
                                         'Size' => '1',
                                         'TParam' => {
                                                       '0' => {
                                                                'key' => '_Lp',
                                                                'type' => '8198',
                                                                'val' => '2'
                                                              }
                                                     },
                                         'Type' => 'Class'
                                       },
                          '2792984' => {
                                         'Copied' => 1,
                                         'Header' => undef,
                                         'Line' => '971',
                                         'Name' => 'std::__shared_ptr_access<YAML::detail::memory_holder, 2>',
                                         'NameSpace' => 'std',
                                         'PrivateABI' => 1,
                                         'Size' => '1',
                                         'TParam' => {
                                                       '0' => {
                                                                'key' => '_Tp',
                                                                'type' => '2859295'
                                                              },
                                                       '1' => {
                                                                'key' => '_Lp',
                                                                'type' => '8198',
                                                                'val' => '2'
                                                              }
                                                     },
                                         'Type' => 'Class'
                                       },
                          '2793131' => {
                                         'Header' => undef,
                                         'Line' => '1987',
                                         'Name' => 'struct std::remove_extent<YAML::detail::memory_holder>',
                                         'NameSpace' => 'std',
                                         'PrivateABI' => 1,
                                         'Size' => '1',
                                         'TParam' => {
                                                       '0' => {
                                                                'key' => '_Tp',
                                                                'type' => '2859295'
                                                              }
                                                     },
                                         'Type' => 'Struct'
                                       },
                          '2793145' => {
                                         'BaseType' => '2859295',
                                         'Header' => undef,
                                         'Line' => '1988',
                                         'Name' => 'std::remove_extent<YAML::detail::memory_holder>::type',
                                         'NameSpace' => 'std::remove_extent<YAML::detail::memory_holder>',
                                         'PrivateABI' => 1,
                                         'Size' => '16',
                                         'Type' => 'Typedef'
                                       },
                          '2793168' => {
                                         'Header' => undef,
                                         'Line' => '578',
                                         'Memb' => {
                                                     '0' => {
                                                              'access' => 'private',
                                                              'name' => '_M_pi',
                                                              'offset' => '0',
                                                              'type' => '2867623'
                                                            }
                                                   },
                                         'Name' => 'std::__shared_count<2>',
                                         'NameSpace' => 'std',
                                         'PrivateABI' => 1,
                                         'Size' => '8',
                                         'TParam' => {
                                                       '0' => {
                                                                'key' => '_Lp',
                                                                'type' => '8198',
                                                                'val' => '2'
                                                              }
                                                     },
                                         'Type' => 'Class'
                                       },
                          '2794073' => {
                                         'Base' => {
                                                     '2791058' => {
                                                                    'pos' => '0'
                                                                  }
                                                   },
                                         'Header' => undef,
                                         'Line' => '122',
                                         'Memb' => {
                                                     '0' => {
                                                              'name' => '_vptr',
                                                              'offset' => '0',
                                                              'type' => '853345'
                                                            },
                                                     '1' => {
                                                              'access' => 'private',
                                                              'name' => '_M_use_count',
                                                              'offset' => '8',
                                                              'type' => '133958'
                                                            },
                                                     '2' => {
                                                              'access' => 'private',
                                                              'name' => '_M_weak_count',
                                                              'offset' => '18',
                                                              'type' => '133958'
                                                            }
                                                   },
                                         'Name' => 'std::_Sp_counted_base<2>',
                                         'NameSpace' => 'std',
                                         'PrivateABI' => 1,
                                         'Size' => '16',
                                         'TParam' => {
                                                       '0' => {
                                                                'key' => '_Lp',
                                                                'type' => '8198',
                                                                'val' => '2'
                                                              }
                                                     },
                                         'Type' => 'Class'
                                       },
                          '2794584' => {
                                         'Base' => {
                                                     '2792984' => {
                                                                    'pos' => '0'
                                                                  }
                                                   },
                                         'Header' => undef,
                                         'Line' => '1052',
                                         'Memb' => {
                                                     '0' => {
                                                              'access' => 'private',
                                                              'name' => '_M_ptr',
                                                              'offset' => '0',
                                                              'type' => '2867658'
                                                            },
                                                     '1' => {
                                                              'access' => 'private',
                                                              'name' => '_M_refcount',
                                                              'offset' => '8',
                                                              'type' => '2793168'
                                                            }
                                                   },
                                         'Name' => 'std::__shared_ptr<YAML::detail::memory_holder, 2>',
                                         'NameSpace' => 'std',
                                         'PrivateABI' => 1,
                                         'Size' => '16',
                                         'TParam' => {
                                                       '0' => {
                                                                'key' => '_Tp',
                                                                'type' => '2859295'
                                                              },
                                                       '1' => {
                                                                'key' => '_Lp',
                                                                'type' => '8198',
                                                                'val' => '2'
                                                              }
                                                     },
                                         'Type' => 'Class'
                                       },
                          '2794864' => {
                                         'BaseType' => '2793145',
                                         'Header' => undef,
                                         'Line' => '1056',
                                         'Name' => 'std::__shared_ptr<YAML::detail::memory_holder, 2>::element_type',
                                         'NameSpace' => 'std::__shared_ptr<YAML::detail::memory_holder, 2>',
                                         'PrivateABI' => 1,
                                         'Size' => '16',
                                         'Type' => 'Typedef'
                                       },
                          '2795170' => {
                                         'Base' => {
                                                     '2794584' => {
                                                                    'pos' => '0'
                                                                  }
                                                   },
                                         'Header' => undef,
                                         'Line' => '122',
                                         'Name' => 'std::shared_ptr<YAML::detail::memory_holder>',
                                         'NameSpace' => 'std',
                                         'PrivateABI' => 1,
                                         'Size' => '16',
                                         'TParam' => {
                                                       '0' => {
                                                                'key' => '_Tp',
                                                                'type' => '2859295'
                                                              }
                                                     },
                                         'Type' => 'Class'
                                       },
                          '2795477' => {
                                         'Base' => {
                                                     '2833176' => {
                                                                    'pos' => '0'
                                                                  }
                                                   },
                                         'Header' => undef,
                                         'Line' => '122',
                                         'Name' => 'std::shared_ptr<YAML::detail::node>',
                                         'NameSpace' => 'std',
                                         'PrivateABI' => 1,
                                         'Size' => '16',
                                         'TParam' => {
                                                       '0' => {
                                                                'key' => '_Tp',
                                                                'type' => '2860306'
                                                              }
                                                     },
                                         'Type' => 'Class'
                                       },
                          '2795745' => {
                                         'Base' => {
                                                     '2844776' => {
                                                                    'pos' => '0'
                                                                  }
                                                   },
                                         'Header' => undef,
                                         'Line' => '124',
                                         'Name' => 'std::allocator<std::shared_ptr<YAML::detail::node> >',
                                         'NameSpace' => 'std',
                                         'PrivateABI' => 1,
                                         'Size' => '1',
                                         'TParam' => {
                                                       '0' => {
                                                                'type' => '2795477'
                                                              }
                                                     },
                                         'Type' => 'Class'
                                       },
                          '2796133' => {
                                         'Base' => {
                                                     '2845400' => {
                                                                    'pos' => '0'
                                                                  }
                                                   },
                                         'Header' => undef,
                                         'Line' => '124',
                                         'Name' => 'std::allocator<std::_Rb_tree_node<std::shared_ptr<YAML::detail::node> > >',
                                         'NameSpace' => 'std',
                                         'PrivateABI' => 1,
                                         'Size' => '1',
                                         'TParam' => {
                                                       '0' => {
                                                                'type' => '2796280'
                                                              }
                                                     },
                                         'Type' => 'Class'
                                       },
                          '2796280' => {
                                         'Base' => {
                                                     '53548' => {
                                                                  'pos' => '0'
                                                                }
                                                   },
                                         'Copied' => 1,
                                         'Header' => undef,
                                         'Line' => '216',
                                         'Memb' => {
                                                     '0' => {
                                                              'name' => '_M_storage',
                                                              'offset' => '50',
                                                              'type' => '2851958'
                                                            }
                                                   },
                                         'Name' => 'struct std::_Rb_tree_node<std::shared_ptr<YAML::detail::node> >',
                                         'NameSpace' => 'std',
                                         'PrivateABI' => 1,
                                         'Size' => '48',
                                         'TParam' => {
                                                       '0' => {
                                                                'key' => '_Val',
                                                                'type' => '2795477'
                                                              }
                                                     },
                                         'Type' => 'Struct'
                                       },
                          '2796386' => {
                                         'Header' => undef,
                                         'Line' => '131',
                                         'Name' => 'struct std::binary_function<std::shared_ptr<YAML::detail::node>, std::shared_ptr<YAML::detail::node>, bool>',
                                         'NameSpace' => 'std',
                                         'PrivateABI' => 1,
                                         'Size' => '1',
                                         'TParam' => {
                                                       '0' => {
                                                                'key' => '_Arg1',
                                                                'type' => '2795477'
                                                              },
                                                       '1' => {
                                                                'key' => '_Arg2',
                                                                'type' => '2795477'
                                                              },
                                                       '2' => {
                                                                'key' => '_Result',
                                                                'type' => '7936'
                                                              }
                                                     },
                                         'Type' => 'Struct'
                                       },
                          '2796427' => {
                                         'Base' => {
                                                     '2796386' => {
                                                                    'pos' => '0'
                                                                  }
                                                   },
                                         'Copied' => 1,
                                         'Header' => undef,
                                         'Line' => '395',
                                         'Name' => 'struct std::less<std::shared_ptr<YAML::detail::node> >',
                                         'NameSpace' => 'std',
                                         'PrivateABI' => 1,
                                         'Size' => '1',
                                         'TParam' => {
                                                       '0' => {
                                                                'key' => '_Tp',
                                                                'type' => '2795477'
                                                              }
                                                     },
                                         'Type' => 'Struct'
                                       },
                          '2796503' => {
                                         'Header' => undef,
                                         'Line' => '142',
                                         'Memb' => {
                                                     '0' => {
                                                              'name' => '_M_key_compare',
                                                              'offset' => '0',
                                                              'type' => '2796427'
                                                            }
                                                   },
                                         'Name' => 'struct std::_Rb_tree_key_compare<std::less<std::shared_ptr<YAML::detail::node> > >',
                                         'NameSpace' => 'std',
                                         'PrivateABI' => 1,
                                         'Size' => '1',
                                         'TParam' => {
                                                       '0' => {
                                                                'key' => '_Key_compare',
                                                                'type' => '2796427'
                                                              }
                                                     },
                                         'Type' => 'Struct'
                                       },
                          '2796663' => {
                                         'Header' => undef,
                                         'Line' => '425',
                                         'Memb' => {
                                                     '0' => {
                                                              'access' => 'protected',
                                                              'name' => '_M_impl',
                                                              'offset' => '0',
                                                              'type' => '2796676'
                                                            }
                                                   },
                                         'Name' => 'std::_Rb_tree<std::shared_ptr<YAML::detail::node>, std::shared_ptr<YAML::detail::node>, std::_Identity<std::shared_ptr<YAML::detail::node> >, std::less<std::shared_ptr<YAML::detail::node> >, std::allocator<std::shared_ptr<YAML::detail::node> > >',
                                         'NameSpace' => 'std',
                                         'PrivateABI' => 1,
                                         'Size' => '48',
                                         'TParam' => {
                                                       '0' => {
                                                                'key' => '_Key',
                                                                'type' => '2795477'
                                                              },
                                                       '1' => {
                                                                'key' => '_Val',
                                                                'type' => '2795477'
                                                              },
                                                       '2' => {
                                                                'key' => '_KeyOfValue',
                                                                'type' => '2839000'
                                                              },
                                                       '3' => {
                                                                'key' => '_Compare',
                                                                'type' => '2796427'
                                                              },
                                                       '4' => {
                                                                'key' => '_Alloc',
                                                                'type' => '2795745'
                                                              }
                                                     },
                                         'Type' => 'Class'
                                       },
                          '2796676' => {
                                         'Base' => {
                                                     '2796133' => {
                                                                    'pos' => '0'
                                                                  },
                                                     '2796503' => {
                                                                    'pos' => '1'
                                                                  },
                                                     '53743' => {
                                                                  'pos' => '2'
                                                                }
                                                   },
                                         'Header' => undef,
                                         'Line' => '660',
                                         'Name' => 'struct std::_Rb_tree<std::shared_ptr<YAML::detail::node>, std::shared_ptr<YAML::detail::node>, std::_Identity<std::shared_ptr<YAML::detail::node> >, std::less<std::shared_ptr<YAML::detail::node> >, std::allocator<std::shared_ptr<YAML::detail::node> > >::_Rb_tree_impl<std::less<std::shared_ptr<YAML::detail::node> > >',
                                         'NameSpace' => 'std::_Rb_tree<std::shared_ptr<YAML::detail::node>, std::shared_ptr<YAML::detail::node>, std::_Identity<std::shared_ptr<YAML::detail::node> >, std::less<std::shared_ptr<YAML::detail::node> >, std::allocator<std::shared_ptr<YAML::detail::node> > >',
                                         'PrivateABI' => 1,
                                         'Protected' => 1,
                                         'Size' => '48',
                                         'TParam' => {
                                                       '0' => {
                                                                'key' => '_Key_compare',
                                                                'type' => '2796427'
                                                              }
                                                     },
                                         'Type' => 'Struct'
                                       },
                          '2800505' => {
                                         'Header' => undef,
                                         'Line' => '94',
                                         'Memb' => {
                                                     '0' => {
                                                              'access' => 'private',
                                                              'name' => '_M_t',
                                                              'offset' => '0',
                                                              'type' => '2800518'
                                                            }
                                                   },
                                         'Name' => 'std::set<std::shared_ptr<YAML::detail::node> >',
                                         'NameSpace' => 'std',
                                         'PrivateABI' => 1,
                                         'Size' => '48',
                                         'TParam' => {
                                                       '0' => {
                                                                'key' => '_Key',
                                                                'type' => '2795477'
                                                              }
                                                     },
                                         'Type' => 'Class'
                                       },
                          '2800518' => {
                                         'BaseType' => '2796663',
                                         'Header' => undef,
                                         'Line' => '132',
                                         'Name' => 'std::set<std::shared_ptr<YAML::detail::node> >::_Rep_type',
                                         'NameSpace' => 'std::set<std::shared_ptr<YAML::detail::node> >',
                                         'Private' => 1,
                                         'PrivateABI' => 1,
                                         'Size' => '48',
                                         'Type' => 'Typedef'
                                       },
                          '2802484' => {
                                         'Copied' => 1,
                                         'Header' => undef,
                                         'Line' => '971',
                                         'Name' => 'std::__shared_ptr_access<YAML::detail::memory, 2>',
                                         'NameSpace' => 'std',
                                         'PrivateABI' => 1,
                                         'Size' => '1',
                                         'TParam' => {
                                                       '0' => {
                                                                'key' => '_Tp',
                                                                'type' => '2861422'
                                                              },
                                                       '1' => {
                                                                'key' => '_Lp',
                                                                'type' => '8198',
                                                                'val' => '2'
                                                              }
                                                     },
                                         'Type' => 'Class'
                                       },
                          '2802631' => {
                                         'Header' => undef,
                                         'Line' => '1987',
                                         'Name' => 'struct std::remove_extent<YAML::detail::memory>',
                                         'NameSpace' => 'std',
                                         'PrivateABI' => 1,
                                         'Size' => '1',
                                         'TParam' => {
                                                       '0' => {
                                                                'key' => '_Tp',
                                                                'type' => '2861422'
                                                              }
                                                     },
                                         'Type' => 'Struct'
                                       },
                          '2802645' => {
                                         'BaseType' => '2861422',
                                         'Header' => undef,
                                         'Line' => '1988',
                                         'Name' => 'std::remove_extent<YAML::detail::memory>::type',
                                         'NameSpace' => 'std::remove_extent<YAML::detail::memory>',
                                         'PrivateABI' => 1,
                                         'Size' => '48',
                                         'Type' => 'Typedef'
                                       },
                          '2802668' => {
                                         'Base' => {
                                                     '2802484' => {
                                                                    'pos' => '0'
                                                                  }
                                                   },
                                         'Header' => undef,
                                         'Line' => '1052',
                                         'Memb' => {
                                                     '0' => {
                                                              'access' => 'private',
                                                              'name' => '_M_ptr',
                                                              'offset' => '0',
                                                              'type' => '2868075'
                                                            },
                                                     '1' => {
                                                              'access' => 'private',
                                                              'name' => '_M_refcount',
                                                              'offset' => '8',
                                                              'type' => '2793168'
                                                            }
                                                   },
                                         'Name' => 'std::__shared_ptr<YAML::detail::memory, 2>',
                                         'NameSpace' => 'std',
                                         'PrivateABI' => 1,
                                         'Size' => '16',
                                         'TParam' => {
                                                       '0' => {
                                                                'key' => '_Tp',
                                                                'type' => '2861422'
                                                              },
                                                       '1' => {
                                                                'key' => '_Lp',
                                                                'type' => '8198',
                                                                'val' => '2'
                                                              }
                                                     },
                                         'Type' => 'Class'
                                       },
                          '2802948' => {
                                         'BaseType' => '2802645',
                                         'Header' => undef,
                                         'Line' => '1056',
                                         'Name' => 'std::__shared_ptr<YAML::detail::memory, 2>::element_type',
                                         'NameSpace' => 'std::__shared_ptr<YAML::detail::memory, 2>',
                                         'PrivateABI' => 1,
                                         'Size' => '48',
                                         'Type' => 'Typedef'
                                       },
                          '2803254' => {
                                         'Base' => {
                                                     '2802668' => {
                                                                    'pos' => '0'
                                                                  }
                                                   },
                                         'Header' => undef,
                                         'Line' => '122',
                                         'Name' => 'std::shared_ptr<YAML::detail::memory>',
                                         'NameSpace' => 'std',
                                         'PrivateABI' => 1,
                                         'Size' => '16',
                                         'TParam' => {
                                                       '0' => {
                                                                'key' => '_Tp',
                                                                'type' => '2861422'
                                                              }
                                                     },
                                         'Type' => 'Class'
                                       },
                          '2803532' => {
                                         'Base' => {
                                                     '2845795' => {
                                                                    'pos' => '0'
                                                                  }
                                                   },
                                         'Header' => undef,
                                         'Line' => '124',
                                         'Name' => 'std::allocator<YAML::detail::node*>',
                                         'NameSpace' => 'std',
                                         'PrivateABI' => 1,
                                         'Size' => '1',
                                         'TParam' => {
                                                       '0' => {
                                                                'type' => '2867760'
                                                              }
                                                     },
                                         'Type' => 'Class'
                                       },
                          '2803679' => {
                                         'Copied' => 1,
                                         'Header' => undef,
                                         'Line' => '411',
                                         'Name' => 'struct std::allocator_traits<std::allocator<YAML::detail::node*> >',
                                         'NameSpace' => 'std',
                                         'PrivateABI' => 1,
                                         'Size' => '1',
                                         'TParam' => {
                                                       '0' => {
                                                                'type' => '2803532'
                                                              }
                                                     },
                                         'Type' => 'Struct'
                                       },
                          '2803693' => {
                                         'BaseType' => '2868135',
                                         'Header' => undef,
                                         'Line' => '420',
                                         'Name' => 'std::allocator_traits<std::allocator<YAML::detail::node*> >::pointer',
                                         'NameSpace' => 'std::allocator_traits<std::allocator<YAML::detail::node*> >',
                                         'PrivateABI' => 1,
                                         'Size' => '8',
                                         'Type' => 'Typedef'
                                       },
                          '2803946' => {
                                         'Header' => undef,
                                         'Line' => '84',
                                         'Memb' => {
                                                     '0' => {
                                                              'name' => '_M_impl',
                                                              'offset' => '0',
                                                              'type' => '2804144'
                                                            }
                                                   },
                                         'Name' => 'struct std::_Vector_base<YAML::detail::node*, std::allocator<YAML::detail::node*> >',
                                         'NameSpace' => 'std',
                                         'PrivateABI' => 1,
                                         'Size' => '24',
                                         'TParam' => {
                                                       '0' => {
                                                                'key' => '_Tp',
                                                                'type' => '2867760'
                                                              },
                                                       '1' => {
                                                                'key' => '_Alloc',
                                                                'type' => '2803532'
                                                              }
                                                     },
                                         'Type' => 'Struct'
                                       },
                          '2803959' => {
                                         'Header' => undef,
                                         'Line' => '91',
                                         'Memb' => {
                                                     '0' => {
                                                              'name' => '_M_start',
                                                              'offset' => '0',
                                                              'type' => '2804132'
                                                            },
                                                     '1' => {
                                                              'name' => '_M_finish',
                                                              'offset' => '8',
                                                              'type' => '2804132'
                                                            },
                                                     '2' => {
                                                              'name' => '_M_end_of_storage',
                                                              'offset' => '22',
                                                              'type' => '2804132'
                                                            }
                                                   },
                                         'Name' => 'struct std::_Vector_base<YAML::detail::node*, std::allocator<YAML::detail::node*> >::_Vector_impl_data',
                                         'NameSpace' => 'std::_Vector_base<YAML::detail::node*, std::allocator<YAML::detail::node*> >',
                                         'PrivateABI' => 1,
                                         'Size' => '24',
                                         'Type' => 'Struct'
                                       },
                          '2804132' => {
                                         'BaseType' => '2846391',
                                         'Header' => undef,
                                         'Line' => '89',
                                         'Name' => 'std::_Vector_base<YAML::detail::node*, std::allocator<YAML::detail::node*> >::pointer',
                                         'NameSpace' => 'std::_Vector_base<YAML::detail::node*, std::allocator<YAML::detail::node*> >',
                                         'PrivateABI' => 1,
                                         'Size' => '8',
                                         'Type' => 'Typedef'
                                       },
                          '2804144' => {
                                         'Base' => {
                                                     '2803532' => {
                                                                    'pos' => '0'
                                                                  },
                                                     '2803959' => {
                                                                    'pos' => '1'
                                                                  }
                                                   },
                                         'Header' => undef,
                                         'Line' => '128',
                                         'Name' => 'struct std::_Vector_base<YAML::detail::node*, std::allocator<YAML::detail::node*> >::_Vector_impl',
                                         'NameSpace' => 'std::_Vector_base<YAML::detail::node*, std::allocator<YAML::detail::node*> >',
                                         'PrivateABI' => 1,
                                         'Size' => '24',
                                         'Type' => 'Struct'
                                       },
                          '2804891' => {
                                         'Base' => {
                                                     '2803946' => {
                                                                    'access' => 'protected',
                                                                    'pos' => '0'
                                                                  }
                                                   },
                                         'Header' => undef,
                                         'Line' => '389',
                                         'Name' => 'std::vector<YAML::detail::node*>',
                                         'NameSpace' => 'std',
                                         'PrivateABI' => 1,
                                         'Size' => '24',
                                         'TParam' => {
                                                       '0' => {
                                                                'key' => '_Tp',
                                                                'type' => '2867760'
                                                              }
                                                     },
                                         'Type' => 'Class'
                                       },
                          '2808235' => {
                                         'Base' => {
                                                     '2813191' => {
                                                                    'access' => 'private',
                                                                    'pos' => '0'
                                                                  }
                                                   },
                                         'Header' => undef,
                                         'Line' => '211',
                                         'Memb' => {
                                                     '0' => {
                                                              'name' => 'first',
                                                              'offset' => '0',
                                                              'type' => '2867760'
                                                            },
                                                     '1' => {
                                                              'name' => 'second',
                                                              'offset' => '8',
                                                              'type' => '2867760'
                                                            }
                                                   },
                                         'Name' => 'struct std::pair<YAML::detail::node*, YAML::detail::node*>',
                                         'NameSpace' => 'std',
                                         'PrivateABI' => 1,
                                         'Size' => '16',
                                         'TParam' => {
                                                       '0' => {
                                                                'key' => '_T1',
                                                                'type' => '2867760'
                                                              },
                                                       '1' => {
                                                                'key' => '_T2',
                                                                'type' => '2867760'
                                                              }
                                                     },
                                         'Type' => 'Struct'
                                       },
                          '2808571' => {
                                         'Base' => {
                                                     '2847649' => {
                                                                    'pos' => '0'
                                                                  }
                                                   },
                                         'Header' => undef,
                                         'Line' => '124',
                                         'Name' => 'std::allocator<std::pair<YAML::detail::node*, YAML::detail::node*> >',
                                         'NameSpace' => 'std',
                                         'PrivateABI' => 1,
                                         'Size' => '1',
                                         'TParam' => {
                                                       '0' => {
                                                                'type' => '2808235'
                                                              }
                                                     },
                                         'Type' => 'Class'
                                       },
                          '2808718' => {
                                         'Copied' => 1,
                                         'Header' => undef,
                                         'Line' => '411',
                                         'Name' => 'struct std::allocator_traits<std::allocator<std::pair<YAML::detail::node*, YAML::detail::node*> > >',
                                         'NameSpace' => 'std',
                                         'PrivateABI' => 1,
                                         'Size' => '1',
                                         'TParam' => {
                                                       '0' => {
                                                                'type' => '2808571'
                                                              }
                                                     },
                                         'Type' => 'Struct'
                                       },
                          '2808732' => {
                                         'BaseType' => '2868330',
                                         'Header' => undef,
                                         'Line' => '420',
                                         'Name' => 'std::allocator_traits<std::allocator<std::pair<YAML::detail::node*, YAML::detail::node*> > >::pointer',
                                         'NameSpace' => 'std::allocator_traits<std::allocator<std::pair<YAML::detail::node*, YAML::detail::node*> > >',
                                         'PrivateABI' => 1,
                                         'Size' => '8',
                                         'Type' => 'Typedef'
                                       },
                          '2808985' => {
                                         'Header' => undef,
                                         'Line' => '84',
                                         'Memb' => {
                                                     '0' => {
                                                              'name' => '_M_impl',
                                                              'offset' => '0',
                                                              'type' => '2809183'
                                                            }
                                                   },
                                         'Name' => 'struct std::_Vector_base<std::pair<YAML::detail::node*, YAML::detail::node*>, std::allocator<std::pair<YAML::detail::node*, YAML::detail::node*> > >',
                                         'NameSpace' => 'std',
                                         'PrivateABI' => 1,
                                         'Size' => '24',
                                         'TParam' => {
                                                       '0' => {
                                                                'key' => '_Tp',
                                                                'type' => '2808235'
                                                              },
                                                       '1' => {
                                                                'key' => '_Alloc',
                                                                'type' => '2808571'
                                                              }
                                                     },
                                         'Type' => 'Struct'
                                       },
                          '2808998' => {
                                         'Header' => undef,
                                         'Line' => '91',
                                         'Memb' => {
                                                     '0' => {
                                                              'name' => '_M_start',
                                                              'offset' => '0',
                                                              'type' => '2809171'
                                                            },
                                                     '1' => {
                                                              'name' => '_M_finish',
                                                              'offset' => '8',
                                                              'type' => '2809171'
                                                            },
                                                     '2' => {
                                                              'name' => '_M_end_of_storage',
                                                              'offset' => '22',
                                                              'type' => '2809171'
                                                            }
                                                   },
                                         'Name' => 'struct std::_Vector_base<std::pair<YAML::detail::node*, YAML::detail::node*>, std::allocator<std::pair<YAML::detail::node*, YAML::detail::node*> > >::_Vector_impl_data',
                                         'NameSpace' => 'std::_Vector_base<std::pair<YAML::detail::node*, YAML::detail::node*>, std::allocator<std::pair<YAML::detail::node*, YAML::detail::node*> > >',
                                         'PrivateABI' => 1,
                                         'Size' => '24',
                                         'Type' => 'Struct'
                                       },
                          '2809171' => {
                                         'BaseType' => '2848245',
                                         'Header' => undef,
                                         'Line' => '89',
                                         'Name' => 'std::_Vector_base<std::pair<YAML::detail::node*, YAML::detail::node*>, std::allocator<std::pair<YAML::detail::node*, YAML::detail::node*> > >::pointer',
                                         'NameSpace' => 'std::_Vector_base<std::pair<YAML::detail::node*, YAML::detail::node*>, std::allocator<std::pair<YAML::detail::node*, YAML::detail::node*> > >',
                                         'PrivateABI' => 1,
                                         'Size' => '8',
                                         'Type' => 'Typedef'
                                       },
                          '2809183' => {
                                         'Base' => {
                                                     '2808571' => {
                                                                    'pos' => '0'
                                                                  },
                                                     '2808998' => {
                                                                    'pos' => '1'
                                                                  }
                                                   },
                                         'Header' => undef,
                                         'Line' => '128',
                                         'Name' => 'struct std::_Vector_base<std::pair<YAML::detail::node*, YAML::detail::node*>, std::allocator<std::pair<YAML::detail::node*, YAML::detail::node*> > >::_Vector_impl',
                                         'NameSpace' => 'std::_Vector_base<std::pair<YAML::detail::node*, YAML::detail::node*>, std::allocator<std::pair<YAML::detail::node*, YAML::detail::node*> > >',
                                         'PrivateABI' => 1,
                                         'Size' => '24',
                                         'Type' => 'Struct'
                                       },
                          '2809930' => {
                                         'Base' => {
                                                     '2808985' => {
                                                                    'access' => 'protected',
                                                                    'pos' => '0'
                                                                  }
                                                   },
                                         'Header' => undef,
                                         'Line' => '389',
                                         'Name' => 'std::vector<std::pair<YAML::detail::node*, YAML::detail::node*> >',
                                         'NameSpace' => 'std',
                                         'PrivateABI' => 1,
                                         'Size' => '24',
                                         'TParam' => {
                                                       '0' => {
                                                                'key' => '_Tp',
                                                                'type' => '2808235'
                                                              }
                                                     },
                                         'Type' => 'Class'
                                       },
                          '2813191' => {
                                         'Header' => undef,
                                         'Line' => '189',
                                         'Name' => 'std::__pair_base<YAML::detail::node*, YAML::detail::node*>',
                                         'NameSpace' => 'std',
                                         'PrivateABI' => 1,
                                         'Size' => '1',
                                         'TParam' => {
                                                       '0' => {
                                                                'key' => '_U1',
                                                                'type' => '2867760'
                                                              },
                                                       '1' => {
                                                                'key' => '_U2',
                                                                'type' => '2867760'
                                                              }
                                                     },
                                         'Type' => 'Class'
                                       },
                          '2814043' => {
                                         'Base' => {
                                                     '2849503' => {
                                                                    'pos' => '0'
                                                                  }
                                                   },
                                         'Header' => undef,
                                         'Line' => '124',
                                         'Name' => 'std::allocator<std::_List_node<std::pair<YAML::detail::node*, YAML::detail::node*> > >',
                                         'NameSpace' => 'std',
                                         'PrivateABI' => 1,
                                         'Size' => '1',
                                         'TParam' => {
                                                       '0' => {
                                                                'type' => '2814190'
                                                              }
                                                     },
                                         'Type' => 'Class'
                                       },
                          '2814190' => {
                                         'Base' => {
                                                     '2780079' => {
                                                                    'pos' => '0'
                                                                  }
                                                   },
                                         'Copied' => 1,
                                         'Header' => undef,
                                         'Line' => '166',
                                         'Memb' => {
                                                     '0' => {
                                                              'name' => '_M_storage',
                                                              'offset' => '22',
                                                              'type' => '2852570'
                                                            }
                                                   },
                                         'Name' => 'struct std::_List_node<std::pair<YAML::detail::node*, YAML::detail::node*> >',
                                         'NameSpace' => 'std',
                                         'PrivateABI' => 1,
                                         'Size' => '32',
                                         'TParam' => {
                                                       '0' => {
                                                                'key' => '_Tp',
                                                                'type' => '2808235'
                                                              }
                                                     },
                                         'Type' => 'Struct'
                                       },
                          '2815282' => {
                                         'Copied' => 1,
                                         'Header' => undef,
                                         'Line' => '971',
                                         'Name' => 'std::__shared_ptr_access<YAML::detail::node_data, 2>',
                                         'NameSpace' => 'std',
                                         'PrivateABI' => 1,
                                         'Size' => '1',
                                         'TParam' => {
                                                       '0' => {
                                                                'key' => '_Tp',
                                                                'type' => '2862371'
                                                              },
                                                       '1' => {
                                                                'key' => '_Lp',
                                                                'type' => '8198',
                                                                'val' => '2'
                                                              }
                                                     },
                                         'Type' => 'Class'
                                       },
                          '2815429' => {
                                         'Header' => undef,
                                         'Line' => '1987',
                                         'Name' => 'struct std::remove_extent<YAML::detail::node_data>',
                                         'NameSpace' => 'std',
                                         'PrivateABI' => 1,
                                         'Size' => '1',
                                         'TParam' => {
                                                       '0' => {
                                                                'key' => '_Tp',
                                                                'type' => '2862371'
                                                              }
                                                     },
                                         'Type' => 'Struct'
                                       },
                          '2815443' => {
                                         'BaseType' => '2862371',
                                         'Header' => undef,
                                         'Line' => '1988',
                                         'Name' => 'std::remove_extent<YAML::detail::node_data>::type',
                                         'NameSpace' => 'std::remove_extent<YAML::detail::node_data>',
                                         'PrivateABI' => 1,
                                         'Size' => '176',
                                         'Type' => 'Typedef'
                                       },
                          '2815466' => {
                                         'Base' => {
                                                     '2815282' => {
                                                                    'pos' => '0'
                                                                  }
                                                   },
                                         'Header' => undef,
                                         'Line' => '1052',
                                         'Memb' => {
                                                     '0' => {
                                                              'access' => 'private',
                                                              'name' => '_M_ptr',
                                                              'offset' => '0',
                                                              'type' => '2868915'
                                                            },
                                                     '1' => {
                                                              'access' => 'private',
                                                              'name' => '_M_refcount',
                                                              'offset' => '8',
                                                              'type' => '2793168'
                                                            }
                                                   },
                                         'Name' => 'std::__shared_ptr<YAML::detail::node_data, 2>',
                                         'NameSpace' => 'std',
                                         'PrivateABI' => 1,
                                         'Size' => '16',
                                         'TParam' => {
                                                       '0' => {
                                                                'key' => '_Tp',
                                                                'type' => '2862371'
                                                              },
                                                       '1' => {
                                                                'key' => '_Lp',
                                                                'type' => '8198',
                                                                'val' => '2'
                                                              }
                                                     },
                                         'Type' => 'Class'
                                       },
                          '2815746' => {
                                         'BaseType' => '2815443',
                                         'Header' => undef,
                                         'Line' => '1056',
                                         'Name' => 'std::__shared_ptr<YAML::detail::node_data, 2>::element_type',
                                         'NameSpace' => 'std::__shared_ptr<YAML::detail::node_data, 2>',
                                         'PrivateABI' => 1,
                                         'Size' => '176',
                                         'Type' => 'Typedef'
                                       },
                          '2816052' => {
                                         'Base' => {
                                                     '2815466' => {
                                                                    'pos' => '0'
                                                                  }
                                                   },
                                         'Header' => undef,
                                         'Line' => '122',
                                         'Name' => 'std::shared_ptr<YAML::detail::node_data>',
                                         'NameSpace' => 'std',
                                         'PrivateABI' => 1,
                                         'Size' => '16',
                                         'TParam' => {
                                                       '0' => {
                                                                'key' => '_Tp',
                                                                'type' => '2862371'
                                                              }
                                                     },
                                         'Type' => 'Class'
                                       },
                          '2816489' => {
                                         'Copied' => 1,
                                         'Header' => undef,
                                         'Line' => '971',
                                         'Name' => 'std::__shared_ptr_access<YAML::detail::node_ref, 2>',
                                         'NameSpace' => 'std',
                                         'PrivateABI' => 1,
                                         'Size' => '1',
                                         'TParam' => {
                                                       '0' => {
                                                                'key' => '_Tp',
                                                                'type' => '2864067'
                                                              },
                                                       '1' => {
                                                                'key' => '_Lp',
                                                                'type' => '8198',
                                                                'val' => '2'
                                                              }
                                                     },
                                         'Type' => 'Class'
                                       },
                          '2816636' => {
                                         'Header' => undef,
                                         'Line' => '1987',
                                         'Name' => 'struct std::remove_extent<YAML::detail::node_ref>',
                                         'NameSpace' => 'std',
                                         'PrivateABI' => 1,
                                         'Size' => '1',
                                         'TParam' => {
                                                       '0' => {
                                                                'key' => '_Tp',
                                                                'type' => '2864067'
                                                              }
                                                     },
                                         'Type' => 'Struct'
                                       },
                          '2816650' => {
                                         'BaseType' => '2864067',
                                         'Header' => undef,
                                         'Line' => '1988',
                                         'Name' => 'std::remove_extent<YAML::detail::node_ref>::type',
                                         'NameSpace' => 'std::remove_extent<YAML::detail::node_ref>',
                                         'PrivateABI' => 1,
                                         'Size' => '16',
                                         'Type' => 'Typedef'
                                       },
                          '2816673' => {
                                         'Base' => {
                                                     '2816489' => {
                                                                    'pos' => '0'
                                                                  }
                                                   },
                                         'Header' => undef,
                                         'Line' => '1052',
                                         'Memb' => {
                                                     '0' => {
                                                              'access' => 'private',
                                                              'name' => '_M_ptr',
                                                              'offset' => '0',
                                                              'type' => '2869090'
                                                            },
                                                     '1' => {
                                                              'access' => 'private',
                                                              'name' => '_M_refcount',
                                                              'offset' => '8',
                                                              'type' => '2793168'
                                                            }
                                                   },
                                         'Name' => 'std::__shared_ptr<YAML::detail::node_ref, 2>',
                                         'NameSpace' => 'std',
                                         'PrivateABI' => 1,
                                         'Size' => '16',
                                         'TParam' => {
                                                       '0' => {
                                                                'key' => '_Tp',
                                                                'type' => '2864067'
                                                              },
                                                       '1' => {
                                                                'key' => '_Lp',
                                                                'type' => '8198',
                                                                'val' => '2'
                                                              }
                                                     },
                                         'Type' => 'Class'
                                       },
                          '2816953' => {
                                         'BaseType' => '2816650',
                                         'Header' => undef,
                                         'Line' => '1056',
                                         'Name' => 'std::__shared_ptr<YAML::detail::node_ref, 2>::element_type',
                                         'NameSpace' => 'std::__shared_ptr<YAML::detail::node_ref, 2>',
                                         'PrivateABI' => 1,
                                         'Size' => '16',
                                         'Type' => 'Typedef'
                                       },
                          '2817259' => {
                                         'Base' => {
                                                     '2816673' => {
                                                                    'pos' => '0'
                                                                  }
                                                   },
                                         'Header' => undef,
                                         'Line' => '122',
                                         'Name' => 'std::shared_ptr<YAML::detail::node_ref>',
                                         'NameSpace' => 'std',
                                         'PrivateABI' => 1,
                                         'Size' => '16',
                                         'TParam' => {
                                                       '0' => {
                                                                'key' => '_Tp',
                                                                'type' => '2864067'
                                                              }
                                                     },
                                         'Type' => 'Class'
                                       },
                          '2817537' => {
                                         'Base' => {
                                                     '2850104' => {
                                                                    'pos' => '0'
                                                                  }
                                                   },
                                         'Header' => undef,
                                         'Line' => '124',
                                         'Name' => 'std::allocator<std::_Rb_tree_node<YAML::detail::node*> >',
                                         'NameSpace' => 'std',
                                         'PrivateABI' => 1,
                                         'Size' => '1',
                                         'TParam' => {
                                                       '0' => {
                                                                'type' => '2817716'
                                                              }
                                                     },
                                         'Type' => 'Class'
                                       },
                          '2817716' => {
                                         'Base' => {
                                                     '53548' => {
                                                                  'pos' => '0'
                                                                }
                                                   },
                                         'Copied' => 1,
                                         'Header' => undef,
                                         'Line' => '216',
                                         'Memb' => {
                                                     '0' => {
                                                              'name' => '_M_storage',
                                                              'offset' => '50',
                                                              'type' => '2851715'
                                                            }
                                                   },
                                         'Name' => 'struct std::_Rb_tree_node<YAML::detail::node*>',
                                         'NameSpace' => 'std',
                                         'PrivateABI' => 1,
                                         'Size' => '40',
                                         'TParam' => {
                                                       '0' => {
                                                                'key' => '_Val',
                                                                'type' => '2867760'
                                                              }
                                                     },
                                         'Type' => 'Struct'
                                       },
                          '2817822' => {
                                         'Header' => undef,
                                         'Line' => '131',
                                         'Name' => 'struct std::binary_function<YAML::detail::node*, YAML::detail::node*, bool>',
                                         'NameSpace' => 'std',
                                         'PrivateABI' => 1,
                                         'Size' => '1',
                                         'TParam' => {
                                                       '0' => {
                                                                'key' => '_Arg1',
                                                                'type' => '2867760'
                                                              },
                                                       '1' => {
                                                                'key' => '_Arg2',
                                                                'type' => '2867760'
                                                              },
                                                       '2' => {
                                                                'key' => '_Result',
                                                                'type' => '7936'
                                                              }
                                                     },
                                         'Type' => 'Struct'
                                       },
                          '2817863' => {
                                         'Base' => {
                                                     '2817822' => {
                                                                    'pos' => '0'
                                                                  }
                                                   },
                                         'Copied' => 1,
                                         'Header' => undef,
                                         'Line' => '444',
                                         'Name' => 'struct std::less<YAML::detail::node*>',
                                         'NameSpace' => 'std',
                                         'PrivateABI' => 1,
                                         'Size' => '1',
                                         'TParam' => {
                                                       '0' => {
                                                                'key' => '_Tp',
                                                                'type' => '2867760'
                                                              }
                                                     },
                                         'Type' => 'Struct'
                                       },
                          '2817939' => {
                                         'Header' => undef,
                                         'Line' => '142',
                                         'Memb' => {
                                                     '0' => {
                                                              'name' => '_M_key_compare',
                                                              'offset' => '0',
                                                              'type' => '2817863'
                                                            }
                                                   },
                                         'Name' => 'struct std::_Rb_tree_key_compare<std::less<YAML::detail::node*> >',
                                         'NameSpace' => 'std',
                                         'PrivateABI' => 1,
                                         'Size' => '1',
                                         'TParam' => {
                                                       '0' => {
                                                                'key' => '_Key_compare',
                                                                'type' => '2817863'
                                                              }
                                                     },
                                         'Type' => 'Struct'
                                       },
                          '2818099' => {
                                         'Header' => undef,
                                         'Line' => '425',
                                         'Memb' => {
                                                     '0' => {
                                                              'access' => 'protected',
                                                              'name' => '_M_impl',
                                                              'offset' => '0',
                                                              'type' => '2818112'
                                                            }
                                                   },
                                         'Name' => 'std::_Rb_tree<YAML::detail::node*, YAML::detail::node*, std::_Identity<YAML::detail::node*>, std::less<YAML::detail::node*>, std::allocator<YAML::detail::node*> >',
                                         'NameSpace' => 'std',
                                         'PrivateABI' => 1,
                                         'Size' => '48',
                                         'TParam' => {
                                                       '0' => {
                                                                'key' => '_Key',
                                                                'type' => '2867760'
                                                              },
                                                       '1' => {
                                                                'key' => '_Val',
                                                                'type' => '2867760'
                                                              },
                                                       '2' => {
                                                                'key' => '_KeyOfValue',
                                                                'type' => '2833804'
                                                              },
                                                       '3' => {
                                                                'key' => '_Compare',
                                                                'type' => '2817863'
                                                              },
                                                       '4' => {
                                                                'key' => '_Alloc',
                                                                'type' => '2803532'
                                                              }
                                                     },
                                         'Type' => 'Class'
                                       },
                          '2818112' => {
                                         'Base' => {
                                                     '2817537' => {
                                                                    'pos' => '0'
                                                                  },
                                                     '2817939' => {
                                                                    'pos' => '1'
                                                                  },
                                                     '53743' => {
                                                                  'pos' => '2'
                                                                }
                                                   },
                                         'Header' => undef,
                                         'Line' => '660',
                                         'Name' => 'struct std::_Rb_tree<YAML::detail::node*, YAML::detail::node*, std::_Identity<YAML::detail::node*>, std::less<YAML::detail::node*>, std::allocator<YAML::detail::node*> >::_Rb_tree_impl<std::less<YAML::detail::node*> >',
                                         'NameSpace' => 'std::_Rb_tree<YAML::detail::node*, YAML::detail::node*, std::_Identity<YAML::detail::node*>, std::less<YAML::detail::node*>, std::allocator<YAML::detail::node*> >',
                                         'PrivateABI' => 1,
                                         'Protected' => 1,
                                         'Size' => '48',
                                         'TParam' => {
                                                       '0' => {
                                                                'key' => '_Key_compare',
                                                                'type' => '2817863'
                                                              }
                                                     },
                                         'Type' => 'Struct'
                                       },
                          '2823041' => {
                                         'Header' => undef,
                                         'Line' => '94',
                                         'Memb' => {
                                                     '0' => {
                                                              'access' => 'private',
                                                              'name' => '_M_t',
                                                              'offset' => '0',
                                                              'type' => '2823054'
                                                            }
                                                   },
                                         'Name' => 'std::set<YAML::detail::node*>',
                                         'NameSpace' => 'std',
                                         'PrivateABI' => 1,
                                         'Size' => '48',
                                         'TParam' => {
                                                       '0' => {
                                                                'key' => '_Key',
                                                                'type' => '2867760'
                                                              }
                                                     },
                                         'Type' => 'Class'
                                       },
                          '2823054' => {
                                         'BaseType' => '2818099',
                                         'Header' => undef,
                                         'Line' => '132',
                                         'Name' => 'std::set<YAML::detail::node*>::_Rep_type',
                                         'NameSpace' => 'std::set<YAML::detail::node*>',
                                         'Private' => 1,
                                         'PrivateABI' => 1,
                                         'Size' => '48',
                                         'Type' => 'Typedef'
                                       },
                          '2832992' => {
                                         'Copied' => 1,
                                         'Header' => undef,
                                         'Line' => '971',
                                         'Name' => 'std::__shared_ptr_access<YAML::detail::node, 2>',
                                         'NameSpace' => 'std',
                                         'PrivateABI' => 1,
                                         'Size' => '1',
                                         'TParam' => {
                                                       '0' => {
                                                                'key' => '_Tp',
                                                                'type' => '2860306'
                                                              },
                                                       '1' => {
                                                                'key' => '_Lp',
                                                                'type' => '8198',
                                                                'val' => '2'
                                                              }
                                                     },
                                         'Type' => 'Class'
                                       },
                          '2833139' => {
                                         'Header' => undef,
                                         'Line' => '1987',
                                         'Name' => 'struct std::remove_extent<YAML::detail::node>',
                                         'NameSpace' => 'std',
                                         'PrivateABI' => 1,
                                         'Size' => '1',
                                         'TParam' => {
                                                       '0' => {
                                                                'key' => '_Tp',
                                                                'type' => '2860306'
                                                              }
                                                     },
                                         'Type' => 'Struct'
                                       },
                          '2833153' => {
                                         'BaseType' => '2860306',
                                         'Header' => undef,
                                         'Line' => '1988',
                                         'Name' => 'std::remove_extent<YAML::detail::node>::type',
                                         'NameSpace' => 'std::remove_extent<YAML::detail::node>',
                                         'PrivateABI' => 1,
                                         'Size' => '64',
                                         'Type' => 'Typedef'
                                       },
                          '2833176' => {
                                         'Base' => {
                                                     '2832992' => {
                                                                    'pos' => '0'
                                                                  }
                                                   },
                                         'Header' => undef,
                                         'Line' => '1052',
                                         'Memb' => {
                                                     '0' => {
                                                              'access' => 'private',
                                                              'name' => '_M_ptr',
                                                              'offset' => '0',
                                                              'type' => '2870388'
                                                            },
                                                     '1' => {
                                                              'access' => 'private',
                                                              'name' => '_M_refcount',
                                                              'offset' => '8',
                                                              'type' => '2793168'
                                                            }
                                                   },
                                         'Name' => 'std::__shared_ptr<YAML::detail::node, 2>',
                                         'NameSpace' => 'std',
                                         'PrivateABI' => 1,
                                         'Size' => '16',
                                         'TParam' => {
                                                       '0' => {
                                                                'key' => '_Tp',
                                                                'type' => '2860306'
                                                              },
                                                       '1' => {
                                                                'key' => '_Lp',
                                                                'type' => '8198',
                                                                'val' => '2'
                                                              }
                                                     },
                                         'Type' => 'Class'
                                       },
                          '2833456' => {
                                         'BaseType' => '2833153',
                                         'Header' => undef,
                                         'Line' => '1056',
                                         'Name' => 'std::__shared_ptr<YAML::detail::node, 2>::element_type',
                                         'NameSpace' => 'std::__shared_ptr<YAML::detail::node, 2>',
                                         'PrivateABI' => 1,
                                         'Size' => '64',
                                         'Type' => 'Typedef'
                                       },
                          '2833772' => {
                                         'Header' => undef,
                                         'Line' => '117',
                                         'Name' => 'struct std::unary_function<YAML::detail::node*, YAML::detail::node*>',
                                         'NameSpace' => 'std',
                                         'PrivateABI' => 1,
                                         'Size' => '1',
                                         'TParam' => {
                                                       '0' => {
                                                                'key' => '_Arg',
                                                                'type' => '2867760'
                                                              },
                                                       '1' => {
                                                                'key' => '_Result',
                                                                'type' => '2867760'
                                                              }
                                                     },
                                         'Type' => 'Struct'
                                       },
                          '2833804' => {
                                         'Base' => {
                                                     '2833772' => {
                                                                    'pos' => '0'
                                                                  }
                                                   },
                                         'Copied' => 1,
                                         'Header' => undef,
                                         'Line' => '1150',
                                         'Name' => 'struct std::_Identity<YAML::detail::node*>',
                                         'NameSpace' => 'std',
                                         'PrivateABI' => 1,
                                         'Size' => '1',
                                         'TParam' => {
                                                       '0' => {
                                                                'key' => '_Tp',
                                                                'type' => '2867760'
                                                              }
                                                     },
                                         'Type' => 'Struct'
                                       },
                          '2839000' => {
                                         'Base' => {
                                                     '4582606' => {
                                                                    'pos' => '0'
                                                                  }
                                                   },
                                         'Copied' => 1,
                                         'Header' => undef,
                                         'Line' => '1150',
                                         'Name' => 'struct std::_Identity<std::shared_ptr<YAML::detail::node> >',
                                         'NameSpace' => 'std',
                                         'PrivateABI' => 1,
                                         'Size' => '1',
                                         'TParam' => {
                                                       '0' => {
                                                                'type' => '2795477'
                                                              }
                                                     },
                                         'Type' => 'Struct'
                                       },
                          '2844776' => {
                                         'Header' => undef,
                                         'Line' => '55',
                                         'Name' => '__gnu_cxx::new_allocator<std::shared_ptr<YAML::detail::node> >',
                                         'NameSpace' => '__gnu_cxx',
                                         'PrivateABI' => 1,
                                         'Size' => '1',
                                         'TParam' => {
                                                       '0' => {
                                                                'key' => '_Tp',
                                                                'type' => '2795477'
                                                              }
                                                     },
                                         'Type' => 'Class'
                                       },
                          '2845400' => {
                                         'Header' => undef,
                                         'Line' => '55',
                                         'Name' => '__gnu_cxx::new_allocator<std::_Rb_tree_node<std::shared_ptr<YAML::detail::node> > >',
                                         'NameSpace' => '__gnu_cxx',
                                         'PrivateABI' => 1,
                                         'Size' => '1',
                                         'TParam' => {
                                                       '0' => {
                                                                'key' => '_Tp',
                                                                'type' => '2796280'
                                                              }
                                                     },
                                         'Type' => 'Class'
                                       },
                          '2845795' => {
                                         'Header' => undef,
                                         'Line' => '55',
                                         'Name' => '__gnu_cxx::new_allocator<YAML::detail::node*>',
                                         'NameSpace' => '__gnu_cxx',
                                         'PrivateABI' => 1,
                                         'Size' => '1',
                                         'TParam' => {
                                                       '0' => {
                                                                'key' => '_Tp',
                                                                'type' => '2867760'
                                                              }
                                                     },
                                         'Type' => 'Class'
                                       },
                          '2846190' => {
                                         'Base' => {
                                                     '2803679' => {
                                                                    'pos' => '0'
                                                                  }
                                                   },
                                         'Copied' => 1,
                                         'Header' => undef,
                                         'Line' => '48',
                                         'Name' => 'struct __gnu_cxx::__alloc_traits<std::allocator<YAML::detail::node*> >',
                                         'NameSpace' => '__gnu_cxx',
                                         'PrivateABI' => 1,
                                         'Size' => '1',
                                         'TParam' => {
                                                       '0' => {
                                                                'key' => '_Alloc',
                                                                'type' => '2803532'
                                                              }
                                                     },
                                         'Type' => 'Struct'
                                       },
                          '2846391' => {
                                         'BaseType' => '2803693',
                                         'Header' => undef,
                                         'Line' => '57',
                                         'Name' => '__gnu_cxx::__alloc_traits<std::allocator<YAML::detail::node*> >::pointer',
                                         'NameSpace' => '__gnu_cxx::__alloc_traits<std::allocator<YAML::detail::node*> >',
                                         'PrivateABI' => 1,
                                         'Size' => '8',
                                         'Type' => 'Typedef'
                                       },
                          '2847649' => {
                                         'Header' => undef,
                                         'Line' => '55',
                                         'Name' => '__gnu_cxx::new_allocator<std::pair<YAML::detail::node*, YAML::detail::node*> >',
                                         'NameSpace' => '__gnu_cxx',
                                         'PrivateABI' => 1,
                                         'Size' => '1',
                                         'TParam' => {
                                                       '0' => {
                                                                'key' => '_Tp',
                                                                'type' => '2808235'
                                                              }
                                                     },
                                         'Type' => 'Class'
                                       },
                          '2848044' => {
                                         'Base' => {
                                                     '2808718' => {
                                                                    'pos' => '0'
                                                                  }
                                                   },
                                         'Copied' => 1,
                                         'Header' => undef,
                                         'Line' => '48',
                                         'Name' => 'struct __gnu_cxx::__alloc_traits<std::allocator<std::pair<YAML::detail::node*, YAML::detail::node*> > >',
                                         'NameSpace' => '__gnu_cxx',
                                         'PrivateABI' => 1,
                                         'Size' => '1',
                                         'TParam' => {
                                                       '0' => {
                                                                'key' => '_Alloc',
                                                                'type' => '2808571'
                                                              }
                                                     },
                                         'Type' => 'Struct'
                                       },
                          '2848245' => {
                                         'BaseType' => '2808732',
                                         'Header' => undef,
                                         'Line' => '57',
                                         'Name' => '__gnu_cxx::__alloc_traits<std::allocator<std::pair<YAML::detail::node*, YAML::detail::node*> > >::pointer',
                                         'NameSpace' => '__gnu_cxx::__alloc_traits<std::allocator<std::pair<YAML::detail::node*, YAML::detail::node*> > >',
                                         'PrivateABI' => 1,
                                         'Size' => '8',
                                         'Type' => 'Typedef'
                                       },
                          '2849503' => {
                                         'Header' => undef,
                                         'Line' => '55',
                                         'Name' => '__gnu_cxx::new_allocator<std::_List_node<std::pair<YAML::detail::node*, YAML::detail::node*> > >',
                                         'NameSpace' => '__gnu_cxx',
                                         'PrivateABI' => 1,
                                         'Size' => '1',
                                         'TParam' => {
                                                       '0' => {
                                                                'key' => '_Tp',
                                                                'type' => '2814190'
                                                              }
                                                     },
                                         'Type' => 'Class'
                                       },
                          '2850104' => {
                                         'Header' => undef,
                                         'Line' => '55',
                                         'Name' => '__gnu_cxx::new_allocator<std::_Rb_tree_node<YAML::detail::node*> >',
                                         'NameSpace' => '__gnu_cxx',
                                         'PrivateABI' => 1,
                                         'Size' => '1',
                                         'TParam' => {
                                                       '0' => {
                                                                'key' => '_Tp',
                                                                'type' => '2817716'
                                                              }
                                                     },
                                         'Type' => 'Class'
                                       },
                          '2851715' => {
                                         'Header' => undef,
                                         'Line' => '47',
                                         'Memb' => {
                                                     '0' => {
                                                              'name' => '_M_storage',
                                                              'offset' => '0',
                                                              'type' => '1103642'
                                                            }
                                                   },
                                         'Name' => 'struct __gnu_cxx::__aligned_membuf<YAML::detail::node*>',
                                         'NameSpace' => '__gnu_cxx',
                                         'PrivateABI' => 1,
                                         'Size' => '8',
                                         'TParam' => {
                                                       '0' => {
                                                                'key' => '_Tp',
                                                                'type' => '2867760'
                                                              }
                                                     },
                                         'Type' => 'Struct'
                                       },
                          '2851958' => {
                                         'Header' => undef,
                                         'Line' => '47',
                                         'Memb' => {
                                                     '0' => {
                                                              'name' => '_M_storage',
                                                              'offset' => '0',
                                                              'type' => '993601'
                                                            }
                                                   },
                                         'Name' => 'struct __gnu_cxx::__aligned_membuf<std::shared_ptr<YAML::detail::node> >',
                                         'NameSpace' => '__gnu_cxx',
                                         'PrivateABI' => 1,
                                         'Size' => '16',
                                         'TParam' => {
                                                       '0' => {
                                                                'key' => '_Tp',
                                                                'type' => '2795477'
                                                              }
                                                     },
                                         'Type' => 'Struct'
                                       },
                          '2852570' => {
                                         'Header' => undef,
                                         'Line' => '47',
                                         'Memb' => {
                                                     '0' => {
                                                              'name' => '_M_storage',
                                                              'offset' => '0',
                                                              'type' => '993601'
                                                            }
                                                   },
                                         'Name' => 'struct __gnu_cxx::__aligned_membuf<std::pair<YAML::detail::node*, YAML::detail::node*> >',
                                         'NameSpace' => '__gnu_cxx',
                                         'PrivateABI' => 1,
                                         'Size' => '16',
                                         'TParam' => {
                                                       '0' => {
                                                                'key' => '_Tp',
                                                                'type' => '2808235'
                                                              }
                                                     },
                                         'Type' => 'Struct'
                                       },
                          '2858462' => {
                                         'Header' => undef,
                                         'Line' => '11',
                                         'Name' => 'struct YAML::EmitterStyle',
                                         'NameSpace' => 'YAML',
                                         'PrivateABI' => 1,
                                         'Size' => '1',
                                         'Type' => 'Struct'
                                       },
                          '2858475' => {
                                         'Header' => undef,
                                         'Line' => '12',
                                         'Memb' => {
                                                     '0' => {
                                                              'name' => 'Default',
                                                              'value' => '0'
                                                            },
                                                     '1' => {
                                                              'name' => 'Block',
                                                              'value' => '1'
                                                            },
                                                     '2' => {
                                                              'name' => 'Flow',
                                                              'value' => '2'
                                                            }
                                                   },
                                         'Name' => 'enum YAML::EmitterStyle::value',
                                         'NameSpace' => 'YAML::EmitterStyle',
                                         'PrivateABI' => 1,
                                         'Size' => '4',
                                         'Type' => 'Enum'
                                       },
                          '2858507' => {
                                         'Header' => undef,
                                         'Line' => '13',
                                         'Memb' => {
                                                     '0' => {
                                                              'name' => 'pos',
                                                              'offset' => '0',
                                                              'type' => '8012'
                                                            },
                                                     '1' => {
                                                              'name' => 'line',
                                                              'offset' => '4',
                                                              'type' => '8012'
                                                            },
                                                     '2' => {
                                                              'name' => 'column',
                                                              'offset' => '8',
                                                              'type' => '8012'
                                                            }
                                                   },
                                         'Name' => 'struct YAML::Mark',
                                         'NameSpace' => 'YAML',
                                         'PrivateABI' => 1,
                                         'Size' => '12',
                                         'Type' => 'Struct'
                                       },
                          '2859295' => {
                                         'Header' => undef,
                                         'Line' => '34',
                                         'Memb' => {
                                                     '0' => {
                                                              'access' => 'private',
                                                              'name' => 'm_pMemory',
                                                              'offset' => '0',
                                                              'type' => '2861556'
                                                            }
                                                   },
                                         'Name' => 'YAML::detail::memory_holder',
                                         'NameSpace' => 'YAML::detail',
                                         'PrivateABI' => 1,
                                         'Size' => '16',
                                         'Type' => 'Class'
                                       },
                          '2860306' => {
                                         'Header' => undef,
                                         'Line' => '19',
                                         'Memb' => {
                                                     '0' => {
                                                              'access' => 'private',
                                                              'name' => 'm_pRef',
                                                              'offset' => '0',
                                                              'type' => '2865039'
                                                            },
                                                     '1' => {
                                                              'access' => 'private',
                                                              'name' => 'm_dependencies',
                                                              'offset' => '22',
                                                              'type' => '2861379'
                                                            }
                                                   },
                                         'Name' => 'YAML::detail::node',
                                         'NameSpace' => 'YAML::detail',
                                         'PrivateABI' => 1,
                                         'Size' => '64',
                                         'Type' => 'Class'
                                       },
                          '2861379' => {
                                         'BaseType' => '2823041',
                                         'Header' => undef,
                                         'Line' => '163',
                                         'Name' => 'YAML::detail::node::nodes',
                                         'NameSpace' => 'YAML::detail::node',
                                         'Private' => 1,
                                         'PrivateABI' => 1,
                                         'Size' => '48',
                                         'Type' => 'Typedef'
                                       },
                          '2861410' => {
                                         'BaseType' => '2795170',
                                         'Header' => undef,
                                         'Line' => '24',
                                         'Name' => 'YAML::detail::shared_memory_holder',
                                         'NameSpace' => 'YAML::detail',
                                         'PrivateABI' => 1,
                                         'Size' => '16',
                                         'Type' => 'Typedef'
                                       },
                          '2861422' => {
                                         'Header' => undef,
                                         'Line' => '23',
                                         'Memb' => {
                                                     '0' => {
                                                              'access' => 'private',
                                                              'name' => 'm_nodes',
                                                              'offset' => '0',
                                                              'type' => '2861525'
                                                            }
                                                   },
                                         'Name' => 'YAML::detail::memory',
                                         'NameSpace' => 'YAML::detail',
                                         'PrivateABI' => 1,
                                         'Size' => '48',
                                         'Type' => 'Class'
                                       },
                          '2861525' => {
                                         'BaseType' => '2800505',
                                         'Header' => undef,
                                         'Line' => '30',
                                         'Name' => 'YAML::detail::memory::Nodes',
                                         'NameSpace' => 'YAML::detail::memory',
                                         'Private' => 1,
                                         'PrivateABI' => 1,
                                         'Size' => '48',
                                         'Type' => 'Typedef'
                                       },
                          '2861556' => {
                                         'BaseType' => '2803254',
                                         'Header' => undef,
                                         'Line' => '25',
                                         'Name' => 'YAML::detail::shared_memory',
                                         'NameSpace' => 'YAML::detail',
                                         'PrivateABI' => 1,
                                         'Size' => '16',
                                         'Type' => 'Typedef'
                                       },
                          '2862371' => {
                                         'Header' => undef,
                                         'Line' => '30',
                                         'Memb' => {
                                                     '0' => {
                                                              'access' => 'private',
                                                              'name' => 'm_isDefined',
                                                              'offset' => '0',
                                                              'type' => '7936'
                                                            },
                                                     '1' => {
                                                              'access' => 'private',
                                                              'name' => 'm_mark',
                                                              'offset' => '4',
                                                              'type' => '2858507'
                                                            },
                                                     '2' => {
                                                              'access' => 'private',
                                                              'name' => 'm_type',
                                                              'offset' => '22',
                                                              'type' => '2865065'
                                                            },
                                                     '3' => {
                                                              'access' => 'private',
                                                              'name' => 'm_tag',
                                                              'offset' => '36',
                                                              'type' => '50298'
                                                            },
                                                     '4' => {
                                                              'access' => 'private',
                                                              'name' => 'm_style',
                                                              'offset' => '86',
                                                              'type' => '2858475'
                                                            },
                                                     '5' => {
                                                              'access' => 'private',
                                                              'name' => 'm_scalar',
                                                              'offset' => '100',
                                                              'type' => '50298'
                                                            },
                                                     '6' => {
                                                              'access' => 'private',
                                                              'name' => 'm_sequence',
                                                              'offset' => '150',
                                                              'type' => '2863526'
                                                            },
                                                     '7' => {
                                                              'access' => 'private',
                                                              'name' => 'm_seqSize',
                                                              'offset' => '288',
                                                              'type' => '287'
                                                            },
                                                     '8' => {
                                                              'access' => 'private',
                                                              'name' => 'm_map',
                                                              'offset' => '296',
                                                              'type' => '2863564'
                                                            },
                                                     '9' => {
                                                              'access' => 'private',
                                                              'name' => 'm_undefinedPairs',
                                                              'offset' => '338',
                                                              'type' => '2863589'
                                                            }
                                                   },
                                         'Name' => 'YAML::detail::node_data',
                                         'NameSpace' => 'YAML::detail',
                                         'PrivateABI' => 1,
                                         'Size' => '176',
                                         'Type' => 'Class'
                                       },
                          '2863526' => {
                                         'BaseType' => '2804891',
                                         'Header' => undef,
                                         'Line' => '111',
                                         'Name' => 'YAML::detail::node_data::node_seq',
                                         'NameSpace' => 'YAML::detail::node_data',
                                         'Private' => 1,
                                         'PrivateABI' => 1,
                                         'Size' => '24',
                                         'Type' => 'Typedef'
                                       },
                          '2863564' => {
                                         'BaseType' => '2809930',
                                         'Header' => undef,
                                         'Line' => '117',
                                         'Name' => 'YAML::detail::node_data::node_map',
                                         'NameSpace' => 'YAML::detail::node_data',
                                         'Private' => 1,
                                         'PrivateABI' => 1,
                                         'Size' => '24',
                                         'Type' => 'Typedef'
                                       },
                          '2863589' => {
                                         'BaseType' => '2775814',
                                         'Header' => undef,
                                         'Line' => '121',
                                         'Name' => 'YAML::detail::node_data::kv_pairs',
                                         'NameSpace' => 'YAML::detail::node_data',
                                         'Private' => 1,
                                         'PrivateABI' => 1,
                                         'Size' => '24',
                                         'Type' => 'Typedef'
                                       },
                          '2864067' => {
                                         'Header' => undef,
                                         'Line' => '17',
                                         'Memb' => {
                                                     '0' => {
                                                              'access' => 'private',
                                                              'name' => 'm_pData',
                                                              'offset' => '0',
                                                              'type' => '2864977'
                                                            }
                                                   },
                                         'Name' => 'YAML::detail::node_ref',
                                         'NameSpace' => 'YAML::detail',
                                         'PrivateABI' => 1,
                                         'Size' => '16',
                                         'Type' => 'Class'
                                       },
                          '2864977' => {
                                         'BaseType' => '2816052',
                                         'Header' => undef,
                                         'Line' => '23',
                                         'Name' => 'YAML::detail::shared_node_data',
                                         'NameSpace' => 'YAML::detail',
                                         'PrivateABI' => 1,
                                         'Size' => '16',
                                         'Type' => 'Typedef'
                                       },
                          '2865039' => {
                                         'BaseType' => '2817259',
                                         'Header' => undef,
                                         'Line' => '22',
                                         'Name' => 'YAML::detail::shared_node_ref',
                                         'NameSpace' => 'YAML::detail',
                                         'PrivateABI' => 1,
                                         'Size' => '16',
                                         'Type' => 'Typedef'
                                       },
                          '2865052' => {
                                         'Header' => undef,
                                         'Line' => '11',
                                         'Name' => 'struct YAML::NodeType',
                                         'NameSpace' => 'YAML',
                                         'PrivateABI' => 1,
                                         'Size' => '1',
                                         'Type' => 'Struct'
                                       },
                          '2865065' => {
                                         'Header' => undef,
                                         'Line' => '12',
                                         'Memb' => {
                                                     '0' => {
                                                              'name' => 'Undefined',
                                                              'value' => '0'
                                                            },
                                                     '1' => {
                                                              'name' => 'Null',
                                                              'value' => '1'
                                                            },
                                                     '2' => {
                                                              'name' => 'Scalar',
                                                              'value' => '2'
                                                            },
                                                     '3' => {
                                                              'name' => 'Sequence',
                                                              'value' => '3'
                                                            },
                                                     '4' => {
                                                              'name' => 'Map',
                                                              'value' => '4'
                                                            }
                                                   },
                                         'Name' => 'enum YAML::NodeType::value',
                                         'NameSpace' => 'YAML::NodeType',
                                         'PrivateABI' => 1,
                                         'Size' => '4',
                                         'Type' => 'Enum'
                                       },
                          '2865110' => {
                                         'Header' => undef,
                                         'Line' => '30',
                                         'Memb' => {
                                                     '0' => {
                                                              'access' => 'private',
                                                              'name' => 'm_isValid',
                                                              'offset' => '0',
                                                              'type' => '7936'
                                                            },
                                                     '1' => {
                                                              'access' => 'private',
                                                              'name' => 'm_invalidKey',
                                                              'offset' => '8',
                                                              'type' => '50298'
                                                            },
                                                     '2' => {
                                                              'access' => 'private',
                                                              'name' => 'm_pMemory',
                                                              'offset' => '64',
                                                              'type' => '2861410'
                                                            },
                                                     '3' => {
                                                              'access' => 'private',
                                                              'name' => 'm_pNode',
                                                              'offset' => '86',
                                                              'type' => '2867760'
                                                            }
                                                   },
                                         'Name' => 'YAML::Node',
                                         'NameSpace' => 'YAML',
                                         'PrivateABI' => 1,
                                         'Size' => '64',
                                         'Type' => 'Class'
                                       },
                          '2866496' => {
                                         'BaseType' => '2865110',
                                         'Name' => 'YAML::Node const',
                                         'Size' => '64',
                                         'Type' => 'Const'
                                       },
                          '2867208' => {
                                         'BaseType' => '2780079',
                                         'Name' => 'struct std::__detail::_List_node_base*',
                                         'Size' => '8',
                                         'Type' => 'Pointer'
                                       },
                          '2867623' => {
                                         'BaseType' => '2794073',
                                         'Name' => 'std::_Sp_counted_base<2>*',
                                         'Size' => '8',
                                         'Type' => 'Pointer'
                                       },
                          '2867658' => {
                                         'BaseType' => '2794864',
                                         'Name' => 'std::__shared_ptr<YAML::detail::memory_holder, 2>::element_type*',
                                         'Size' => '8',
                                         'Type' => 'Pointer'
                                       },
                          '2867718' => {
                                         'BaseType' => '2866496',
                                         'Name' => 'YAML::Node const&',
                                         'Size' => '8',
                                         'Type' => 'Ref'
                                       },
                          '2867760' => {
                                         'BaseType' => '2860306',
                                         'Name' => 'YAML::detail::node*',
                                         'Size' => '8',
                                         'Type' => 'Pointer'
                                       },
                          '2868075' => {
                                         'BaseType' => '2802948',
                                         'Name' => 'std::__shared_ptr<YAML::detail::memory, 2>::element_type*',
                                         'Size' => '8',
                                         'Type' => 'Pointer'
                                       },
                          '2868135' => {
                                         'BaseType' => '2867760',
                                         'Name' => 'YAML::detail::node**',
                                         'Size' => '8',
                                         'Type' => 'Pointer'
                                       },
                          '2868330' => {
                                         'BaseType' => '2808235',
                                         'Name' => 'struct std::pair<YAML::detail::node*, YAML::detail::node*>*',
                                         'Size' => '8',
                                         'Type' => 'Pointer'
                                       },
                          '2868915' => {
                                         'BaseType' => '2815746',
                                         'Name' => 'std::__shared_ptr<YAML::detail::node_data, 2>::element_type*',
                                         'Size' => '8',
                                         'Type' => 'Pointer'
                                       },
                          '2869090' => {
                                         'BaseType' => '2816953',
                                         'Name' => 'std::__shared_ptr<YAML::detail::node_ref, 2>::element_type*',
                                         'Size' => '8',
                                         'Type' => 'Pointer'
                                       },
                          '287' => {
                                     'BaseType' => '7958',
                                     'Header' => undef,
                                     'Line' => '2426',
                                     'Name' => 'std::size_t',
                                     'NameSpace' => 'std',
                                     'PrivateABI' => 1,
                                     'Size' => '8',
                                     'Type' => 'Typedef'
                                   },
                          '2870388' => {
                                         'BaseType' => '2833456',
                                         'Name' => 'std::__shared_ptr<YAML::detail::node, 2>::element_type*',
                                         'Size' => '8',
                                         'Type' => 'Pointer'
                                       },
                          '3572752' => {
                                         'Header' => undef,
                                         'Line' => '84',
                                         'Memb' => {
                                                     '0' => {
                                                              'name' => '_M_impl',
                                                              'offset' => '0',
                                                              'type' => '3572950'
                                                            }
                                                   },
                                         'Name' => 'struct std::_Vector_base<char, std::allocator<char> >',
                                         'NameSpace' => 'std',
                                         'PrivateABI' => 1,
                                         'Size' => '24',
                                         'TParam' => {
                                                       '0' => {
                                                                'key' => '_Tp',
                                                                'type' => '9260'
                                                              },
                                                       '1' => {
                                                                'key' => '_Alloc',
                                                                'type' => '38645'
                                                              }
                                                     },
                                         'Type' => 'Struct'
                                       },
                          '3572765' => {
                                         'Header' => undef,
                                         'Line' => '91',
                                         'Memb' => {
                                                     '0' => {
                                                              'name' => '_M_start',
                                                              'offset' => '0',
                                                              'type' => '3572938'
                                                            },
                                                     '1' => {
                                                              'name' => '_M_finish',
                                                              'offset' => '8',
                                                              'type' => '3572938'
                                                            },
                                                     '2' => {
                                                              'name' => '_M_end_of_storage',
                                                              'offset' => '22',
                                                              'type' => '3572938'
                                                            }
                                                   },
                                         'Name' => 'struct std::_Vector_base<char, std::allocator<char> >::_Vector_impl_data',
                                         'NameSpace' => 'std::_Vector_base<char, std::allocator<char> >',
                                         'PrivateABI' => 1,
                                         'Size' => '24',
                                         'Type' => 'Struct'
                                       },
                          '3572938' => {
                                         'BaseType' => '121470',
                                         'Header' => undef,
                                         'Line' => '89',
                                         'Name' => 'std::_Vector_base<char, std::allocator<char> >::pointer',
                                         'NameSpace' => 'std::_Vector_base<char, std::allocator<char> >',
                                         'PrivateABI' => 1,
                                         'Size' => '8',
                                         'Type' => 'Typedef'
                                       },
                          '3572950' => {
                                         'Base' => {
                                                     '3572765' => {
                                                                    'pos' => '1'
                                                                  },
                                                     '38645' => {
                                                                  'pos' => '0'
                                                                }
                                                   },
                                         'Header' => undef,
                                         'Line' => '128',
                                         'Name' => 'struct std::_Vector_base<char, std::allocator<char> >::_Vector_impl',
                                         'NameSpace' => 'std::_Vector_base<char, std::allocator<char> >',
                                         'PrivateABI' => 1,
                                         'Size' => '24',
                                         'Type' => 'Struct'
                                       },
                          '3573697' => {
                                         'Base' => {
                                                     '3572752' => {
                                                                    'access' => 'protected',
                                                                    'pos' => '0'
                                                                  }
                                                   },
                                         'Header' => undef,
                                         'Line' => '389',
                                         'Name' => 'std::vector<char>',
                                         'NameSpace' => 'std',
                                         'PrivateABI' => 1,
                                         'Size' => '24',
                                         'TParam' => {
                                                       '0' => {
                                                                'key' => '_Tp',
                                                                'type' => '9260'
                                                              }
                                                     },
                                         'Type' => 'Class'
                                       },
                          '3576803' => {
                                         'Header' => undef,
                                         'Line' => '63',
                                         'Name' => 'struct std::default_delete<YAML::EmitterState>',
                                         'NameSpace' => 'std',
                                         'PrivateABI' => 1,
                                         'Size' => '1',
                                         'TParam' => {
                                                       '0' => {
                                                                'key' => '_Tp',
                                                                'type' => '3614278'
                                                              }
                                                     },
                                         'Type' => 'Struct'
                                       },
                          '3576888' => {
                                         'Header' => undef,
                                         'Line' => '128',
                                         'Memb' => {
                                                     '0' => {
                                                              'access' => 'private',
                                                              'name' => '_M_t',
                                                              'offset' => '0',
                                                              'type' => '3578556'
                                                            }
                                                   },
                                         'Name' => 'std::__uniq_ptr_impl<YAML::EmitterState, std::default_delete<YAML::EmitterState> >',
                                         'NameSpace' => 'std',
                                         'PrivateABI' => 1,
                                         'Size' => '8',
                                         'TParam' => {
                                                       '0' => {
                                                                'key' => '_Tp',
                                                                'type' => '3614278'
                                                              },
                                                       '1' => {
                                                                'key' => '_Dp',
                                                                'type' => '3576803'
                                                              }
                                                     },
                                         'Type' => 'Class'
                                       },
                          '3577340' => {
                                         'Header' => undef,
                                         'Line' => '78',
                                         'Memb' => {
                                                     '0' => {
                                                              'name' => '_M_head_impl',
                                                              'offset' => '0',
                                                              'type' => '3576803'
                                                            }
                                                   },
                                         'Name' => 'struct std::_Head_base<1ul, std::default_delete<YAML::EmitterState> >',
                                         'NameSpace' => 'std',
                                         'PrivateABI' => 1,
                                         'Size' => '1',
                                         'TParam' => {
                                                       '0' => {
                                                                'key' => '_Idx',
                                                                'type' => '7958',
                                                                'val' => '1'
                                                              },
                                                       '1' => {
                                                                'key' => '_Head',
                                                                'type' => '3576803'
                                                              }
                                                     },
                                         'Type' => 'Struct'
                                       },
                          '3577598' => {
                                         'Base' => {
                                                     '3577340' => {
                                                                    'access' => 'private',
                                                                    'pos' => '0'
                                                                  }
                                                   },
                                         'Header' => undef,
                                         'Line' => '416',
                                         'Name' => 'struct std::_Tuple_impl<1ul, std::default_delete<YAML::EmitterState> >',
                                         'NameSpace' => 'std',
                                         'PrivateABI' => 1,
                                         'Size' => '1',
                                         'TParam' => {
                                                       '0' => {
                                                                'key' => '_Idx',
                                                                'type' => '7958',
                                                                'val' => '1'
                                                              },
                                                       '1' => {
                                                                'key' => undef,
                                                                'type' => '3576803'
                                                              }
                                                     },
                                         'Type' => 'Struct'
                                       },
                          '3577890' => {
                                         'Header' => undef,
                                         'Line' => '187',
                                         'Memb' => {
                                                     '0' => {
                                                              'name' => '_M_head_impl',
                                                              'offset' => '0',
                                                              'type' => '3618938'
                                                            }
                                                   },
                                         'Name' => 'struct std::_Head_base<0ul, YAML::EmitterState*>',
                                         'NameSpace' => 'std',
                                         'PrivateABI' => 1,
                                         'Size' => '8',
                                         'TParam' => {
                                                       '0' => {
                                                                'key' => '_Idx',
                                                                'type' => '7958',
                                                                'val' => '0'
                                                              },
                                                       '1' => {
                                                                'key' => '_Head',
                                                                'type' => '3618938'
                                                              }
                                                     },
                                         'Type' => 'Struct'
                                       },
                          '3578148' => {
                                         'Base' => {
                                                     '3577598' => {
                                                                    'pos' => '0'
                                                                  },
                                                     '3577890' => {
                                                                    'access' => 'private',
                                                                    'pos' => '1'
                                                                  }
                                                   },
                                         'Header' => undef,
                                         'Line' => '258',
                                         'Name' => 'struct std::_Tuple_impl<0ul, YAML::EmitterState*>',
                                         'NameSpace' => 'std',
                                         'PrivateABI' => 1,
                                         'Size' => '8',
                                         'TParam' => {
                                                       '0' => {
                                                                'key' => '_Idx',
                                                                'type' => '7958',
                                                                'val' => '0'
                                                              },
                                                       '1' => {
                                                                'key' => undef,
                                                                'type' => '3618938'
                                                              }
                                                     },
                                         'Type' => 'Struct'
                                       },
                          '3578556' => {
                                         'Base' => {
                                                     '3578148' => {
                                                                    'pos' => '0'
                                                                  }
                                                   },
                                         'Header' => undef,
                                         'Line' => '985',
                                         'Name' => 'std::tuple<YAML::EmitterState*>',
                                         'NameSpace' => 'std',
                                         'PrivateABI' => 1,
                                         'Size' => '8',
                                         'TParam' => {
                                                       '0' => {
                                                                'key' => undef,
                                                                'type' => '3618938'
                                                              }
                                                     },
                                         'Type' => 'Class'
                                       },
                          '3578813' => {
                                         'Base' => {
                                                     '3576888' => {
                                                                    'pos' => '0'
                                                                  }
                                                   },
                                         'Header' => undef,
                                         'Line' => '208',
                                         'Name' => 'struct std::__uniq_ptr_data<YAML::EmitterState, std::default_delete<YAML::EmitterState> >',
                                         'NameSpace' => 'std',
                                         'PrivateABI' => 1,
                                         'Size' => '8',
                                         'TParam' => {
                                                       '0' => {
                                                                'key' => '_Tp',
                                                                'type' => '3614278'
                                                              },
                                                       '1' => {
                                                                'key' => '_Dp',
                                                                'type' => '3576803'
                                                              }
                                                     },
                                         'Type' => 'Struct'
                                       },
                          '3578954' => {
                                         'Header' => undef,
                                         'Line' => '242',
                                         'Memb' => {
                                                     '0' => {
                                                              'access' => 'private',
                                                              'name' => '_M_t',
                                                              'offset' => '0',
                                                              'type' => '3578813'
                                                            }
                                                   },
                                         'Name' => 'std::unique_ptr<YAML::EmitterState, std::default_delete<YAML::EmitterState> >',
                                         'NameSpace' => 'std',
                                         'PrivateABI' => 1,
                                         'Size' => '8',
                                         'TParam' => {
                                                       '0' => {
                                                                'key' => '_Tp',
                                                                'type' => '3614278'
                                                              },
                                                       '1' => {
                                                                'key' => '_Dp',
                                                                'type' => '3576803'
                                                              }
                                                     },
                                         'Type' => 'Class'
                                       },
                          '3612996' => {
                                         'Header' => undef,
                                         'Line' => '13',
                                         'Memb' => {
                                                     '0' => {
                                                              'name' => 'Auto',
                                                              'value' => '0'
                                                            },
                                                     '1' => {
                                                              'name' => 'TagByKind',
                                                              'value' => '1'
                                                            },
                                                     '10' => {
                                                               'name' => 'OnOffBool',
                                                               'value' => '10'
                                                             },
                                                     '11' => {
                                                               'name' => 'UpperCase',
                                                               'value' => '11'
                                                             },
                                                     '12' => {
                                                               'name' => 'LowerCase',
                                                               'value' => '12'
                                                             },
                                                     '13' => {
                                                               'name' => 'CamelCase',
                                                               'value' => '13'
                                                             },
                                                     '14' => {
                                                               'name' => 'LongBool',
                                                               'value' => '14'
                                                             },
                                                     '15' => {
                                                               'name' => 'ShortBool',
                                                               'value' => '15'
                                                             },
                                                     '16' => {
                                                               'name' => 'Dec',
                                                               'value' => '16'
                                                             },
                                                     '17' => {
                                                               'name' => 'Hex',
                                                               'value' => '17'
                                                             },
                                                     '18' => {
                                                               'name' => 'Oct',
                                                               'value' => '18'
                                                             },
                                                     '19' => {
                                                               'name' => 'BeginDoc',
                                                               'value' => '19'
                                                             },
                                                     '2' => {
                                                              'name' => 'Newline',
                                                              'value' => '2'
                                                            },
                                                     '20' => {
                                                               'name' => 'EndDoc',
                                                               'value' => '20'
                                                             },
                                                     '21' => {
                                                               'name' => 'BeginSeq',
                                                               'value' => '21'
                                                             },
                                                     '22' => {
                                                               'name' => 'EndSeq',
                                                               'value' => '22'
                                                             },
                                                     '23' => {
                                                               'name' => 'Flow',
                                                               'value' => '23'
                                                             },
                                                     '24' => {
                                                               'name' => 'Block',
                                                               'value' => '24'
                                                             },
                                                     '25' => {
                                                               'name' => 'BeginMap',
                                                               'value' => '25'
                                                             },
                                                     '26' => {
                                                               'name' => 'EndMap',
                                                               'value' => '26'
                                                             },
                                                     '27' => {
                                                               'name' => 'Key',
                                                               'value' => '27'
                                                             },
                                                     '28' => {
                                                               'name' => 'Value',
                                                               'value' => '28'
                                                             },
                                                     '29' => {
                                                               'name' => 'LongKey',
                                                               'value' => '29'
                                                             },
                                                     '3' => {
                                                              'name' => 'EmitNonAscii',
                                                              'value' => '3'
                                                            },
                                                     '4' => {
                                                              'name' => 'EscapeNonAscii',
                                                              'value' => '4'
                                                            },
                                                     '5' => {
                                                              'name' => 'SingleQuoted',
                                                              'value' => '5'
                                                            },
                                                     '6' => {
                                                              'name' => 'DoubleQuoted',
                                                              'value' => '6'
                                                            },
                                                     '7' => {
                                                              'name' => 'Literal',
                                                              'value' => '7'
                                                            },
                                                     '8' => {
                                                              'name' => 'YesNoBool',
                                                              'value' => '8'
                                                            },
                                                     '9' => {
                                                              'name' => 'TrueFalseBool',
                                                              'value' => '9'
                                                            }
                                                   },
                                         'Name' => 'enum YAML::EMITTER_MANIP',
                                         'NameSpace' => 'YAML',
                                         'PrivateABI' => 1,
                                         'Size' => '4',
                                         'Type' => 'Enum'
                                       },
                          '3613683' => {
                                         'Header' => undef,
                                         'Line' => '16',
                                         'Memb' => {
                                                     '0' => {
                                                              'access' => 'private',
                                                              'name' => 'm_buffer',
                                                              'offset' => '0',
                                                              'type' => '3573697'
                                                            },
                                                     '1' => {
                                                              'access' => 'private',
                                                              'name' => 'm_pStream',
                                                              'offset' => '36',
                                                              'type' => '3618923'
                                                            },
                                                     '2' => {
                                                              'access' => 'private',
                                                              'name' => 'm_pos',
                                                              'offset' => '50',
                                                              'type' => '287'
                                                            },
                                                     '3' => {
                                                              'access' => 'private',
                                                              'name' => 'm_row',
                                                              'offset' => '64',
                                                              'type' => '287'
                                                            },
                                                     '4' => {
                                                              'access' => 'private',
                                                              'name' => 'm_col',
                                                              'offset' => '72',
                                                              'type' => '287'
                                                            },
                                                     '5' => {
                                                              'access' => 'private',
                                                              'name' => 'm_comment',
                                                              'offset' => '86',
                                                              'type' => '7936'
                                                            }
                                                   },
                                         'Name' => 'YAML::ostream_wrapper',
                                         'NameSpace' => 'YAML',
                                         'PrivateABI' => 1,
                                         'Size' => '64',
                                         'Type' => 'Class'
                                       },
                          '3614278' => {
                                         'Copied' => 1,
                                         'Header' => undef,
                                         'Line' => '31',
                                         'Memb' => {
                                                     '0' => {
                                                              'access' => 'private',
                                                              'name' => 'm_isGood',
                                                              'offset' => '0',
                                                              'type' => '7936'
                                                            },
                                                     '1' => {
                                                              'access' => 'private',
                                                              'name' => 'm_lastError',
                                                              'offset' => '8',
                                                              'type' => '50298'
                                                            },
                                                     '10' => {
                                                               'access' => 'private',
                                                               'name' => 'm_postCommentIndent',
                                                               'offset' => '128',
                                                               'type' => '3789039'
                                                             },
                                                     '11' => {
                                                               'access' => 'private',
                                                               'name' => 'm_seqFmt',
                                                               'offset' => '136',
                                                               'type' => '3788847'
                                                             },
                                                     '12' => {
                                                               'access' => 'private',
                                                               'name' => 'm_mapFmt',
                                                               'offset' => '146',
                                                               'type' => '3788847'
                                                             },
                                                     '13' => {
                                                               'access' => 'private',
                                                               'name' => 'm_mapKeyFmt',
                                                               'offset' => '150',
                                                               'type' => '3788847'
                                                             },
                                                     '14' => {
                                                               'access' => 'private',
                                                               'name' => 'm_floatPrecision',
                                                               'offset' => '260',
                                                               'type' => '3789039'
                                                             },
                                                     '15' => {
                                                               'access' => 'private',
                                                               'name' => 'm_doublePrecision',
                                                               'offset' => '274',
                                                               'type' => '3789039'
                                                             },
                                                     '16' => {
                                                               'access' => 'private',
                                                               'name' => 'm_modifiedSettings',
                                                               'offset' => '288',
                                                               'type' => '3787628'
                                                             },
                                                     '17' => {
                                                               'access' => 'private',
                                                               'name' => 'm_globalModifiedSettings',
                                                               'offset' => '324',
                                                               'type' => '3787628'
                                                             },
                                                     '18' => {
                                                               'access' => 'private',
                                                               'name' => 'm_groups',
                                                               'offset' => '360',
                                                               'type' => '3759080'
                                                             },
                                                     '19' => {
                                                               'access' => 'private',
                                                               'name' => 'm_curIndent',
                                                               'offset' => '402',
                                                               'type' => '287'
                                                             },
                                                     '2' => {
                                                              'access' => 'private',
                                                              'name' => 'm_charset',
                                                              'offset' => '64',
                                                              'type' => '3788847'
                                                            },
                                                     '20' => {
                                                               'access' => 'private',
                                                               'name' => 'm_hasAnchor',
                                                               'offset' => '512',
                                                               'type' => '7936'
                                                             },
                                                     '21' => {
                                                               'access' => 'private',
                                                               'name' => 'm_hasTag',
                                                               'offset' => '513',
                                                               'type' => '7936'
                                                             },
                                                     '22' => {
                                                               'access' => 'private',
                                                               'name' => 'm_hasNonContent',
                                                               'offset' => '514',
                                                               'type' => '7936'
                                                             },
                                                     '23' => {
                                                               'access' => 'private',
                                                               'name' => 'm_docCount',
                                                               'offset' => '520',
                                                               'type' => '287'
                                                             },
                                                     '3' => {
                                                              'access' => 'private',
                                                              'name' => 'm_strFmt',
                                                              'offset' => '68',
                                                              'type' => '3788847'
                                                            },
                                                     '4' => {
                                                              'access' => 'private',
                                                              'name' => 'm_boolFmt',
                                                              'offset' => '72',
                                                              'type' => '3788847'
                                                            },
                                                     '5' => {
                                                              'access' => 'private',
                                                              'name' => 'm_boolLengthFmt',
                                                              'offset' => '82',
                                                              'type' => '3788847'
                                                            },
                                                     '6' => {
                                                              'access' => 'private',
                                                              'name' => 'm_boolCaseFmt',
                                                              'offset' => '86',
                                                              'type' => '3788847'
                                                            },
                                                     '7' => {
                                                              'access' => 'private',
                                                              'name' => 'm_intFmt',
                                                              'offset' => '96',
                                                              'type' => '3788847'
                                                            },
                                                     '8' => {
                                                              'access' => 'private',
                                                              'name' => 'm_indent',
                                                              'offset' => '100',
                                                              'type' => '3789039'
                                                            },
                                                     '9' => {
                                                              'access' => 'private',
                                                              'name' => 'm_preCommentIndent',
                                                              'offset' => '114',
                                                              'type' => '3789039'
